TN:
SF:/usr/lib/gcc/x86_64-pc-msys/10.2.0/include/c++/bits/char_traits.h
FN:337,_ZNSt11char_traitsIcE7compareEPKcS2_m
FNDA:0,_ZNSt11char_traitsIcE7compareEPKcS2_m
FNF:1
FNH:0
DA:337,0
DA:339,0
DA:340,0
DA:347,0
LF:4
LH:0
end_of_record
SF:/usr/lib/gcc/x86_64-pc-msys/10.2.0/include/c++/bits/stl_iterator.h
FN:953,_ZN9__gnu_cxx17__normal_iteratorIPSt6vectorISsSaISsEES1_IS3_SaIS3_EEEC1ERKS4_
FNDA:74,_ZN9__gnu_cxx17__normal_iteratorIPSt6vectorISsSaISsEES1_IS3_SaIS3_EEEC1ERKS4_
FN:953,_ZN9__gnu_cxx17__normal_iteratorIPiSt6vectorIiSaIiEEEC1ERKS1_
FNDA:24056,_ZN9__gnu_cxx17__normal_iteratorIPiSt6vectorIiSaIiEEEC1ERKS1_
FN:953,_ZN9__gnu_cxx17__normal_iteratorIPKSt6vectorISsSaISsEES1_IS3_SaIS3_EEEC1ERKS5_
FNDA:24,_ZN9__gnu_cxx17__normal_iteratorIPKSt6vectorISsSaISsEES1_IS3_SaIS3_EEEC1ERKS5_
FN:953,_ZN9__gnu_cxx17__normal_iteratorIPSsSt6vectorISsSaISsEEEC1ERKS1_
FNDA:0,_ZN9__gnu_cxx17__normal_iteratorIPSsSt6vectorISsSaISsEEEC1ERKS1_
FN:953,_ZN9__gnu_cxx17__normal_iteratorIPKSsSt6vectorISsSaISsEEEC1ERKS2_
FNDA:0,_ZN9__gnu_cxx17__normal_iteratorIPKSsSt6vectorISsSaISsEEEC1ERKS2_
FN:953,_ZN9__gnu_cxx17__normal_iteratorIPKiSt6vectorIiSaIiEEEC1ERKS2_
FNDA:6,_ZN9__gnu_cxx17__normal_iteratorIPKiSt6vectorIiSaIiEEEC1ERKS2_
FN:968,_ZNK9__gnu_cxx17__normal_iteratorIPKSsSt6vectorISsSaISsEEEdeEv
FNDA:376,_ZNK9__gnu_cxx17__normal_iteratorIPKSsSt6vectorISsSaISsEEEdeEv
FN:968,_ZNK9__gnu_cxx17__normal_iteratorIPKiSt6vectorIiSaIiEEEdeEv
FNDA:2,_ZNK9__gnu_cxx17__normal_iteratorIPKiSt6vectorIiSaIiEEEdeEv
FN:968,_ZNK9__gnu_cxx17__normal_iteratorIPKSt6vectorISsSaISsEES1_IS3_SaIS3_EEEdeEv
FNDA:60,_ZNK9__gnu_cxx17__normal_iteratorIPKSt6vectorISsSaISsEES1_IS3_SaIS3_EEEdeEv
FN:968,_ZNK9__gnu_cxx17__normal_iteratorIPSsSt6vectorISsSaISsEEEdeEv
FNDA:0,_ZNK9__gnu_cxx17__normal_iteratorIPSsSt6vectorISsSaISsEEEdeEv
FN:968,_ZNK9__gnu_cxx17__normal_iteratorIPiSt6vectorIiSaIiEEEdeEv
FNDA:12012,_ZNK9__gnu_cxx17__normal_iteratorIPiSt6vectorIiSaIiEEEdeEv
FN:978,_ZN9__gnu_cxx17__normal_iteratorIPSsSt6vectorISsSaISsEEEppEv
FNDA:110,_ZN9__gnu_cxx17__normal_iteratorIPSsSt6vectorISsSaISsEEEppEv
FN:978,_ZN9__gnu_cxx17__normal_iteratorIPKSt6vectorISsSaISsEES1_IS3_SaIS3_EEEppEv
FNDA:60,_ZN9__gnu_cxx17__normal_iteratorIPKSt6vectorISsSaISsEES1_IS3_SaIS3_EEEppEv
FN:978,_ZN9__gnu_cxx17__normal_iteratorIPiSt6vectorIiSaIiEEEppEv
FNDA:10,_ZN9__gnu_cxx17__normal_iteratorIPiSt6vectorIiSaIiEEEppEv
FN:978,_ZN9__gnu_cxx17__normal_iteratorIPKiSt6vectorIiSaIiEEEppEv
FNDA:2,_ZN9__gnu_cxx17__normal_iteratorIPKiSt6vectorIiSaIiEEEppEv
FN:978,_ZN9__gnu_cxx17__normal_iteratorIPKSsSt6vectorISsSaISsEEEppEv
FNDA:376,_ZN9__gnu_cxx17__normal_iteratorIPKSsSt6vectorISsSaISsEEEppEv
FN:1031,_ZNK9__gnu_cxx17__normal_iteratorIPKSt6vectorISsSaISsEES1_IS3_SaIS3_EEE4baseEv
FNDA:144,_ZNK9__gnu_cxx17__normal_iteratorIPKSt6vectorISsSaISsEES1_IS3_SaIS3_EEE4baseEv
FN:1031,_ZNK9__gnu_cxx17__normal_iteratorIPKiSt6vectorIiSaIiEEE4baseEv
FNDA:10,_ZNK9__gnu_cxx17__normal_iteratorIPKiSt6vectorIiSaIiEEE4baseEv
FN:1031,_ZNK9__gnu_cxx17__normal_iteratorIPSt6vectorISsSaISsEES1_IS3_SaIS3_EEE4baseEv
FNDA:148,_ZNK9__gnu_cxx17__normal_iteratorIPSt6vectorISsSaISsEES1_IS3_SaIS3_EEE4baseEv
FN:1031,_ZNK9__gnu_cxx17__normal_iteratorIPiSt6vectorIiSaIiEEE4baseEv
FNDA:112,_ZNK9__gnu_cxx17__normal_iteratorIPiSt6vectorIiSaIiEEE4baseEv
FN:1031,_ZNK9__gnu_cxx17__normal_iteratorIPKSsSt6vectorISsSaISsEEE4baseEv
FNDA:0,_ZNK9__gnu_cxx17__normal_iteratorIPKSsSt6vectorISsSaISsEEE4baseEv
FN:1031,_ZNK9__gnu_cxx17__normal_iteratorIPSsSt6vectorISsSaISsEEE4baseEv
FNDA:0,_ZNK9__gnu_cxx17__normal_iteratorIPSsSt6vectorISsSaISsEEE4baseEv
FN:1072,_ZN9__gnu_cxxeqIPiSt6vectorIiSaIiEEEEbRKNS_17__normal_iteratorIT_T0_EESA_
FNDA:2,_ZN9__gnu_cxxeqIPiSt6vectorIiSaIiEEEEbRKNS_17__normal_iteratorIT_T0_EESA_
FN:1088,_ZN9__gnu_cxxneIPKSt6vectorISsSaISsEES1_IS3_SaIS3_EEEEbRKNS_17__normal_iteratorIT_T0_EESD_
FNDA:72,_ZN9__gnu_cxxneIPKSt6vectorISsSaISsEES1_IS3_SaIS3_EEEEbRKNS_17__normal_iteratorIT_T0_EESD_
FN:1088,_ZN9__gnu_cxxneIPiSt6vectorIiSaIiEEEEbRKNS_17__normal_iteratorIT_T0_EESA_
FNDA:6,_ZN9__gnu_cxxneIPiSt6vectorIiSaIiEEEEbRKNS_17__normal_iteratorIT_T0_EESA_
FN:1088,_ZN9__gnu_cxxneIPKiSt6vectorIiSaIiEEEEbRKNS_17__normal_iteratorIT_T0_EESB_
FNDA:3,_ZN9__gnu_cxxneIPKiSt6vectorIiSaIiEEEEbRKNS_17__normal_iteratorIT_T0_EESB_
FN:1088,_ZN9__gnu_cxxneIPKSsSt6vectorISsSaISsEEEEbRKNS_17__normal_iteratorIT_T0_EESB_
FNDA:156575,_ZN9__gnu_cxxneIPKSsSt6vectorISsSaISsEEEEbRKNS_17__normal_iteratorIT_T0_EESB_
FN:1088,_ZN9__gnu_cxxneIPSsSt6vectorISsSaISsEEEEbRKNS_17__normal_iteratorIT_T0_EESA_
FNDA:44,_ZN9__gnu_cxxneIPSsSt6vectorISsSaISsEEEEbRKNS_17__normal_iteratorIT_T0_EESA_
FN:1177,_ZN9__gnu_cxxmiIPiSt6vectorIiSaIiEEEENS_17__normal_iteratorIT_T0_E15difference_typeERKS8_SB_
FNDA:32,_ZN9__gnu_cxxmiIPiSt6vectorIiSaIiEEEENS_17__normal_iteratorIT_T0_E15difference_typeERKS8_SB_
FN:1177,_ZN9__gnu_cxxmiIPSt6vectorISsSaISsEES1_IS3_SaIS3_EEEENS_17__normal_iteratorIT_T0_E15difference_typeERKSA_SD_
FNDA:37,_ZN9__gnu_cxxmiIPSt6vectorISsSaISsEES1_IS3_SaIS3_EEEENS_17__normal_iteratorIT_T0_E15difference_typeERKSA_SD_
FN:1177,_ZN9__gnu_cxxmiIPSsSt6vectorISsSaISsEEEENS_17__normal_iteratorIT_T0_E15difference_typeERKS8_SB_
FNDA:0,_ZN9__gnu_cxxmiIPSsSt6vectorISsSaISsEEEENS_17__normal_iteratorIT_T0_E15difference_typeERKS8_SB_
FN:1301,_ZNSt13move_iteratorIPSsEC1ES0_
FNDA:0,_ZNSt13move_iteratorIPSsEC1ES0_
FN:1301,_ZNSt13move_iteratorIPSt6vectorISsSaISsEEEC1ES3_
FNDA:0,_ZNSt13move_iteratorIPSt6vectorISsSaISsEEEC1ES3_
FN:1301,_ZNSt13move_iteratorIPiEC1ES0_
FNDA:0,_ZNSt13move_iteratorIPiEC1ES0_
FN:1311,_ZNKSt13move_iteratorIPiE4baseEv
FNDA:0,_ZNKSt13move_iteratorIPiE4baseEv
FN:1311,_ZNKSt13move_iteratorIPSt6vectorISsSaISsEEE4baseEv
FNDA:0,_ZNKSt13move_iteratorIPSt6vectorISsSaISsEEE4baseEv
FN:1311,_ZNKSt13move_iteratorIPSsE4baseEv
FNDA:0,_ZNKSt13move_iteratorIPSsE4baseEv
FN:1327,_ZNKSt13move_iteratorIPSsEdeEv
FNDA:0,_ZNKSt13move_iteratorIPSsEdeEv
FN:1327,_ZNKSt13move_iteratorIPSt6vectorISsSaISsEEEdeEv
FNDA:0,_ZNKSt13move_iteratorIPSt6vectorISsSaISsEEEdeEv
FN:1335,_ZNSt13move_iteratorIPSsEppEv
FNDA:0,_ZNSt13move_iteratorIPSsEppEv
FN:1335,_ZNSt13move_iteratorIPSt6vectorISsSaISsEEEppEv
FNDA:0,_ZNSt13move_iteratorIPSt6vectorISsSaISsEEEppEv
FN:1495,_ZSteqIPSsEbRKSt13move_iteratorIT_ES5_
FNDA:0,_ZSteqIPSsEbRKSt13move_iteratorIT_ES5_
FN:1495,_ZSteqIPSt6vectorISsSaISsEEEbRKSt13move_iteratorIT_ES8_
FNDA:0,_ZSteqIPSt6vectorISsSaISsEEEbRKSt13move_iteratorIT_ES8_
FN:1501,_ZStneIPSt6vectorISsSaISsEEEbRKSt13move_iteratorIT_ES8_
FNDA:0,_ZStneIPSt6vectorISsSaISsEEEbRKSt13move_iteratorIT_ES8_
FN:1501,_ZStneIPSsEbRKSt13move_iteratorIT_ES5_
FNDA:0,_ZStneIPSsEbRKSt13move_iteratorIT_ES5_
FN:1563,_ZSt32__make_move_if_noexcept_iteratorIiSt13move_iteratorIPiEET0_PT_
FNDA:0,_ZSt32__make_move_if_noexcept_iteratorIiSt13move_iteratorIPiEET0_PT_
FN:1563,_ZSt32__make_move_if_noexcept_iteratorISt6vectorISsSaISsEESt13move_iteratorIPS2_EET0_PT_
FNDA:0,_ZSt32__make_move_if_noexcept_iteratorISt6vectorISsSaISsEESt13move_iteratorIPS2_EET0_PT_
FN:1563,_ZSt32__make_move_if_noexcept_iteratorISsSt13move_iteratorIPSsEET0_PT_
FNDA:0,_ZSt32__make_move_if_noexcept_iteratorISsSt13move_iteratorIPSsEET0_PT_
FN:2169,_ZSt12__miter_baseIPiEDTcl12__miter_basecldtfp_4baseEEESt13move_iteratorIT_E
FNDA:0,_ZSt12__miter_baseIPiEDTcl12__miter_basecldtfp_4baseEEESt13move_iteratorIT_E
FNF:49
FNH:25
DA:953,74
DA:954,74
DA:953,24056
DA:954,24056
DA:953,6
DA:954,6
DA:953,24
DA:954,24
DA:953,0
DA:954,0
DA:953,0
DA:954,0
DA:968,12012
DA:969,12012
DA:968,0
DA:969,0
DA:968,60
DA:969,60
DA:968,2
DA:969,2
DA:968,376
DA:969,376
DA:978,10
DA:980,10
DA:981,10
DA:978,110
DA:980,110
DA:981,110
DA:978,60
DA:980,60
DA:981,60
DA:978,2
DA:980,2
DA:981,2
DA:978,376
DA:980,376
DA:981,376
DA:1031,144
DA:1032,144
DA:1031,148
DA:1032,148
DA:1031,112
DA:1032,112
DA:1031,10
DA:1032,10
DA:1031,0
DA:1032,0
DA:1031,0
DA:1032,0
DA:1072,2
DA:1075,2
DA:1088,72
DA:1091,72
DA:1088,6
DA:1091,6
DA:1088,3
DA:1091,3
DA:1088,156575
DA:1091,156575
DA:1088,44
DA:1091,44
DA:1177,32
DA:1180,32
DA:1177,37
DA:1180,37
DA:1177,0
DA:1180,0
DA:1301,0
DA:1302,0
DA:1301,0
DA:1302,0
DA:1301,0
DA:1302,0
DA:1311,0
DA:1312,0
DA:1311,0
DA:1312,0
DA:1311,0
DA:1312,0
DA:1327,0
DA:1328,0
DA:1327,0
DA:1328,0
DA:1335,0
DA:1337,0
DA:1338,0
DA:1335,0
DA:1337,0
DA:1338,0
DA:1495,0
DA:1497,0
DA:1495,0
DA:1497,0
DA:1501,0
DA:1503,0
DA:1501,0
DA:1503,0
DA:1563,0
DA:1564,0
DA:1563,0
DA:1564,0
DA:1563,0
DA:1564,0
DA:2169,0
DA:2171,0
LF:105
LH:55
end_of_record
SF:/usr/lib/gcc/x86_64-pc-msys/10.2.0/include/c++/iostream
LF:0
LH:0
end_of_record
SF:/usr/lib/gcc/x86_64-pc-msys/10.2.0/include/c++/bits/stl_construct.h
FN:108,_ZSt10_ConstructISt6vectorISsSaISsEEJS2_EEvPT_DpOT0_
FNDA:0,_ZSt10_ConstructISt6vectorISsSaISsEEJS2_EEvPT_DpOT0_
FN:108,_ZSt10_ConstructISsJSsEEvPT_DpOT0_
FNDA:0,_ZSt10_ConstructISsJSsEEvPT_DpOT0_
FN:108,_ZSt10_ConstructISsJRKSsEEvPT_DpOT0_
FNDA:0,_ZSt10_ConstructISsJRKSsEEvPT_DpOT0_
FN:108,_ZSt10_ConstructISt6vectorISsSaISsEEJRKS2_EEvPT_DpOT0_
FNDA:54,_ZSt10_ConstructISt6vectorISsSaISsEEJRKS2_EEvPT_DpOT0_
FN:135,_ZSt8_DestroyISsEvPT_
FNDA:0,_ZSt8_DestroyISsEvPT_
FN:135,_ZSt8_DestroyISt6vectorISsSaISsEEEvPT_
FNDA:0,_ZSt8_DestroyISt6vectorISsSaISsEEEvPT_
FN:149,_ZNSt12_Destroy_auxILb0EE9__destroyIPSsEEvT_S3_
FNDA:0,_ZNSt12_Destroy_auxILb0EE9__destroyIPSsEEvT_S3_
FN:149,_ZNSt12_Destroy_auxILb0EE9__destroyIPSt6vectorISsSaISsEEEEvT_S6_
FNDA:0,_ZNSt12_Destroy_auxILb0EE9__destroyIPSt6vectorISsSaISsEEEEvT_S6_
FN:161,_ZNSt12_Destroy_auxILb1EE9__destroyIPiEEvT_S3_
FNDA:0,_ZNSt12_Destroy_auxILb1EE9__destroyIPiEEvT_S3_
FN:171,_ZSt8_DestroyIPiEvT_S1_
FNDA:0,_ZSt8_DestroyIPiEvT_S1_
FN:171,_ZSt8_DestroyIPSsEvT_S1_
FNDA:0,_ZSt8_DestroyIPSsEvT_S1_
FN:171,_ZSt8_DestroyIPSt6vectorISsSaISsEEEvT_S4_
FNDA:0,_ZSt8_DestroyIPSt6vectorISsSaISsEEEvT_S4_
FNF:12
FNH:1
DA:108,0
DA:109,0
DA:108,0
DA:109,0
DA:108,0
DA:109,0
DA:108,54
DA:109,54
DA:135,0
DA:140,0
DA:142,0
DA:135,0
DA:140,0
DA:142,0
DA:149,0
DA:151,0
DA:152,0
DA:153,0
DA:149,0
DA:151,0
DA:152,0
DA:153,0
DA:161,0
DA:171,0
DA:185,0
DA:186,0
DA:171,0
DA:185,0
DA:186,0
DA:171,0
DA:185,0
DA:186,0
LF:32
LH:2
end_of_record
SF:/usr/lib/gcc/x86_64-pc-msys/10.2.0/include/c++/new
FN:174,_ZnwmPv
FNDA:0,_ZnwmPv
FN:180,_ZdlPvS_
FNDA:0,_ZdlPvS_
FNF:2
FNH:0
DA:174,0
DA:175,0
DA:180,0
LF:3
LH:0
end_of_record
SF:/usr/lib/gcc/x86_64-pc-msys/10.2.0/include/c++/bits/stl_algobase.h
FN:230,_ZSt3minImERKT_S2_S2_
FNDA:0,_ZSt3minImERKT_S2_S2_
FN:254,_ZSt3maxImERKT_S2_S2_
FNDA:0,_ZSt3maxImERKT_S2_S2_
FN:313,_ZSt12__niter_baseIPiET_S1_
FNDA:0,_ZSt12__niter_baseIPiET_S1_
FN:313,_ZSt12__niter_baseIPSt6vectorISsSaISsEEET_S4_
FNDA:222,_ZSt12__niter_baseIPSt6vectorISsSaISsEEET_S4_
FN:313,_ZSt12__niter_baseIPSsET_S1_
FNDA:0,_ZSt12__niter_baseIPSsET_S1_
FN:330,_ZSt12__niter_wrapIPiET_RKS1_S1_
FNDA:0,_ZSt12__niter_wrapIPiET_RKS1_S1_
FN:415,_ZNSt11__copy_moveILb1ELb1ESt26random_access_iterator_tagE8__copy_mIiEEPT_PKS3_S6_S4_
FNDA:0,_ZNSt11__copy_moveILb1ELb1ESt26random_access_iterator_tagE8__copy_mIiEEPT_PKS3_S6_S4_
FN:463,_ZSt14__copy_move_a2ILb1EPiS0_ET1_T0_S2_S1_
FNDA:0,_ZSt14__copy_move_a2ILb1EPiS0_ET1_T0_S2_S1_
FN:505,_ZSt14__copy_move_a1ILb1EPiS0_ET1_T0_S2_S1_
FNDA:0,_ZSt14__copy_move_a1ILb1EPiS0_ET1_T0_S2_S1_
FN:511,_ZSt13__copy_move_aILb1EPiS0_ET1_T0_S2_S1_
FNDA:0,_ZSt13__copy_move_aILb1EPiS0_ET1_T0_S2_S1_
FN:560,_ZSt4copyISt13move_iteratorIPiES1_ET0_T_S4_S3_
FNDA:0,_ZSt4copyISt13move_iteratorIPiES1_ET0_T_S4_S3_
FN:1924,_ZSt9__find_ifIN9__gnu_cxx17__normal_iteratorIPiSt6vectorIiSaIiEEEENS0_5__ops16_Iter_equals_valIKiEEET_SB_SB_T0_St26random_access_iterator_tag
FNDA:8,_ZSt9__find_ifIN9__gnu_cxx17__normal_iteratorIPiSt6vectorIiSaIiEEEENS0_5__ops16_Iter_equals_valIKiEEET_SB_SB_T0_St26random_access_iterator_tag
FN:1924,_ZSt9__find_ifIN9__gnu_cxx17__normal_iteratorIPSsSt6vectorISsSaISsEEEENS0_5__ops16_Iter_equals_valIKSsEEET_SB_SB_T0_St26random_access_iterator_tag
FNDA:50,_ZSt9__find_ifIN9__gnu_cxx17__normal_iteratorIPSsSt6vectorISsSaISsEEEENS0_5__ops16_Iter_equals_valIKSsEEET_SB_SB_T0_St26random_access_iterator_tag
FN:1975,_ZSt9__find_ifIN9__gnu_cxx17__normal_iteratorIPiSt6vectorIiSaIiEEEENS0_5__ops16_Iter_equals_valIKiEEET_SB_SB_T0_
FNDA:8,_ZSt9__find_ifIN9__gnu_cxx17__normal_iteratorIPiSt6vectorIiSaIiEEEENS0_5__ops16_Iter_equals_valIKiEEET_SB_SB_T0_
FN:1975,_ZSt9__find_ifIN9__gnu_cxx17__normal_iteratorIPSsSt6vectorISsSaISsEEEENS0_5__ops16_Iter_equals_valIKSsEEET_SB_SB_T0_
FNDA:50,_ZSt9__find_ifIN9__gnu_cxx17__normal_iteratorIPSsSt6vectorISsSaISsEEEENS0_5__ops16_Iter_equals_valIKSsEEET_SB_SB_T0_
FNF:15
FNH:5
DA:230,0
DA:235,0
DA:236,0
DA:237,0
DA:254,0
DA:259,0
DA:260,0
DA:261,0
DA:313,0
DA:315,0
DA:313,222
DA:315,222
DA:313,0
DA:315,0
DA:330,0
DA:331,0
DA:415,0
DA:424,0
DA:425,0
DA:426,0
DA:427,0
DA:463,0
DA:472,0
DA:505,0
DA:506,0
DA:511,0
DA:513,0
DA:516,0
DA:560,0
DA:569,0
DA:1924,8
DA:1928,8
DA:1930,8
DA:1932,0
DA:1933,0
DA:1934,0
DA:1936,0
DA:1937,0
DA:1938,0
DA:1940,0
DA:1941,0
DA:1942,0
DA:1944,0
DA:1945,0
DA:1946,0
DA:1949,8
DA:1951,0
DA:1952,0
DA:1953,0
DA:1954,0
DA:1956,6
DA:1957,6
DA:1958,1
DA:1959,5
DA:1961,6
DA:1962,6
DA:1963,1
DA:1964,5
DA:1966,6
DA:1968,6
DA:1924,50
DA:1928,50
DA:1930,64
DA:1932,42
DA:1933,9
DA:1934,33
DA:1936,33
DA:1937,3
DA:1938,30
DA:1940,30
DA:1941,8
DA:1942,22
DA:1944,22
DA:1945,8
DA:1946,14
DA:1949,22
DA:1951,3
DA:1952,3
DA:1953,1
DA:1954,2
DA:1956,15
DA:1957,15
DA:1958,10
DA:1959,5
DA:1961,8
DA:1962,8
DA:1963,4
DA:1964,4
DA:1966,7
DA:1968,7
DA:1975,8
DA:1977,8
DA:1978,16
DA:1975,50
DA:1977,50
DA:1978,100
LF:96
LH:52
end_of_record
SF:/usr/lib/gcc/x86_64-pc-msys/10.2.0/include/c++/ext/alloc_traits.h
FN:97,_ZN9__gnu_cxx14__alloc_traitsISaISsESsE17_S_select_on_copyERKS1_
FNDA:1003,_ZN9__gnu_cxx14__alloc_traitsISaISsESsE17_S_select_on_copyERKS1_
FN:97,_ZN9__gnu_cxx14__alloc_traitsISaISt6vectorISsSaISsEEES3_E17_S_select_on_copyERKS4_
FNDA:11,_ZN9__gnu_cxx14__alloc_traitsISaISt6vectorISsSaISsEEES3_E17_S_select_on_copyERKS4_
FNF:2
FNH:2
DA:97,1003
DA:98,1003
DA:97,11
DA:98,11
LF:4
LH:4
end_of_record
SF:/usr/lib/gcc/x86_64-pc-msys/10.2.0/include/c++/bits/cpp_type_traits.h
FN:500,_ZSt12__miter_baseIPiET_S1_
FNDA:0,_ZSt12__miter_baseIPiET_S1_
FNF:1
FNH:0
DA:500,0
DA:501,0
LF:2
LH:0
end_of_record
SF:/home/VICTOROS/source/cerebro/include/dataset/dataset.hpp
LF:0
LH:0
end_of_record
SF:/usr/lib/gcc/x86_64-pc-msys/10.2.0/include/c++/bits/basic_string.h
FN:6161,_ZSteqIcEN9__gnu_cxx11__enable_ifIXsrSt9__is_charIT_E7__valueEbE6__typeERKSbIS3_St11char_traitsIS3_ESaIS3_EESC_
FNDA:0,_ZSteqIcEN9__gnu_cxx11__enable_ifIXsrSt9__is_charIT_E7__valueEbE6__typeERKSbIS3_St11char_traitsIS3_ESaIS3_EESC_
FNF:1
FNH:0
DA:3613,0
DA:6161,0
DA:6163,0
DA:6164,0
DA:6165,0
LF:5
LH:0
end_of_record
SF:/usr/lib/gcc/x86_64-pc-msys/10.2.0/include/c++/bits/move.h
FN:49,_ZSt11__addressofISsEPT_RS0_
FNDA:0,_ZSt11__addressofISsEPT_RS0_
FN:49,_ZSt11__addressofISt6vectorISsSaISsEEEPT_RS3_
FNDA:0,_ZSt11__addressofISt6vectorISsSaISsEEEPT_RS3_
FN:76,_ZSt7forwardISt6vectorISsSaISsEEEOT_RNSt16remove_referenceIS3_E4typeE
FNDA:102,_ZSt7forwardISt6vectorISsSaISsEEEOT_RNSt16remove_referenceIS3_E4typeE
FN:76,_ZSt7forwardIRKSsEOT_RNSt16remove_referenceIS2_E4typeE
FNDA:0,_ZSt7forwardIRKSsEOT_RNSt16remove_referenceIS2_E4typeE
FN:76,_ZSt7forwardIRKSt6vectorISsSaISsEEEOT_RNSt16remove_referenceIS5_E4typeE
FNDA:54,_ZSt7forwardIRKSt6vectorISsSaISsEEEOT_RNSt16remove_referenceIS5_E4typeE
FN:76,_ZSt7forwardIRSt6vectorISsSaISsEEEOT_RNSt16remove_referenceIS4_E4typeE
FNDA:23,_ZSt7forwardIRSt6vectorISsSaISsEEEOT_RNSt16remove_referenceIS4_E4typeE
FN:76,_ZSt7forwardIRSsEOT_RNSt16remove_referenceIS1_E4typeE
FNDA:68,_ZSt7forwardIRSsEOT_RNSt16remove_referenceIS1_E4typeE
FN:76,_ZSt7forwardIRiEOT_RNSt16remove_referenceIS1_E4typeE
FNDA:0,_ZSt7forwardIRiEOT_RNSt16remove_referenceIS1_E4typeE
FN:76,_ZSt7forwardISsEOT_RNSt16remove_referenceIS0_E4typeE
FNDA:0,_ZSt7forwardISsEOT_RNSt16remove_referenceIS0_E4typeE
FN:101,_ZSt4moveIRSt6vectorISsSaISsEEEONSt16remove_referenceIT_E4typeEOS5_
FNDA:51,_ZSt4moveIRSt6vectorISsSaISsEEEONSt16remove_referenceIT_E4typeEOS5_
FN:101,_ZSt4moveIRPiEONSt16remove_referenceIT_E4typeEOS3_
FNDA:0,_ZSt4moveIRPiEONSt16remove_referenceIT_E4typeEOS3_
FN:101,_ZSt4moveIRPSt6vectorISsSaISsEEEONSt16remove_referenceIT_E4typeEOS6_
FNDA:0,_ZSt4moveIRPSt6vectorISsSaISsEEEONSt16remove_referenceIT_E4typeEOS6_
FN:101,_ZSt4moveIRPSsEONSt16remove_referenceIT_E4typeEOS3_
FNDA:0,_ZSt4moveIRPSsEONSt16remove_referenceIT_E4typeEOS3_
FN:101,_ZSt4moveIRNSt12_Vector_baseISsSaISsEE12_Vector_implEEONSt16remove_referenceIT_E4typeEOS6_
FNDA:2586,_ZSt4moveIRNSt12_Vector_baseISsSaISsEE12_Vector_implEEONSt16remove_referenceIT_E4typeEOS6_
FN:101,_ZSt4moveIRSsEONSt16remove_referenceIT_E4typeEOS2_
FNDA:0,_ZSt4moveIRSsEONSt16remove_referenceIT_E4typeEOS2_
FN:101,_ZSt4moveIRNSs12_Alloc_hiderEEONSt16remove_referenceIT_E4typeEOS3_
FNDA:0,_ZSt4moveIRNSs12_Alloc_hiderEEONSt16remove_referenceIT_E4typeEOS3_
FNF:16
FNH:6
DA:49,0
DA:50,0
DA:49,0
DA:50,0
DA:76,102
DA:77,102
DA:76,0
DA:77,0
DA:76,54
DA:77,54
DA:76,23
DA:77,23
DA:76,68
DA:77,68
DA:76,0
DA:77,0
DA:76,0
DA:77,0
DA:101,51
DA:102,51
DA:101,0
DA:102,0
DA:101,0
DA:102,0
DA:101,0
DA:102,0
DA:101,2586
DA:102,2586
DA:101,0
DA:102,0
DA:101,0
DA:102,0
LF:32
LH:12
end_of_record
SF:/home/VICTOROS/source/cerebro/src/dataset/dataset.cpp
FN:13,_ZN7DatasetC2ERKSs
FNDA:8,_ZN7DatasetC2ERKSs
FN:43,_ZN7DatasetC2ERKSt6vectorISsSaISsEERKS0_IS2_SaIS2_EE
FNDA:3,_ZN7DatasetC2ERKSt6vectorISsSaISsEERKS0_IS2_SaIS2_EE
FN:52,_ZN7Dataset4cellEii
FNDA:85,_ZN7Dataset4cellEii
FN:57,_ZN7Dataset8colIndexERKSs
FNDA:10,_ZN7Dataset8colIndexERKSs
FN:70,_ZN7Dataset4cellEiRKSs
FNDA:8,_ZN7Dataset4cellEiRKSs
FN:83,_ZN7Dataset5splitERKSt6vectorISsSaISsEE
FNDA:1,_ZN7Dataset5splitERKSt6vectorISsSaISsEE
FN:97,_ZN7Dataset5splitERKSt6vectorIiSaIiEE
FNDA:1,_ZN7Dataset5splitERKSt6vectorIiSaIiEE
FN:101,_ZZN7Dataset5splitERKSt6vectorIiSaIiEEENKUlRT_E_clIKS0_ISsSaISsEEEEDaS6_
FNDA:6,_ZZN7Dataset5splitERKSt6vectorIiSaIiEEENKUlRT_E_clIKS0_ISsSaISsEEEEDaS6_
FN:116,_ZN7Dataset5splitEd
FNDA:1,_ZN7Dataset5splitEd
FN:146,_ZN7Dataset9normalizeEv
FNDA:1,_ZN7Dataset9normalizeEv
FNF:10
FNH:10
DA:13,8
DA:15,8
DA:16,8
DA:18,8
DA:19,224
DA:21,216
DA:23,36
DA:24,36
DA:28,180
DA:30,36
DA:32,180
DA:35,216
DA:37,44
DA:40,8
DA:41,8
DA:43,3
DA:44,3
DA:47,3
DA:48,3
DA:50,3
DA:52,85
DA:54,85
DA:57,10
DA:59,10
DA:60,10
DA:62,10
DA:66,0
DA:70,8
DA:72,8
DA:73,8
DA:75,8
DA:79,0
DA:83,1
DA:85,2
DA:86,3
DA:88,2
DA:89,2
DA:91,2
DA:94,2
DA:97,1
DA:99,2
DA:100,2
DA:101,6
DA:102,6
DA:103,1
DA:105,3
DA:107,2
DA:108,14
DA:110,12
DA:113,2
DA:116,1
DA:118,2
DA:119,3
DA:121,2
DA:122,2
DA:124,2
DA:128,2
DA:129,1
DA:130,7
DA:132,6
DA:134,2
DA:138,4
DA:142,2
DA:143,4
DA:146,1
DA:148,1
LF:66
LH:64
end_of_record
SF:/home/VICTOROS/source/cerebro/include/utils/pair.hpp
FN:6,_ZN4PairI7DatasetEC1ES0_S0_
FNDA:1,_ZN4PairI7DatasetEC1ES0_S0_
FNF:1
FNH:1
DA:6,1
LF:1
LH:1
end_of_record
SF:/usr/lib/gcc/x86_64-pc-msys/10.2.0/include/c++/bits/allocator.h
FN:144,_ZNSaIiEC2Ev
FNDA:5,_ZNSaIiEC2Ev
FN:144,_ZNSaISsEC2Ev
FNDA:0,_ZNSaISsEC2Ev
FN:144,_ZNSaISt6vectorISsSaISsEEEC2Ev
FNDA:11,_ZNSaISt6vectorISsSaISsEEEC2Ev
FN:147,_ZNSaISsEC1ERKS_
FNDA:0,_ZNSaISsEC1ERKS_
FN:147,_ZNSaISsEC2ERKS_
FNDA:0,_ZNSaISsEC2ERKS_
FN:147,_ZNSaISt6vectorISsSaISsEEEC1ERKS2_
FNDA:11,_ZNSaISt6vectorISsSaISsEEEC1ERKS2_
FN:147,_ZNSaISt6vectorISsSaISsEEEC2ERKS2_
FNDA:11,_ZNSaISt6vectorISsSaISsEEEC2ERKS2_
FN:162,_ZNSaIiED2Ev
FNDA:0,_ZNSaIiED2Ev
FN:162,_ZNSaISsED1Ev
FNDA:0,_ZNSaISsED1Ev
FN:162,_ZNSaISsED2Ev
FNDA:0,_ZNSaISsED2Ev
FN:162,_ZNSaISt6vectorISsSaISsEEED1Ev
FNDA:11,_ZNSaISt6vectorISsSaISsEEED1Ev
FN:162,_ZNSaISt6vectorISsSaISsEEED2Ev
FNDA:0,_ZNSaISt6vectorISsSaISsEEED2Ev
FNF:12
FNH:5
DA:144,5
DA:144,0
DA:144,11
DA:147,0
DA:148,0
DA:147,0
DA:148,0
DA:147,11
DA:148,11
DA:147,11
DA:148,11
DA:162,0
DA:162,0
DA:162,0
DA:162,11
DA:162,0
LF:16
LH:7
end_of_record
SF:/usr/lib/gcc/x86_64-pc-msys/10.2.0/include/c++/bits/stl_vector.h
FN:97,_ZNSt12_Vector_baseISt6vectorISsSaISsEESaIS2_EE17_Vector_impl_dataC2Ev
FNDA:22,_ZNSt12_Vector_baseISt6vectorISsSaISsEESaIS2_EE17_Vector_impl_dataC2Ev
FN:97,_ZNSt12_Vector_baseIiSaIiEE17_Vector_impl_dataC2Ev
FNDA:0,_ZNSt12_Vector_baseIiSaIiEE17_Vector_impl_dataC2Ev
FN:97,_ZNSt12_Vector_baseISsSaISsEE17_Vector_impl_dataC2Ev
FNDA:0,_ZNSt12_Vector_baseISsSaISsEE17_Vector_impl_dataC2Ev
FN:102,_ZNSt12_Vector_baseISsSaISsEE17_Vector_impl_dataC2EOS2_
FNDA:1293,_ZNSt12_Vector_baseISsSaISsEE17_Vector_impl_dataC2EOS2_
FN:131,_ZNSt12_Vector_baseISt6vectorISsSaISsEESaIS2_EE12_Vector_implC1Ev
FNDA:11,_ZNSt12_Vector_baseISt6vectorISsSaISsEESaIS2_EE12_Vector_implC1Ev
FN:131,_ZNSt12_Vector_baseISsSaISsEE12_Vector_implC1Ev
FNDA:0,_ZNSt12_Vector_baseISsSaISsEE12_Vector_implC1Ev
FN:131,_ZNSt12_Vector_baseIiSaIiEE12_Vector_implC1Ev
FNDA:5,_ZNSt12_Vector_baseIiSaIiEE12_Vector_implC1Ev
FN:136,_ZNSt12_Vector_baseISt6vectorISsSaISsEESaIS2_EE12_Vector_implC1ERKS3_
FNDA:11,_ZNSt12_Vector_baseISt6vectorISsSaISsEESaIS2_EE12_Vector_implC1ERKS3_
FN:136,_ZNSt12_Vector_baseISsSaISsEE12_Vector_implC1ERKS0_
FNDA:0,_ZNSt12_Vector_baseISsSaISsEE12_Vector_implC1ERKS0_
FN:143,_ZNSt12_Vector_baseISsSaISsEE12_Vector_implC1EOS2_
FNDA:1293,_ZNSt12_Vector_baseISsSaISsEE12_Vector_implC1EOS2_
FN:276,_ZNSt12_Vector_baseISt6vectorISsSaISsEESaIS2_EE19_M_get_Tp_allocatorEv
FNDA:0,_ZNSt12_Vector_baseISt6vectorISsSaISsEESaIS2_EE19_M_get_Tp_allocatorEv
FN:276,_ZNSt12_Vector_baseIiSaIiEE19_M_get_Tp_allocatorEv
FNDA:0,_ZNSt12_Vector_baseIiSaIiEE19_M_get_Tp_allocatorEv
FN:276,_ZNSt12_Vector_baseISsSaISsEE19_M_get_Tp_allocatorEv
FNDA:0,_ZNSt12_Vector_baseISsSaISsEE19_M_get_Tp_allocatorEv
FN:280,_ZNKSt12_Vector_baseISt6vectorISsSaISsEESaIS2_EE19_M_get_Tp_allocatorEv
FNDA:85,_ZNKSt12_Vector_baseISt6vectorISsSaISsEESaIS2_EE19_M_get_Tp_allocatorEv
FN:280,_ZNKSt12_Vector_baseISsSaISsEE19_M_get_Tp_allocatorEv
FNDA:0,_ZNKSt12_Vector_baseISsSaISsEE19_M_get_Tp_allocatorEv
FN:280,_ZNKSt12_Vector_baseIiSaIiEE19_M_get_Tp_allocatorEv
FNDA:34,_ZNKSt12_Vector_baseIiSaIiEE19_M_get_Tp_allocatorEv
FN:288,_ZNSt12_Vector_baseISt6vectorISsSaISsEESaIS2_EEC2Ev
FNDA:11,_ZNSt12_Vector_baseISt6vectorISsSaISsEESaIS2_EEC2Ev
FN:288,_ZNSt12_Vector_baseIiSaIiEEC2Ev
FNDA:5,_ZNSt12_Vector_baseIiSaIiEEC2Ev
FN:288,_ZNSt12_Vector_baseISsSaISsEEC2Ev
FNDA:0,_ZNSt12_Vector_baseISsSaISsEEC2Ev
FN:303,_ZNSt12_Vector_baseISt6vectorISsSaISsEESaIS2_EEC2EmRKS3_
FNDA:11,_ZNSt12_Vector_baseISt6vectorISsSaISsEESaIS2_EEC2EmRKS3_
FN:303,_ZNSt12_Vector_baseISsSaISsEEC2EmRKS0_
FNDA:1003,_ZNSt12_Vector_baseISsSaISsEEC2EmRKS0_
FN:308,_ZNSt12_Vector_baseISsSaISsEEC2EOS1_
FNDA:1293,_ZNSt12_Vector_baseISsSaISsEEC2EOS1_
FN:333,_ZNSt12_Vector_baseIiSaIiEED2Ev
FNDA:0,_ZNSt12_Vector_baseIiSaIiEED2Ev
FN:333,_ZNSt12_Vector_baseISt6vectorISsSaISsEESaIS2_EED2Ev
FNDA:0,_ZNSt12_Vector_baseISt6vectorISsSaISsEESaIS2_EED2Ev
FN:333,_ZNSt12_Vector_baseISsSaISsEED2Ev
FNDA:0,_ZNSt12_Vector_baseISsSaISsEED2Ev
FN:343,_ZNSt12_Vector_baseISt6vectorISsSaISsEESaIS2_EE11_M_allocateEm
FNDA:48,_ZNSt12_Vector_baseISt6vectorISsSaISsEESaIS2_EE11_M_allocateEm
FN:343,_ZNSt12_Vector_baseISsSaISsEE11_M_allocateEm
FNDA:0,_ZNSt12_Vector_baseISsSaISsEE11_M_allocateEm
FN:343,_ZNSt12_Vector_baseIiSaIiEE11_M_allocateEm
FNDA:0,_ZNSt12_Vector_baseIiSaIiEE11_M_allocateEm
FN:350,_ZNSt12_Vector_baseISt6vectorISsSaISsEESaIS2_EE13_M_deallocateEPS2_m
FNDA:0,_ZNSt12_Vector_baseISt6vectorISsSaISsEESaIS2_EE13_M_deallocateEPS2_m
FN:350,_ZNSt12_Vector_baseIiSaIiEE13_M_deallocateEPim
FNDA:0,_ZNSt12_Vector_baseIiSaIiEE13_M_deallocateEPim
FN:350,_ZNSt12_Vector_baseISsSaISsEE13_M_deallocateEPSsm
FNDA:0,_ZNSt12_Vector_baseISsSaISsEE13_M_deallocateEPSsm
FN:359,_ZNSt12_Vector_baseISt6vectorISsSaISsEESaIS2_EE17_M_create_storageEm
FNDA:11,_ZNSt12_Vector_baseISt6vectorISsSaISsEESaIS2_EE17_M_create_storageEm
FN:359,_ZNSt12_Vector_baseISsSaISsEE17_M_create_storageEm
FNDA:1003,_ZNSt12_Vector_baseISsSaISsEE17_M_create_storageEm
FN:431,_ZNSt6vectorIiSaIiEE19_S_nothrow_relocateESt17integral_constantIbLb1EE
FNDA:32,_ZNSt6vectorIiSaIiEE19_S_nothrow_relocateESt17integral_constantIbLb1EE
FN:431,_ZNSt6vectorIS_ISsSaISsEESaIS1_EE19_S_nothrow_relocateESt17integral_constantIbLb1EE
FNDA:74,_ZNSt6vectorIS_ISsSaISsEESaIS1_EE19_S_nothrow_relocateESt17integral_constantIbLb1EE
FN:431,_ZNSt6vectorISsSaISsEE19_S_nothrow_relocateESt17integral_constantIbLb1EE
FNDA:0,_ZNSt6vectorISsSaISsEE19_S_nothrow_relocateESt17integral_constantIbLb1EE
FN:444,_ZNSt6vectorIiSaIiEE15_S_use_relocateEv
FNDA:32,_ZNSt6vectorIiSaIiEE15_S_use_relocateEv
FN:444,_ZNSt6vectorISsSaISsEE15_S_use_relocateEv
FNDA:0,_ZNSt6vectorISsSaISsEE15_S_use_relocateEv
FN:444,_ZNSt6vectorIS_ISsSaISsEESaIS1_EE15_S_use_relocateEv
FNDA:74,_ZNSt6vectorIS_ISsSaISsEESaIS1_EE15_S_use_relocateEv
FN:453,_ZNSt6vectorIiSaIiEE14_S_do_relocateEPiS2_S2_RS0_St17integral_constantIbLb1EE
FNDA:32,_ZNSt6vectorIiSaIiEE14_S_do_relocateEPiS2_S2_RS0_St17integral_constantIbLb1EE
FN:453,_ZNSt6vectorISsSaISsEE14_S_do_relocateEPSsS2_S2_RS0_St17integral_constantIbLb1EE
FNDA:0,_ZNSt6vectorISsSaISsEE14_S_do_relocateEPSsS2_S2_RS0_St17integral_constantIbLb1EE
FN:453,_ZNSt6vectorIS_ISsSaISsEESaIS1_EE14_S_do_relocateEPS1_S4_S4_RS2_St17integral_constantIbLb1EE
FNDA:74,_ZNSt6vectorIS_ISsSaISsEESaIS1_EE14_S_do_relocateEPS1_S4_S4_RS2_St17integral_constantIbLb1EE
FN:465,_ZNSt6vectorISsSaISsEE11_S_relocateEPSsS2_S2_RS0_
FNDA:0,_ZNSt6vectorISsSaISsEE11_S_relocateEPSsS2_S2_RS0_
FN:465,_ZNSt6vectorIiSaIiEE11_S_relocateEPiS2_S2_RS0_
FNDA:32,_ZNSt6vectorIiSaIiEE11_S_relocateEPiS2_S2_RS0_
FN:465,_ZNSt6vectorIS_ISsSaISsEESaIS1_EE11_S_relocateEPS1_S4_S4_RS2_
FNDA:74,_ZNSt6vectorIS_ISsSaISsEESaIS1_EE11_S_relocateEPS1_S4_S4_RS2_
FN:487,_ZNSt6vectorIiSaIiEEC1Ev
FNDA:5,_ZNSt6vectorIiSaIiEEC1Ev
FN:487,_ZNSt6vectorISsSaISsEEC1Ev
FNDA:0,_ZNSt6vectorISsSaISsEEC1Ev
FN:487,_ZNSt6vectorIS_ISsSaISsEESaIS1_EEC1Ev
FNDA:11,_ZNSt6vectorIS_ISsSaISsEESaIS1_EEC1Ev
FN:553,_ZNSt6vectorIS_ISsSaISsEESaIS1_EEC1ERKS3_
FNDA:11,_ZNSt6vectorIS_ISsSaISsEESaIS1_EEC1ERKS3_
FN:553,_ZNSt6vectorISsSaISsEEC1ERKS1_
FNDA:1003,_ZNSt6vectorISsSaISsEEC1ERKS1_
FN:572,_ZNSt6vectorISsSaISsEEC1EOS1_
FNDA:1293,_ZNSt6vectorISsSaISsEEC1EOS1_
FN:678,_ZNSt6vectorIS_ISsSaISsEESaIS1_EED1Ev
FNDA:0,_ZNSt6vectorIS_ISsSaISsEESaIS1_EED1Ev
FN:678,_ZNSt6vectorISsSaISsEED1Ev
FNDA:0,_ZNSt6vectorISsSaISsEED1Ev
FN:678,_ZNSt6vectorIiSaIiEED1Ev
FNDA:0,_ZNSt6vectorIiSaIiEED1Ev
FN:811,_ZNSt6vectorISsSaISsEE5beginEv
FNDA:0,_ZNSt6vectorISsSaISsEE5beginEv
FN:811,_ZNSt6vectorIiSaIiEE5beginEv
FNDA:24,_ZNSt6vectorIiSaIiEE5beginEv
FN:811,_ZNSt6vectorIS_ISsSaISsEESaIS1_EE5beginEv
FNDA:37,_ZNSt6vectorIS_ISsSaISsEESaIS1_EE5beginEv
FN:820,_ZNKSt6vectorISsSaISsEE5beginEv
FNDA:0,_ZNKSt6vectorISsSaISsEE5beginEv
FN:820,_ZNKSt6vectorIS_ISsSaISsEESaIS1_EE5beginEv
FNDA:11,_ZNKSt6vectorIS_ISsSaISsEESaIS1_EE5beginEv
FN:820,_ZNKSt6vectorIiSaIiEE5beginEv
FNDA:3,_ZNKSt6vectorIiSaIiEE5beginEv
FN:829,_ZNSt6vectorISsSaISsEE3endEv
FNDA:0,_ZNSt6vectorISsSaISsEE3endEv
FN:829,_ZNSt6vectorIS_ISsSaISsEESaIS1_EE3endEv
FNDA:37,_ZNSt6vectorIS_ISsSaISsEESaIS1_EE3endEv
FN:829,_ZNSt6vectorIiSaIiEE3endEv
FNDA:12032,_ZNSt6vectorIiSaIiEE3endEv
FN:838,_ZNKSt6vectorISsSaISsEE3endEv
FNDA:0,_ZNKSt6vectorISsSaISsEE3endEv
FN:838,_ZNKSt6vectorIS_ISsSaISsEESaIS1_EE3endEv
FNDA:11,_ZNKSt6vectorIS_ISsSaISsEESaIS1_EE3endEv
FN:838,_ZNKSt6vectorIiSaIiEE3endEv
FNDA:3,_ZNKSt6vectorIiSaIiEE3endEv
FN:884,_ZNKSt6vectorIS_ISsSaISsEESaIS1_EE6cbeginEv
FNDA:1,_ZNKSt6vectorIS_ISsSaISsEESaIS1_EE6cbeginEv
FN:893,_ZNKSt6vectorIS_ISsSaISsEESaIS1_EE4cendEv
FNDA:1,_ZNKSt6vectorIS_ISsSaISsEESaIS1_EE4cendEv
FN:918,_ZNKSt6vectorIS_ISsSaISsEESaIS1_EE4sizeEv
FNDA:302,_ZNKSt6vectorIS_ISsSaISsEESaIS1_EE4sizeEv
FN:918,_ZNKSt6vectorISsSaISsEE4sizeEv
FNDA:0,_ZNKSt6vectorISsSaISsEE4sizeEv
FN:918,_ZNKSt6vectorIiSaIiEE4sizeEv
FNDA:77,_ZNKSt6vectorIiSaIiEE4sizeEv
FN:923,_ZNKSt6vectorIiSaIiEE8max_sizeEv
FNDA:32,_ZNKSt6vectorIiSaIiEE8max_sizeEv
FN:923,_ZNKSt6vectorISsSaISsEE8max_sizeEv
FNDA:0,_ZNKSt6vectorISsSaISsEE8max_sizeEv
FN:923,_ZNKSt6vectorIS_ISsSaISsEESaIS1_EE8max_sizeEv
FNDA:74,_ZNKSt6vectorIS_ISsSaISsEESaIS1_EE8max_sizeEv
FN:1043,_ZNSt6vectorIS_ISsSaISsEESaIS1_EEixEm
FNDA:456,_ZNSt6vectorIS_ISsSaISsEESaIS1_EEixEm
FN:1043,_ZNSt6vectorISsSaISsEEixEm
FNDA:260,_ZNSt6vectorISsSaISsEEixEm
FN:1756,_ZNKSt6vectorIS_ISsSaISsEESaIS1_EE12_M_check_lenEmPKc
FNDA:37,_ZNKSt6vectorIS_ISsSaISsEESaIS1_EE12_M_check_lenEmPKc
FN:1756,_ZNKSt6vectorIiSaIiEE12_M_check_lenEmPKc
FNDA:16,_ZNKSt6vectorIiSaIiEE12_M_check_lenEmPKc
FN:1756,_ZNKSt6vectorISsSaISsEE12_M_check_lenEmPKc
FNDA:0,_ZNKSt6vectorISsSaISsEE12_M_check_lenEmPKc
FN:1776,_ZNSt6vectorISsSaISsEE11_S_max_sizeERKS0_
FNDA:0,_ZNSt6vectorISsSaISsEE11_S_max_sizeERKS0_
FN:1776,_ZNSt6vectorIS_ISsSaISsEESaIS1_EE11_S_max_sizeERKS2_
FNDA:74,_ZNSt6vectorIS_ISsSaISsEESaIS1_EE11_S_max_sizeERKS2_
FN:1776,_ZNSt6vectorIiSaIiEE11_S_max_sizeERKS0_
FNDA:0,_ZNSt6vectorIiSaIiEE11_S_max_sizeERKS0_
FNF:82
FNH:48
DA:97,0
DA:98,0
DA:99,0
DA:97,0
DA:98,0
DA:99,0
DA:97,22
DA:98,22
DA:99,22
DA:102,1293
DA:103,1293
DA:104,1293
DA:105,1293
DA:131,5
DA:133,5
DA:134,5
DA:131,0
DA:133,0
DA:134,0
DA:131,11
DA:133,11
DA:134,11
DA:136,0
DA:137,0
DA:138,0
DA:136,11
DA:137,11
DA:138,11
DA:143,1293
DA:144,1293
DA:145,1293
DA:276,0
DA:277,0
DA:276,0
DA:277,0
DA:276,0
DA:277,0
DA:280,34
DA:281,34
DA:280,0
DA:281,0
DA:280,85
DA:281,85
DA:288,5
DA:288,0
DA:288,11
DA:303,1003
DA:304,1003
DA:305,1003
DA:303,11
DA:304,11
DA:305,11
DA:308,1293
DA:333,0
DA:335,0
DA:336,0
DA:337,0
DA:333,0
DA:335,0
DA:336,0
DA:337,0
DA:333,0
DA:335,0
DA:336,0
DA:337,0
DA:343,0
DA:346,0
DA:343,48
DA:346,48
DA:343,0
DA:346,0
DA:350,0
DA:353,0
DA:354,0
DA:355,0
DA:350,0
DA:353,0
DA:354,0
DA:355,0
DA:350,0
DA:353,0
DA:354,0
DA:355,0
DA:359,1003
DA:361,1003
DA:362,1003
DA:363,1003
DA:364,1003
DA:359,11
DA:361,11
DA:362,11
DA:363,11
DA:364,11
DA:431,32
DA:436,32
DA:431,74
DA:436,74
DA:431,0
DA:436,0
DA:444,32
DA:449,32
DA:444,74
DA:449,74
DA:444,0
DA:449,0
DA:453,32
DA:456,32
DA:453,74
DA:456,74
DA:453,0
DA:456,0
DA:465,32
DA:469,32
DA:465,74
DA:469,74
DA:465,0
DA:469,0
DA:487,5
DA:487,0
DA:487,11
DA:553,1003
DA:555,1003
DA:557,1003
DA:558,1003
DA:560,1003
DA:561,1003
DA:553,11
DA:555,11
DA:557,11
DA:558,11
DA:560,11
DA:561,11
DA:572,1293
DA:678,0
DA:680,0
DA:681,0
DA:683,0
DA:678,0
DA:680,0
DA:681,0
DA:683,0
DA:678,0
DA:680,0
DA:681,0
DA:683,0
DA:811,37
DA:812,37
DA:811,24
DA:812,24
DA:811,0
DA:812,0
DA:820,11
DA:821,11
DA:820,3
DA:821,3
DA:820,0
DA:821,0
DA:829,37
DA:830,37
DA:829,12032
DA:830,12032
DA:829,0
DA:830,0
DA:838,11
DA:839,11
DA:838,3
DA:839,3
DA:838,0
DA:839,0
DA:884,1
DA:885,1
DA:893,1
DA:894,1
DA:918,77
DA:919,77
DA:918,302
DA:919,302
DA:918,0
DA:919,0
DA:923,32
DA:924,32
DA:923,74
DA:924,74
DA:923,0
DA:924,0
DA:1043,260
DA:1046,260
DA:1043,456
DA:1046,456
DA:1756,16
DA:1758,16
DA:1759,0
DA:1761,16
DA:1762,16
DA:1756,37
DA:1758,37
DA:1759,0
DA:1761,37
DA:1762,37
DA:1756,0
DA:1758,0
DA:1759,0
DA:1761,0
DA:1762,0
DA:1776,0
DA:1781,0
DA:1783,0
DA:1784,0
DA:1776,74
DA:1781,74
DA:1783,74
DA:1784,74
DA:1776,0
DA:1781,0
DA:1783,0
DA:1784,0
LF:216
LH:119
end_of_record
SF:/usr/lib/gcc/x86_64-pc-msys/10.2.0/include/c++/bits/stl_iterator_base_types.h
FN:238,_ZSt19__iterator_categoryIN9__gnu_cxx17__normal_iteratorIPiSt6vectorIiSaIiEEEEENSt15iterator_traitsIT_E17iterator_categoryERKS8_
FNDA:8,_ZSt19__iterator_categoryIN9__gnu_cxx17__normal_iteratorIPiSt6vectorIiSaIiEEEEENSt15iterator_traitsIT_E17iterator_categoryERKS8_
FN:238,_ZSt19__iterator_categoryIN9__gnu_cxx17__normal_iteratorIPSsSt6vectorISsSaISsEEEEENSt15iterator_traitsIT_E17iterator_categoryERKS8_
FNDA:50,_ZSt19__iterator_categoryIN9__gnu_cxx17__normal_iteratorIPSsSt6vectorISsSaISsEEEEENSt15iterator_traitsIT_E17iterator_categoryERKS8_
FNF:2
FNH:2
DA:238,8
DA:239,8
DA:238,50
DA:239,50
LF:4
LH:4
end_of_record
SF:/usr/lib/gcc/x86_64-pc-msys/10.2.0/include/c++/bits/stl_uninitialized.h
FN:84,_ZNSt20__uninitialized_copyILb0EE13__uninit_copyIN9__gnu_cxx17__normal_iteratorIPKSt6vectorISsSaISsEES4_IS6_SaIS6_EEEEPS6_EET0_T_SE_SD_
FNDA:11,_ZNSt20__uninitialized_copyILb0EE13__uninit_copyIN9__gnu_cxx17__normal_iteratorIPKSt6vectorISsSaISsEES4_IS6_SaIS6_EEEEPS6_EET0_T_SE_SD_
FN:84,_ZNSt20__uninitialized_copyILb0EE13__uninit_copyISt13move_iteratorIPSt6vectorISsSaISsEEES6_EET0_T_S9_S8_
FNDA:0,_ZNSt20__uninitialized_copyILb0EE13__uninit_copyISt13move_iteratorIPSt6vectorISsSaISsEEES6_EET0_T_S9_S8_
FN:84,_ZNSt20__uninitialized_copyILb0EE13__uninit_copyIN9__gnu_cxx17__normal_iteratorIPKSsSt6vectorISsSaISsEEEEPSsEET0_T_SC_SB_
FNDA:1004,_ZNSt20__uninitialized_copyILb0EE13__uninit_copyIN9__gnu_cxx17__normal_iteratorIPKSsSt6vectorISsSaISsEEEEPSsEET0_T_SC_SB_
FN:84,_ZNSt20__uninitialized_copyILb0EE13__uninit_copyISt13move_iteratorIPSsES3_EET0_T_S6_S5_
FNDA:0,_ZNSt20__uninitialized_copyILb0EE13__uninit_copyISt13move_iteratorIPSsES3_EET0_T_S6_S5_
FN:107,_ZNSt20__uninitialized_copyILb1EE13__uninit_copyISt13move_iteratorIPiES3_EET0_T_S6_S5_
FNDA:0,_ZNSt20__uninitialized_copyILb1EE13__uninit_copyISt13move_iteratorIPiES3_EET0_T_S6_S5_
FN:125,_ZSt18uninitialized_copyISt13move_iteratorIPiES1_ET0_T_S4_S3_
FNDA:0,_ZSt18uninitialized_copyISt13move_iteratorIPiES1_ET0_T_S4_S3_
FN:125,_ZSt18uninitialized_copyIN9__gnu_cxx17__normal_iteratorIPKSt6vectorISsSaISsEES2_IS4_SaIS4_EEEEPS4_ET0_T_SC_SB_
FNDA:11,_ZSt18uninitialized_copyIN9__gnu_cxx17__normal_iteratorIPKSt6vectorISsSaISsEES2_IS4_SaIS4_EEEEPS4_ET0_T_SC_SB_
FN:125,_ZSt18uninitialized_copyISt13move_iteratorIPSt6vectorISsSaISsEEES4_ET0_T_S7_S6_
FNDA:0,_ZSt18uninitialized_copyISt13move_iteratorIPSt6vectorISsSaISsEEES4_ET0_T_S7_S6_
FN:125,_ZSt18uninitialized_copyIN9__gnu_cxx17__normal_iteratorIPKSsSt6vectorISsSaISsEEEEPSsET0_T_SA_S9_
FNDA:1004,_ZSt18uninitialized_copyIN9__gnu_cxx17__normal_iteratorIPKSsSt6vectorISsSaISsEEEEPSsET0_T_SA_S9_
FN:125,_ZSt18uninitialized_copyISt13move_iteratorIPSsES1_ET0_T_S4_S3_
FNDA:0,_ZSt18uninitialized_copyISt13move_iteratorIPSsES1_ET0_T_S4_S3_
FN:323,_ZSt22__uninitialized_copy_aISt13move_iteratorIPSsES1_SsET0_T_S4_S3_RSaIT1_E
FNDA:0,_ZSt22__uninitialized_copy_aISt13move_iteratorIPSsES1_SsET0_T_S4_S3_RSaIT1_E
FN:323,_ZSt22__uninitialized_copy_aISt13move_iteratorIPSt6vectorISsSaISsEEES4_S3_ET0_T_S7_S6_RSaIT1_E
FNDA:0,_ZSt22__uninitialized_copy_aISt13move_iteratorIPSt6vectorISsSaISsEEES4_S3_ET0_T_S7_S6_RSaIT1_E
FN:323,_ZSt22__uninitialized_copy_aISt13move_iteratorIPiES1_iET0_T_S4_S3_RSaIT1_E
FNDA:0,_ZSt22__uninitialized_copy_aISt13move_iteratorIPiES1_iET0_T_S4_S3_RSaIT1_E
FN:323,_ZSt22__uninitialized_copy_aIN9__gnu_cxx17__normal_iteratorIPKSsSt6vectorISsSaISsEEEEPSsSsET0_T_SA_S9_RSaIT1_E
FNDA:1004,_ZSt22__uninitialized_copy_aIN9__gnu_cxx17__normal_iteratorIPKSsSt6vectorISsSaISsEEEEPSsSsET0_T_SA_S9_RSaIT1_E
FN:323,_ZSt22__uninitialized_copy_aIN9__gnu_cxx17__normal_iteratorIPKSt6vectorISsSaISsEES2_IS4_SaIS4_EEEEPS4_S4_ET0_T_SC_SB_RSaIT1_E
FNDA:11,_ZSt22__uninitialized_copy_aIN9__gnu_cxx17__normal_iteratorIPKSt6vectorISsSaISsEES2_IS4_SaIS4_EEEEPS4_S4_ET0_T_SC_SB_RSaIT1_E
FN:341,_ZSt34__uninitialized_move_if_noexcept_aIPiS0_SaIiEET0_T_S3_S2_RT1_
FNDA:0,_ZSt34__uninitialized_move_if_noexcept_aIPiS0_SaIiEET0_T_S3_S2_RT1_
FN:341,_ZSt34__uninitialized_move_if_noexcept_aIPSt6vectorISsSaISsEES3_SaIS2_EET0_T_S6_S5_RT1_
FNDA:0,_ZSt34__uninitialized_move_if_noexcept_aIPSt6vectorISsSaISsEES3_SaIS2_EET0_T_S6_S5_RT1_
FN:341,_ZSt34__uninitialized_move_if_noexcept_aIPSsS0_SaISsEET0_T_S3_S2_RT1_
FNDA:0,_ZSt34__uninitialized_move_if_noexcept_aIPSsS0_SaISsEET0_T_S3_S2_RT1_
FN:968,_ZSt19__relocate_object_aISsSsSaISsEEvPT_PT0_RT1_
FNDA:0,_ZSt19__relocate_object_aISsSsSaISsEEvPT_PT0_RT1_
FN:968,_ZSt19__relocate_object_aISt6vectorISsSaISsEES2_SaIS2_EEvPT_PT0_RT1_
FNDA:51,_ZSt19__relocate_object_aISt6vectorISsSaISsEES2_SaIS2_EEvPT_PT0_RT1_
FN:988,_ZSt14__relocate_a_1IiiENSt9enable_ifIXsrSt24__is_bitwise_relocatableIT_vE5valueEPS2_E4typeES4_S4_S4_RSaIT0_E
FNDA:32,_ZSt14__relocate_a_1IiiENSt9enable_ifIXsrSt24__is_bitwise_relocatableIT_vE5valueEPS2_E4typeES4_S4_S4_RSaIT0_E
FN:1000,_ZSt14__relocate_a_1IPSsS0_SaISsEET0_T_S3_S2_RT1_
FNDA:0,_ZSt14__relocate_a_1IPSsS0_SaISsEET0_T_S3_S2_RT1_
FN:1000,_ZSt14__relocate_a_1IPSt6vectorISsSaISsEES3_SaIS2_EET0_T_S6_S5_RT1_
FNDA:74,_ZSt14__relocate_a_1IPSt6vectorISsSaISsEES3_SaIS2_EET0_T_S6_S5_RT1_
FN:1022,_ZSt12__relocate_aIPSsS0_SaISsEET0_T_S3_S2_RT1_
FNDA:0,_ZSt12__relocate_aIPSsS0_SaISsEET0_T_S3_S2_RT1_
FN:1022,_ZSt12__relocate_aIPSt6vectorISsSaISsEES3_SaIS2_EET0_T_S6_S5_RT1_
FNDA:74,_ZSt12__relocate_aIPSt6vectorISsSaISsEES3_SaIS2_EET0_T_S6_S5_RT1_
FN:1022,_ZSt12__relocate_aIPiS0_SaIiEET0_T_S3_S2_RT1_
FNDA:32,_ZSt12__relocate_aIPiS0_SaIiEET0_T_S3_S2_RT1_
FNF:26
FNH:11
DA:84,0
DA:87,0
DA:90,0
DA:91,0
DA:92,0
DA:94,0
DA:96,0
DA:97,0
DA:84,0
DA:87,0
DA:90,0
DA:91,0
DA:92,0
DA:94,0
DA:96,0
DA:97,0
DA:84,1004
DA:87,1004
DA:90,1378
DA:91,374
DA:92,1004
DA:94,0
DA:96,0
DA:97,0
DA:84,11
DA:87,11
DA:90,65
DA:91,54
DA:92,11
DA:94,0
DA:96,0
DA:97,0
DA:107,0
DA:109,0
DA:125,0
DA:144,0
DA:150,0
DA:125,0
DA:144,0
DA:150,0
DA:125,0
DA:144,0
DA:150,0
DA:125,1004
DA:144,1004
DA:150,1004
DA:125,11
DA:144,11
DA:150,11
DA:323,0
DA:325,0
DA:323,0
DA:325,0
DA:323,0
DA:325,0
DA:323,1004
DA:325,1004
DA:323,11
DA:325,11
DA:341,0
DA:347,0
DA:348,0
DA:341,0
DA:347,0
DA:348,0
DA:341,0
DA:347,0
DA:348,0
DA:968,51
DA:976,51
DA:977,51
DA:978,51
DA:968,0
DA:976,0
DA:977,0
DA:978,0
DA:988,32
DA:991,32
DA:992,32
DA:993,11
DA:994,32
DA:1000,74
DA:1012,74
DA:1013,125
DA:1014,51
DA:1016,74
DA:1000,0
DA:1012,0
DA:1013,0
DA:1014,0
DA:1016,0
DA:1022,32
DA:1028,32
DA:1030,32
DA:1022,74
DA:1028,74
DA:1030,74
DA:1022,0
DA:1028,0
DA:1030,0
LF:100
LH:40
end_of_record
SF:/usr/lib/gcc/x86_64-pc-msys/10.2.0/include/c++/bits/alloc_traits.h
FN:459,_ZNSt16allocator_traitsISaIiEE8allocateERS0_m
FNDA:0,_ZNSt16allocator_traitsISaIiEE8allocateERS0_m
FN:459,_ZNSt16allocator_traitsISaISt6vectorISsSaISsEEEE8allocateERS3_m
FNDA:48,_ZNSt16allocator_traitsISaISt6vectorISsSaISsEEEE8allocateERS3_m
FN:459,_ZNSt16allocator_traitsISaISsEE8allocateERS0_m
FNDA:0,_ZNSt16allocator_traitsISaISsEE8allocateERS0_m
FN:491,_ZNSt16allocator_traitsISaIiEE10deallocateERS0_Pim
FNDA:0,_ZNSt16allocator_traitsISaIiEE10deallocateERS0_Pim
FN:491,_ZNSt16allocator_traitsISaISsEE10deallocateERS0_PSsm
FNDA:0,_ZNSt16allocator_traitsISaISsEE10deallocateERS0_PSsm
FN:491,_ZNSt16allocator_traitsISaISt6vectorISsSaISsEEEE10deallocateERS3_PS2_m
FNDA:0,_ZNSt16allocator_traitsISaISt6vectorISsSaISsEEEE10deallocateERS3_PS2_m
FN:507,_ZNSt16allocator_traitsISaISt6vectorISsSaISsEEEE9constructIS2_JS2_EEEvRS3_PT_DpOT0_
FNDA:51,_ZNSt16allocator_traitsISaISt6vectorISsSaISsEEEE9constructIS2_JS2_EEEvRS3_PT_DpOT0_
FN:507,_ZNSt16allocator_traitsISaISsEE9constructISsJSsEEEvRS0_PT_DpOT0_
FNDA:0,_ZNSt16allocator_traitsISaISsEE9constructISsJSsEEEvRS0_PT_DpOT0_
FN:507,_ZNSt16allocator_traitsISaISt6vectorISsSaISsEEEE9constructIS2_JEEEvRS3_PT_DpOT0_
FNDA:42,_ZNSt16allocator_traitsISaISt6vectorISsSaISsEEEE9constructIS2_JEEEvRS3_PT_DpOT0_
FN:507,_ZNSt16allocator_traitsISaIiEE9constructIiJRiEEEvRS0_PT_DpOT0_
FNDA:16,_ZNSt16allocator_traitsISaIiEE9constructIiJRiEEEvRS0_PT_DpOT0_
FN:507,_ZNSt16allocator_traitsISaISsEE9constructISsJRSsEEEvRS0_PT_DpOT0_
FNDA:17,_ZNSt16allocator_traitsISaISsEE9constructISsJRSsEEEvRS0_PT_DpOT0_
FN:507,_ZNSt16allocator_traitsISaISt6vectorISsSaISsEEEE9constructIS2_JRS2_EEEvRS3_PT_DpOT0_
FNDA:6,_ZNSt16allocator_traitsISaISt6vectorISsSaISsEEEE9constructIS2_JRS2_EEEvRS3_PT_DpOT0_
FN:527,_ZNSt16allocator_traitsISaIiEE7destroyIiEEvRS0_PT_
FNDA:0,_ZNSt16allocator_traitsISaIiEE7destroyIiEEvRS0_PT_
FN:527,_ZNSt16allocator_traitsISaISt6vectorISsSaISsEEEE7destroyIS2_EEvRS3_PT_
FNDA:51,_ZNSt16allocator_traitsISaISt6vectorISsSaISsEEEE7destroyIS2_EEvRS3_PT_
FN:527,_ZNSt16allocator_traitsISaISsEE7destroyISsEEvRS0_PT_
FNDA:0,_ZNSt16allocator_traitsISaISsEE7destroyISsEEvRS0_PT_
FN:543,_ZNSt16allocator_traitsISaIiEE8max_sizeERKS0_
FNDA:0,_ZNSt16allocator_traitsISaIiEE8max_sizeERKS0_
FN:543,_ZNSt16allocator_traitsISaISsEE8max_sizeERKS0_
FNDA:0,_ZNSt16allocator_traitsISaISsEE8max_sizeERKS0_
FN:543,_ZNSt16allocator_traitsISaISt6vectorISsSaISsEEEE8max_sizeERKS3_
FNDA:74,_ZNSt16allocator_traitsISaISt6vectorISsSaISsEEEE8max_sizeERKS3_
FN:558,_ZNSt16allocator_traitsISaISt6vectorISsSaISsEEEE37select_on_container_copy_constructionERKS3_
FNDA:11,_ZNSt16allocator_traitsISaISt6vectorISsSaISsEEEE37select_on_container_copy_constructionERKS3_
FN:558,_ZNSt16allocator_traitsISaISsEE37select_on_container_copy_constructionERKS0_
FNDA:1003,_ZNSt16allocator_traitsISaISsEE37select_on_container_copy_constructionERKS0_
FN:735,_ZSt8_DestroyIPiiEvT_S1_RSaIT0_E
FNDA:0,_ZSt8_DestroyIPiiEvT_S1_RSaIT0_E
FN:735,_ZSt8_DestroyIPSsSsEvT_S1_RSaIT0_E
FNDA:0,_ZSt8_DestroyIPSsSsEvT_S1_RSaIT0_E
FN:735,_ZSt8_DestroyIPSt6vectorISsSaISsEES2_EvT_S4_RSaIT0_E
FNDA:0,_ZSt8_DestroyIPSt6vectorISsSaISsEES2_EvT_S4_RSaIT0_E
FNF:23
FNH:10
DA:459,0
DA:460,0
DA:459,48
DA:460,48
DA:459,0
DA:460,0
DA:491,0
DA:492,0
DA:491,0
DA:492,0
DA:491,0
DA:492,0
DA:507,51
DA:512,51
DA:516,51
DA:507,6
DA:512,6
DA:516,6
DA:507,17
DA:512,17
DA:516,17
DA:507,16
DA:512,16
DA:516,16
DA:507,42
DA:512,42
DA:516,42
DA:507,0
DA:512,0
DA:516,0
DA:527,0
DA:531,0
DA:535,0
DA:527,51
DA:531,51
DA:535,51
DA:527,0
DA:531,0
DA:535,0
DA:543,0
DA:546,0
DA:543,74
DA:546,74
DA:543,0
DA:546,0
DA:558,1003
DA:559,1003
DA:558,11
DA:559,11
DA:735,0
DA:738,0
DA:739,0
DA:735,0
DA:738,0
DA:739,0
DA:735,0
DA:738,0
DA:739,0
LF:58
LH:26
end_of_record
SF:/usr/lib/gcc/x86_64-pc-msys/10.2.0/include/c++/ext/new_allocator.h
FN:79,_ZN9__gnu_cxx13new_allocatorIcEC2Ev
FNDA:0,_ZN9__gnu_cxx13new_allocatorIcEC2Ev
FN:79,_ZN9__gnu_cxx13new_allocatorISt6vectorISsSaISsEEEC2Ev
FNDA:11,_ZN9__gnu_cxx13new_allocatorISt6vectorISsSaISsEEEC2Ev
FN:79,_ZN9__gnu_cxx13new_allocatorISsEC2Ev
FNDA:0,_ZN9__gnu_cxx13new_allocatorISsEC2Ev
FN:79,_ZN9__gnu_cxx13new_allocatorIiEC2Ev
FNDA:0,_ZN9__gnu_cxx13new_allocatorIiEC2Ev
FN:82,_ZN9__gnu_cxx13new_allocatorISt6vectorISsSaISsEEEC2ERKS4_
FNDA:22,_ZN9__gnu_cxx13new_allocatorISt6vectorISsSaISsEEEC2ERKS4_
FN:82,_ZN9__gnu_cxx13new_allocatorISsEC2ERKS1_
FNDA:0,_ZN9__gnu_cxx13new_allocatorISsEC2ERKS1_
FN:89,_ZN9__gnu_cxx13new_allocatorIcED2Ev
FNDA:0,_ZN9__gnu_cxx13new_allocatorIcED2Ev
FN:89,_ZN9__gnu_cxx13new_allocatorISt6vectorISsSaISsEEED2Ev
FNDA:0,_ZN9__gnu_cxx13new_allocatorISt6vectorISsSaISsEEED2Ev
FN:89,_ZN9__gnu_cxx13new_allocatorISsED2Ev
FNDA:0,_ZN9__gnu_cxx13new_allocatorISsED2Ev
FN:89,_ZN9__gnu_cxx13new_allocatorIiED2Ev
FNDA:0,_ZN9__gnu_cxx13new_allocatorIiED2Ev
FN:103,_ZN9__gnu_cxx13new_allocatorIiE8allocateEmPKv
FNDA:0,_ZN9__gnu_cxx13new_allocatorIiE8allocateEmPKv
FN:103,_ZN9__gnu_cxx13new_allocatorISt6vectorISsSaISsEEE8allocateEmPKv
FNDA:48,_ZN9__gnu_cxx13new_allocatorISt6vectorISsSaISsEEE8allocateEmPKv
FN:103,_ZN9__gnu_cxx13new_allocatorISsE8allocateEmPKv
FNDA:0,_ZN9__gnu_cxx13new_allocatorISsE8allocateEmPKv
FN:120,_ZN9__gnu_cxx13new_allocatorISt6vectorISsSaISsEEE10deallocateEPS3_m
FNDA:0,_ZN9__gnu_cxx13new_allocatorISt6vectorISsSaISsEEE10deallocateEPS3_m
FN:120,_ZN9__gnu_cxx13new_allocatorISsE10deallocateEPSsm
FNDA:0,_ZN9__gnu_cxx13new_allocatorISsE10deallocateEPSsm
FN:120,_ZN9__gnu_cxx13new_allocatorIiE10deallocateEPim
FNDA:0,_ZN9__gnu_cxx13new_allocatorIiE10deallocateEPim
FN:142,_ZNK9__gnu_cxx13new_allocatorIiE8max_sizeEv
FNDA:0,_ZNK9__gnu_cxx13new_allocatorIiE8max_sizeEv
FN:142,_ZNK9__gnu_cxx13new_allocatorISt6vectorISsSaISsEEE8max_sizeEv
FNDA:74,_ZNK9__gnu_cxx13new_allocatorISt6vectorISsSaISsEEE8max_sizeEv
FN:142,_ZNK9__gnu_cxx13new_allocatorISsE8max_sizeEv
FNDA:0,_ZNK9__gnu_cxx13new_allocatorISsE8max_sizeEv
FN:148,_ZN9__gnu_cxx13new_allocatorISt6vectorISsSaISsEEE9constructIS3_JEEEvPT_DpOT0_
FNDA:42,_ZN9__gnu_cxx13new_allocatorISt6vectorISsSaISsEEE9constructIS3_JEEEvPT_DpOT0_
FN:148,_ZN9__gnu_cxx13new_allocatorISsE9constructISsJSsEEEvPT_DpOT0_
FNDA:0,_ZN9__gnu_cxx13new_allocatorISsE9constructISsJSsEEEvPT_DpOT0_
FN:148,_ZN9__gnu_cxx13new_allocatorIiE9constructIiJRiEEEvPT_DpOT0_
FNDA:16,_ZN9__gnu_cxx13new_allocatorIiE9constructIiJRiEEEvPT_DpOT0_
FN:148,_ZN9__gnu_cxx13new_allocatorISsE9constructISsJRSsEEEvPT_DpOT0_
FNDA:17,_ZN9__gnu_cxx13new_allocatorISsE9constructISsJRSsEEEvPT_DpOT0_
FN:148,_ZN9__gnu_cxx13new_allocatorISt6vectorISsSaISsEEE9constructIS3_JRS3_EEEvPT_DpOT0_
FNDA:6,_ZN9__gnu_cxx13new_allocatorISt6vectorISsSaISsEEE9constructIS3_JRS3_EEEvPT_DpOT0_
FN:148,_ZN9__gnu_cxx13new_allocatorISt6vectorISsSaISsEEE9constructIS3_JS3_EEEvPT_DpOT0_
FNDA:51,_ZN9__gnu_cxx13new_allocatorISt6vectorISsSaISsEEE9constructIS3_JS3_EEEvPT_DpOT0_
FN:154,_ZN9__gnu_cxx13new_allocatorISt6vectorISsSaISsEEE7destroyIS3_EEvPT_
FNDA:51,_ZN9__gnu_cxx13new_allocatorISt6vectorISsSaISsEEE7destroyIS3_EEvPT_
FN:154,_ZN9__gnu_cxx13new_allocatorISsE7destroyISsEEvPT_
FNDA:0,_ZN9__gnu_cxx13new_allocatorISsE7destroyISsEEvPT_
FN:154,_ZN9__gnu_cxx13new_allocatorIiE7destroyIiEEvPT_
FNDA:0,_ZN9__gnu_cxx13new_allocatorIiE7destroyIiEEvPT_
FN:185,_ZNK9__gnu_cxx13new_allocatorISsE11_M_max_sizeEv
FNDA:0,_ZNK9__gnu_cxx13new_allocatorISsE11_M_max_sizeEv
FN:185,_ZNK9__gnu_cxx13new_allocatorISt6vectorISsSaISsEEE11_M_max_sizeEv
FNDA:122,_ZNK9__gnu_cxx13new_allocatorISt6vectorISsSaISsEEE11_M_max_sizeEv
FN:185,_ZNK9__gnu_cxx13new_allocatorIiE11_M_max_sizeEv
FNDA:0,_ZNK9__gnu_cxx13new_allocatorIiE11_M_max_sizeEv
FNF:31
FNH:11
DA:79,0
DA:79,0
DA:79,11
DA:79,0
DA:82,0
DA:82,22
DA:89,0
DA:89,0
DA:89,0
DA:89,0
DA:103,0
DA:105,0
DA:106,0
DA:115,0
DA:103,48
DA:105,48
DA:106,0
DA:115,48
DA:103,0
DA:105,0
DA:106,0
DA:115,0
DA:120,0
DA:133,0
DA:138,0
DA:120,0
DA:133,0
DA:138,0
DA:120,0
DA:133,0
DA:138,0
DA:142,0
DA:143,0
DA:142,74
DA:143,74
DA:142,0
DA:143,0
DA:148,51
DA:150,51
DA:148,6
DA:150,6
DA:148,17
DA:150,17
DA:148,16
DA:150,16
DA:148,42
DA:150,42
DA:148,0
DA:150,0
DA:154,0
DA:156,0
DA:154,51
DA:156,51
DA:154,0
DA:156,0
DA:185,0
DA:188,0
DA:185,122
DA:188,122
DA:185,0
DA:188,0
LF:61
LH:21
end_of_record
SF:/usr/lib/gcc/x86_64-pc-msys/10.2.0/include/c++/bits/stl_algo.h
FN:3833,_ZSt8for_eachIN9__gnu_cxx17__normal_iteratorIPKSt6vectorISsSaISsEES2_IS4_SaIS4_EEEEZN7Dataset5splitERKS2_IiSaIiEEEUlRT_E_ET0_SF_SF_SI_
FNDA:1,_ZSt8for_eachIN9__gnu_cxx17__normal_iteratorIPKSt6vectorISsSaISsEES2_IS4_SaIS4_EEEEZN7Dataset5splitERKS2_IiSaIiEEEUlRT_E_ET0_SF_SF_SI_
FN:3894,_ZSt4findIN9__gnu_cxx17__normal_iteratorIPiSt6vectorIiSaIiEEEEiET_S7_S7_RKT0_
FNDA:8,_ZSt4findIN9__gnu_cxx17__normal_iteratorIPiSt6vectorIiSaIiEEEEiET_S7_S7_RKT0_
FN:3894,_ZSt4findIN9__gnu_cxx17__normal_iteratorIPSsSt6vectorISsSaISsEEEESsET_S7_S7_RKT0_
FNDA:50,_ZSt4findIN9__gnu_cxx17__normal_iteratorIPSsSt6vectorISsSaISsEEEESsET_S7_S7_RKT0_
FNF:3
FNH:3
DA:3833,7
DA:3838,7
DA:3839,6
DA:3840,1
DA:3894,8
DA:3902,8
DA:3903,8
DA:3894,50
DA:3902,50
DA:3903,50
LF:10
LH:10
end_of_record
SF:/usr/lib/gcc/x86_64-pc-msys/10.2.0/include/c++/bits/vector.tcc
FN:109,_ZNSt6vectorIS_ISsSaISsEESaIS1_EE12emplace_backIJRS1_EEEvDpOT_
FNDA:6,_ZNSt6vectorIS_ISsSaISsEESaIS1_EE12emplace_backIJRS1_EEEvDpOT_
FN:109,_ZNSt6vectorISsSaISsEE12emplace_backIJRSsEEEvDpOT_
FNDA:17,_ZNSt6vectorISsSaISsEE12emplace_backIJRSsEEEvDpOT_
FN:109,_ZNSt6vectorIiSaIiEE12emplace_backIJRiEEEvDpOT_
FNDA:16,_ZNSt6vectorIiSaIiEE12emplace_backIJRiEEEvDpOT_
FN:109,_ZNSt6vectorIS_ISsSaISsEESaIS1_EE12emplace_backIJEEEvDpOT_
FNDA:42,_ZNSt6vectorIS_ISsSaISsEESaIS1_EE12emplace_backIJEEEvDpOT_
FN:109,_ZNSt6vectorISsSaISsEE12emplace_backIJSsEEEvDpOT_
FNDA:216,_ZNSt6vectorISsSaISsEE12emplace_backIJSsEEEvDpOT_
FN:426,_ZNSt6vectorIS_ISsSaISsEESaIS1_EE17_M_realloc_insertIJRS1_EEEvN9__gnu_cxx17__normal_iteratorIPS1_S3_EEDpOT_
FNDA:5,_ZNSt6vectorIS_ISsSaISsEESaIS1_EE17_M_realloc_insertIJRS1_EEEvN9__gnu_cxx17__normal_iteratorIPS1_S3_EEDpOT_
FN:426,_ZNSt6vectorISsSaISsEE17_M_realloc_insertIJRSsEEEvN9__gnu_cxx17__normal_iteratorIPSsS1_EEDpOT_
FNDA:17,_ZNSt6vectorISsSaISsEE17_M_realloc_insertIJRSsEEEvN9__gnu_cxx17__normal_iteratorIPSsS1_EEDpOT_
FN:426,_ZNSt6vectorIiSaIiEE17_M_realloc_insertIJRiEEEvN9__gnu_cxx17__normal_iteratorIPiS1_EEDpOT_
FNDA:12,_ZNSt6vectorIiSaIiEE17_M_realloc_insertIJRiEEEvN9__gnu_cxx17__normal_iteratorIPiS1_EEDpOT_
FN:426,_ZNSt6vectorIS_ISsSaISsEESaIS1_EE17_M_realloc_insertIJEEEvN9__gnu_cxx17__normal_iteratorIPS1_S3_EEDpOT_
FNDA:32,_ZNSt6vectorIS_ISsSaISsEESaIS1_EE17_M_realloc_insertIJEEEvN9__gnu_cxx17__normal_iteratorIPS1_S3_EEDpOT_
FN:426,_ZNSt6vectorISsSaISsEE17_M_realloc_insertIJSsEEEvN9__gnu_cxx17__normal_iteratorIPSsS1_EEDpOT_
FNDA:160,_ZNSt6vectorISsSaISsEE17_M_realloc_insertIJSsEEEvN9__gnu_cxx17__normal_iteratorIPSsS1_EEDpOT_
FNF:10
FNH:10
DA:109,6
DA:112,6
DA:115,1
DA:117,1
DA:121,5
DA:125,6
DA:109,17
DA:112,17
DA:115,0
DA:117,0
DA:121,17
DA:125,17
DA:109,16
DA:112,16
DA:115,4
DA:117,4
DA:121,12
DA:125,16
DA:109,42
DA:112,42
DA:115,10
DA:117,10
DA:121,32
DA:125,42
DA:109,216
DA:112,216
DA:115,56
DA:117,56
DA:121,160
DA:125,216
DA:426,5
DA:436,5
DA:437,5
DA:438,5
DA:439,5
DA:440,5
DA:441,5
DA:449,5
DA:450,5
DA:456,5
DA:459,5
DA:461,5
DA:462,5
DA:464,5
DA:466,5
DA:467,5
DA:474,0
DA:475,0
DA:477,0
DA:481,0
DA:482,0
DA:485,0
DA:487,0
DA:488,0
DA:489,0
DA:491,0
DA:492,0
DA:493,0
DA:496,5
DA:498,0
DA:500,5
DA:501,5
DA:502,5
DA:503,5
DA:504,5
DA:505,5
DA:426,17
DA:436,17
DA:437,17
DA:438,17
DA:439,17
DA:440,17
DA:441,17
DA:449,17
DA:450,17
DA:456,17
DA:459,17
DA:461,17
DA:462,17
DA:464,17
DA:466,17
DA:467,17
DA:474,0
DA:475,0
DA:477,0
DA:481,0
DA:482,0
DA:485,0
DA:487,0
DA:488,0
DA:489,0
DA:491,0
DA:492,0
DA:493,0
DA:496,17
DA:498,0
DA:500,17
DA:501,17
DA:502,17
DA:503,17
DA:504,17
DA:505,17
DA:426,12
DA:436,12
DA:437,12
DA:438,12
DA:439,12
DA:440,12
DA:441,12
DA:449,12
DA:450,12
DA:456,12
DA:459,12
DA:461,12
DA:462,12
DA:464,12
DA:466,12
DA:467,12
DA:474,0
DA:475,0
DA:477,0
DA:481,0
DA:482,0
DA:485,0
DA:487,0
DA:488,0
DA:489,0
DA:491,0
DA:492,0
DA:493,0
DA:496,12
DA:498,0
DA:500,12
DA:501,12
DA:502,12
DA:503,12
DA:504,12
DA:505,12
DA:426,32
DA:436,32
DA:437,32
DA:438,32
DA:439,32
DA:440,32
DA:441,32
DA:449,32
DA:450,32
DA:456,32
DA:459,32
DA:461,32
DA:462,32
DA:464,32
DA:466,32
DA:467,32
DA:474,0
DA:475,0
DA:477,0
DA:481,0
DA:482,0
DA:485,0
DA:487,0
DA:488,0
DA:489,0
DA:491,0
DA:492,0
DA:493,0
DA:496,32
DA:498,0
DA:500,32
DA:501,32
DA:502,32
DA:503,32
DA:504,32
DA:505,32
DA:426,160
DA:436,160
DA:437,160
DA:438,160
DA:439,160
DA:440,160
DA:441,160
DA:449,160
DA:450,160
DA:456,160
DA:459,160
DA:461,160
DA:462,160
DA:464,160
DA:466,160
DA:467,160
DA:474,0
DA:475,0
DA:477,0
DA:481,0
DA:482,0
DA:485,0
DA:487,0
DA:488,0
DA:489,0
DA:491,0
DA:492,0
DA:493,0
DA:496,160
DA:498,0
DA:500,160
DA:501,160
DA:502,160
DA:503,160
DA:504,160
DA:505,160
LF:210
LH:143
end_of_record
SF:/usr/lib/gcc/x86_64-pc-msys/10.2.0/include/c++/bits/predefined_ops.h
FN:260,_ZN9__gnu_cxx5__ops16_Iter_equals_valIKiEC1ERS2_
FNDA:8,_ZN9__gnu_cxx5__ops16_Iter_equals_valIKiEC1ERS2_
FN:260,_ZN9__gnu_cxx5__ops16_Iter_equals_valIKSsEC1ERS2_
FNDA:155244,_ZN9__gnu_cxx5__ops16_Iter_equals_valIKSsEC1ERS2_
FN:267,_ZN9__gnu_cxx5__ops16_Iter_equals_valIKiEclINS_17__normal_iteratorIPiSt6vectorIiSaIiEEEEEEbT_
FNDA:12,_ZN9__gnu_cxx5__ops16_Iter_equals_valIKiEclINS_17__normal_iteratorIPiSt6vectorIiSaIiEEEEEEbT_
FN:267,_ZN9__gnu_cxx5__ops16_Iter_equals_valIKSsEclINS_17__normal_iteratorIPSsSt6vectorISsSaISsEEEEEEbT_
FNDA:153,_ZN9__gnu_cxx5__ops16_Iter_equals_valIKSsEclINS_17__normal_iteratorIPSsSt6vectorISsSaISsEEEEEEbT_
FN:274,_ZN9__gnu_cxx5__ops17__iter_equals_valIKiEENS0_16_Iter_equals_valIT_EERS4_
FNDA:8,_ZN9__gnu_cxx5__ops17__iter_equals_valIKiEENS0_16_Iter_equals_valIT_EERS4_
FN:274,_ZN9__gnu_cxx5__ops17__iter_equals_valIKSsEENS0_16_Iter_equals_valIT_EERS4_
FNDA:155244,_ZN9__gnu_cxx5__ops17__iter_equals_valIKSsEENS0_16_Iter_equals_valIT_EERS4_
FNF:6
FNH:6
DA:260,8
DA:261,8
DA:262,8
DA:260,155244
DA:261,155244
DA:262,155244
DA:267,12
DA:268,12
DA:267,153
DA:268,153
DA:274,8
DA:275,8
DA:274,155244
DA:275,155244
LF:14
LH:14
end_of_record
TN:
SF:/usr/lib/gcc/x86_64-pc-msys/10.2.0/include/c++/bits/ptr_traits.h
FN:156,_ZSt12__to_addressISt23_Sp_counted_ptr_inplaceINSt8__detail4_NFAISt12regex_traitsIcEEESaIS5_ELN9__gnu_cxx12_Lock_policyE2EEEPT_SB_
FNDA:609,_ZSt12__to_addressISt23_Sp_counted_ptr_inplaceINSt8__detail4_NFAISt12regex_traitsIcEEESaIS5_ELN9__gnu_cxx12_Lock_policyE2EEEPT_SB_
FNF:1
FNH:1
DA:156,609
DA:159,609
LF:2
LH:2
end_of_record
SF:/usr/lib/gcc/x86_64-pc-msys/10.2.0/include/c++/bits/allocated_ptr.h
FN:52,_ZNSt15__allocated_ptrISaISt23_Sp_counted_ptr_inplaceINSt8__detail4_NFAISt12regex_traitsIcEEESaIS5_ELN9__gnu_cxx12_Lock_policyE2EEEEC1ERSA_PS9_
FNDA:1214,_ZNSt15__allocated_ptrISaISt23_Sp_counted_ptr_inplaceINSt8__detail4_NFAISt12regex_traitsIcEEESaIS5_ELN9__gnu_cxx12_Lock_policyE2EEEEC1ERSA_PS9_
FN:70,_ZNSt15__allocated_ptrISaISt23_Sp_counted_ptr_inplaceINSt8__detail4_NFAISt12regex_traitsIcEEESaIS5_ELN9__gnu_cxx12_Lock_policyE2EEEED1Ev
FNDA:1214,_ZNSt15__allocated_ptrISaISt23_Sp_counted_ptr_inplaceINSt8__detail4_NFAISt12regex_traitsIcEEESaIS5_ELN9__gnu_cxx12_Lock_policyE2EEEED1Ev
FN:78,_ZNSt15__allocated_ptrISaISt23_Sp_counted_ptr_inplaceINSt8__detail4_NFAISt12regex_traitsIcEEESaIS5_ELN9__gnu_cxx12_Lock_policyE2EEEEaSEDn
FNDA:609,_ZNSt15__allocated_ptrISaISt23_Sp_counted_ptr_inplaceINSt8__detail4_NFAISt12regex_traitsIcEEESaIS5_ELN9__gnu_cxx12_Lock_policyE2EEEEaSEDn
FN:85,_ZNSt15__allocated_ptrISaISt23_Sp_counted_ptr_inplaceINSt8__detail4_NFAISt12regex_traitsIcEEESaIS5_ELN9__gnu_cxx12_Lock_policyE2EEEE3getEv
FNDA:609,_ZNSt15__allocated_ptrISaISt23_Sp_counted_ptr_inplaceINSt8__detail4_NFAISt12regex_traitsIcEEESaIS5_ELN9__gnu_cxx12_Lock_policyE2EEEE3getEv
FN:95,_ZSt18__allocate_guardedISaISt23_Sp_counted_ptr_inplaceINSt8__detail4_NFAISt12regex_traitsIcEEESaIS5_ELN9__gnu_cxx12_Lock_policyE2EEEESt15__allocated_ptrIT_ERSC_
FNDA:609,_ZSt18__allocate_guardedISaISt23_Sp_counted_ptr_inplaceINSt8__detail4_NFAISt12regex_traitsIcEEESaIS5_ELN9__gnu_cxx12_Lock_policyE2EEEESt15__allocated_ptrIT_ERSC_
FNF:5
FNH:5
DA:52,1214
DA:53,1214
DA:54,1214
DA:70,1214
DA:72,1214
DA:73,605
DA:74,1214
DA:78,609
DA:80,609
DA:81,609
DA:85,609
DA:95,609
DA:97,609
LF:13
LH:13
end_of_record
SF:/usr/lib/gcc/x86_64-pc-msys/10.2.0/include/c++/bits/stl_iterator.h
FN:949,_ZN9__gnu_cxx17__normal_iteratorIPKcSsEC1Ev
FNDA:80144,_ZN9__gnu_cxx17__normal_iteratorIPKcSsEC1Ev
FN:953,_ZN9__gnu_cxx17__normal_iteratorIPiSt6vectorIiSaIiEEEC1ERKS1_
FNDA:0,_ZN9__gnu_cxx17__normal_iteratorIPiSt6vectorIiSaIiEEEC1ERKS1_
FN:953,_ZN9__gnu_cxx17__normal_iteratorIPSt4pairIccESt6vectorIS2_SaIS2_EEEC1ERKS3_
FNDA:12,_ZN9__gnu_cxx17__normal_iteratorIPSt4pairIccESt6vectorIS2_SaIS2_EEEC1ERKS3_
FN:953,_ZN9__gnu_cxx17__normal_iteratorIPcSt6vectorIcSaIcEEEC1ERKS1_
FNDA:5009,_ZN9__gnu_cxx17__normal_iteratorIPcSt6vectorIcSaIcEEEC1ERKS1_
FN:953,_ZN9__gnu_cxx17__normal_iteratorIPSt4pairISsSsESt6vectorIS2_SaIS2_EEEC1ERKS3_
FNDA:0,_ZN9__gnu_cxx17__normal_iteratorIPSt4pairISsSsESt6vectorIS2_SaIS2_EEEC1ERKS3_
FN:953,_ZN9__gnu_cxx17__normal_iteratorIPKSt4pairISsSsESt6vectorIS2_SaIS2_EEEC1ERKS4_
FNDA:0,_ZN9__gnu_cxx17__normal_iteratorIPKSt4pairISsSsESt6vectorIS2_SaIS2_EEEC1ERKS4_
FN:953,_ZN9__gnu_cxx17__normal_iteratorIPKNSt12regex_traitsIcE10_RegexMaskESt6vectorIS3_SaIS3_EEEC1ERKS5_
FNDA:312262,_ZN9__gnu_cxx17__normal_iteratorIPKNSt12regex_traitsIcE10_RegexMaskESt6vectorIS3_SaIS3_EEEC1ERKS5_
FN:953,_ZN9__gnu_cxx17__normal_iteratorIPKSt4pairIccESt6vectorIS2_SaIS2_EEEC1ERKS4_
FNDA:319802,_ZN9__gnu_cxx17__normal_iteratorIPKSt4pairIccESt6vectorIS2_SaIS2_EEEC1ERKS4_
FN:953,_ZN9__gnu_cxx17__normal_iteratorIPNSt8__detail6_StateIcEESt6vectorIS3_SaIS3_EEEC1ERKS4_
FNDA:6116,_ZN9__gnu_cxx17__normal_iteratorIPNSt8__detail6_StateIcEESt6vectorIS3_SaIS3_EEEC1ERKS4_
FN:953,_ZN9__gnu_cxx17__normal_iteratorIPdSt6vectorIdSaIdEEEC1ERKS1_
FNDA:240294,_ZN9__gnu_cxx17__normal_iteratorIPdSt6vectorIdSaIdEEEC1ERKS1_
FN:953,_ZN9__gnu_cxx17__normal_iteratorIPKSt6vectorISsSaISsEES1_IS3_SaIS3_EEEC1ERKS5_
FNDA:0,_ZN9__gnu_cxx17__normal_iteratorIPKSt6vectorISsSaISsEES1_IS3_SaIS3_EEEC1ERKS5_
FN:953,_ZN9__gnu_cxx17__normal_iteratorIPNSt12regex_traitsIcE10_RegexMaskESt6vectorIS3_SaIS3_EEEC1ERKS4_
FNDA:0,_ZN9__gnu_cxx17__normal_iteratorIPNSt12regex_traitsIcE10_RegexMaskESt6vectorIS3_SaIS3_EEEC1ERKS4_
FN:953,_ZN9__gnu_cxx17__normal_iteratorIPSt9sub_matchINS0_IPKcSsEEESt6vectorIS5_SaIS5_EEEC1ERKS6_
FNDA:66494,_ZN9__gnu_cxx17__normal_iteratorIPSt9sub_matchINS0_IPKcSsEEESt6vectorIS5_SaIS5_EEEC1ERKS6_
FN:953,_ZN9__gnu_cxx17__normal_iteratorIPSt4pairIlSt6vectorISt9sub_matchINS0_IPKcSsEEESaIS7_EEES2_ISA_SaISA_EEEC1ERKSB_
FNDA:0,_ZN9__gnu_cxx17__normal_iteratorIPSt4pairIlSt6vectorISt9sub_matchINS0_IPKcSsEEESaIS7_EEES2_ISA_SaISA_EEEC1ERKSB_
FN:953,_ZN9__gnu_cxx17__normal_iteratorIPSt6vectorIdSaIdEES1_IS3_SaIS3_EEEC1ERKS4_
FNDA:48048,_ZN9__gnu_cxx17__normal_iteratorIPSt6vectorIdSaIdEES1_IS3_SaIS3_EEEC1ERKS4_
FN:953,_ZN9__gnu_cxx17__normal_iteratorIPKcSt6vectorIcSaIcEEEC1ERKS2_
FNDA:320447,_ZN9__gnu_cxx17__normal_iteratorIPKcSt6vectorIcSaIcEEEC1ERKS2_
FN:953,_ZN9__gnu_cxx17__normal_iteratorIPmSt6vectorImSaImEEEC1ERKS1_
FNDA:2448,_ZN9__gnu_cxx17__normal_iteratorIPmSt6vectorImSaImEEEC1ERKS1_
FN:953,_ZN9__gnu_cxx17__normal_iteratorIPSsSt6vectorISsSaISsEEEC1ERKS1_
FNDA:0,_ZN9__gnu_cxx17__normal_iteratorIPSsSt6vectorISsSaISsEEEC1ERKS1_
FN:953,_ZN9__gnu_cxx17__normal_iteratorIP8DataTypeSt6vectorIS1_SaIS1_EEEC1ERKS2_
FNDA:8,_ZN9__gnu_cxx17__normal_iteratorIP8DataTypeSt6vectorIS1_SaIS1_EEEC1ERKS2_
FN:953,_ZN9__gnu_cxx17__normal_iteratorIPKSt9sub_matchINS0_IPKcSsEEESt6vectorIS5_SaIS5_EEEC1ERKS7_
FNDA:59680,_ZN9__gnu_cxx17__normal_iteratorIPKSt9sub_matchINS0_IPKcSsEEESt6vectorIS5_SaIS5_EEEC1ERKS7_
FN:953,_ZN9__gnu_cxx17__normal_iteratorIPKSsSt6vectorISsSaISsEEEC1ERKS2_
FNDA:0,_ZN9__gnu_cxx17__normal_iteratorIPKSsSt6vectorISsSaISsEEEC1ERKS2_
FN:953,_ZN9__gnu_cxx17__normal_iteratorIPKSt4pairIlSt6vectorISt9sub_matchINS0_IPKcSsEEESaIS7_EEES2_ISA_SaISA_EEEC1ERKSC_
FNDA:0,_ZN9__gnu_cxx17__normal_iteratorIPKSt4pairIlSt6vectorISt9sub_matchINS0_IPKcSsEEESaIS7_EEES2_ISA_SaISA_EEEC1ERKSC_
FN:959,_ZN9__gnu_cxx17__normal_iteratorIPKcSt6vectorIcSaIcEEEC1IPcEERKNS0_IT_NS_11__enable_ifIXsrSt10__are_sameIS9_S8_E7__valueES5_E6__typeEEE
FNDA:1242,_ZN9__gnu_cxx17__normal_iteratorIPKcSt6vectorIcSaIcEEEC1IPcEERKNS0_IT_NS_11__enable_ifIXsrSt10__are_sameIS9_S8_E7__valueES5_E6__typeEEE
FN:968,_ZNK9__gnu_cxx17__normal_iteratorIPKSt9sub_matchINS0_IPKcSsEEESt6vectorIS5_SaIS5_EEEdeEv
FNDA:13808,_ZNK9__gnu_cxx17__normal_iteratorIPKSt9sub_matchINS0_IPKcSsEEESt6vectorIS5_SaIS5_EEEdeEv
FN:968,_ZNK9__gnu_cxx17__normal_iteratorIPSt9sub_matchINS0_IPKcSsEEESt6vectorIS5_SaIS5_EEEdeEv
FNDA:7320,_ZNK9__gnu_cxx17__normal_iteratorIPSt9sub_matchINS0_IPKcSsEEESt6vectorIS5_SaIS5_EEEdeEv
FN:968,_ZNK9__gnu_cxx17__normal_iteratorIPNSt8__detail6_StateIcEESt6vectorIS3_SaIS3_EEEdeEv
FNDA:4359,_ZNK9__gnu_cxx17__normal_iteratorIPNSt8__detail6_StateIcEESt6vectorIS3_SaIS3_EEEdeEv
FN:968,_ZNK9__gnu_cxx17__normal_iteratorIPKSt6vectorISsSaISsEES1_IS3_SaIS3_EEEdeEv
FNDA:0,_ZNK9__gnu_cxx17__normal_iteratorIPKSt6vectorISsSaISsEES1_IS3_SaIS3_EEEdeEv
FN:968,_ZNK9__gnu_cxx17__normal_iteratorIPKSt4pairIccESt6vectorIS2_SaIS2_EEEdeEv
FNDA:1466,_ZNK9__gnu_cxx17__normal_iteratorIPKSt4pairIccESt6vectorIS2_SaIS2_EEEdeEv
FN:968,_ZNK9__gnu_cxx17__normal_iteratorIPKNSt12regex_traitsIcE10_RegexMaskESt6vectorIS3_SaIS3_EEEdeEv
FNDA:0,_ZNK9__gnu_cxx17__normal_iteratorIPKNSt12regex_traitsIcE10_RegexMaskESt6vectorIS3_SaIS3_EEEdeEv
FN:968,_ZNK9__gnu_cxx17__normal_iteratorIPKcSt6vectorIcSaIcEEEdeEv
FNDA:3144,_ZNK9__gnu_cxx17__normal_iteratorIPKcSt6vectorIcSaIcEEEdeEv
FN:968,_ZNK9__gnu_cxx17__normal_iteratorIPKSsSt6vectorISsSaISsEEEdeEv
FNDA:0,_ZNK9__gnu_cxx17__normal_iteratorIPKSsSt6vectorISsSaISsEEEdeEv
FN:968,_ZNK9__gnu_cxx17__normal_iteratorIPcSt6vectorIcSaIcEEEdeEv
FNDA:43,_ZNK9__gnu_cxx17__normal_iteratorIPcSt6vectorIcSaIcEEEdeEv
FN:968,_ZNK9__gnu_cxx17__normal_iteratorIPKSt4pairISsSsESt6vectorIS2_SaIS2_EEEdeEv
FNDA:0,_ZNK9__gnu_cxx17__normal_iteratorIPKSt4pairISsSsESt6vectorIS2_SaIS2_EEEdeEv
FN:968,_ZNK9__gnu_cxx17__normal_iteratorIPKcSsEdeEv
FNDA:10700,_ZNK9__gnu_cxx17__normal_iteratorIPKcSsEdeEv
FN:968,_ZNK9__gnu_cxx17__normal_iteratorIPSt4pairIlSt6vectorISt9sub_matchINS0_IPKcSsEEESaIS7_EEES2_ISA_SaISA_EEEdeEv
FNDA:0,_ZNK9__gnu_cxx17__normal_iteratorIPSt4pairIlSt6vectorISt9sub_matchINS0_IPKcSsEEESaIS7_EEES2_ISA_SaISA_EEEdeEv
FN:968,_ZNK9__gnu_cxx17__normal_iteratorIPmSt6vectorImSaImEEEdeEv
FNDA:613,_ZNK9__gnu_cxx17__normal_iteratorIPmSt6vectorImSaImEEEdeEv
FN:968,_ZNK9__gnu_cxx17__normal_iteratorIPSsSt6vectorISsSaISsEEEdeEv
FNDA:0,_ZNK9__gnu_cxx17__normal_iteratorIPSsSt6vectorISsSaISsEEEdeEv
FN:978,_ZN9__gnu_cxx17__normal_iteratorIPKSsSt6vectorISsSaISsEEEppEv
FNDA:0,_ZN9__gnu_cxx17__normal_iteratorIPKSsSt6vectorISsSaISsEEEppEv
FN:978,_ZN9__gnu_cxx17__normal_iteratorIPKcSsEppEv
FNDA:24621,_ZN9__gnu_cxx17__normal_iteratorIPKcSsEppEv
FN:978,_ZN9__gnu_cxx17__normal_iteratorIPmSt6vectorImSaImEEEppEv
FNDA:0,_ZN9__gnu_cxx17__normal_iteratorIPmSt6vectorImSaImEEEppEv
FN:978,_ZN9__gnu_cxx17__normal_iteratorIPSt4pairIlSt6vectorISt9sub_matchINS0_IPKcSsEEESaIS7_EEES2_ISA_SaISA_EEEppEv
FNDA:0,_ZN9__gnu_cxx17__normal_iteratorIPSt4pairIlSt6vectorISt9sub_matchINS0_IPKcSsEEESaIS7_EEES2_ISA_SaISA_EEEppEv
FN:978,_ZN9__gnu_cxx17__normal_iteratorIPcSt6vectorIcSaIcEEEppEv
FNDA:19,_ZN9__gnu_cxx17__normal_iteratorIPcSt6vectorIcSaIcEEEppEv
FN:978,_ZN9__gnu_cxx17__normal_iteratorIPSsSt6vectorISsSaISsEEEppEv
FNDA:0,_ZN9__gnu_cxx17__normal_iteratorIPSsSt6vectorISsSaISsEEEppEv
FN:978,_ZN9__gnu_cxx17__normal_iteratorIPKSt9sub_matchINS0_IPKcSsEEESt6vectorIS5_SaIS5_EEEppEv
FNDA:13808,_ZN9__gnu_cxx17__normal_iteratorIPKSt9sub_matchINS0_IPKcSsEEESt6vectorIS5_SaIS5_EEEppEv
FN:978,_ZN9__gnu_cxx17__normal_iteratorIPNSt8__detail6_StateIcEESt6vectorIS3_SaIS3_EEEppEv
FNDA:4359,_ZN9__gnu_cxx17__normal_iteratorIPNSt8__detail6_StateIcEESt6vectorIS3_SaIS3_EEEppEv
FN:978,_ZN9__gnu_cxx17__normal_iteratorIPKSt6vectorISsSaISsEES1_IS3_SaIS3_EEEppEv
FNDA:0,_ZN9__gnu_cxx17__normal_iteratorIPKSt6vectorISsSaISsEES1_IS3_SaIS3_EEEppEv
FN:978,_ZN9__gnu_cxx17__normal_iteratorIPKSt4pairISsSsESt6vectorIS2_SaIS2_EEEppEv
FNDA:0,_ZN9__gnu_cxx17__normal_iteratorIPKSt4pairISsSsESt6vectorIS2_SaIS2_EEEppEv
FN:978,_ZN9__gnu_cxx17__normal_iteratorIPKSt4pairIccESt6vectorIS2_SaIS2_EEEppEv
FNDA:1374,_ZN9__gnu_cxx17__normal_iteratorIPKSt4pairIccESt6vectorIS2_SaIS2_EEEppEv
FN:978,_ZN9__gnu_cxx17__normal_iteratorIPKcSt6vectorIcSaIcEEEppEv
FNDA:751,_ZN9__gnu_cxx17__normal_iteratorIPKcSt6vectorIcSaIcEEEppEv
FN:978,_ZN9__gnu_cxx17__normal_iteratorIPSt9sub_matchINS0_IPKcSsEEESt6vectorIS5_SaIS5_EEEppEv
FNDA:7320,_ZN9__gnu_cxx17__normal_iteratorIPSt9sub_matchINS0_IPKcSsEEESt6vectorIS5_SaIS5_EEEppEv
FN:978,_ZN9__gnu_cxx17__normal_iteratorIPKNSt12regex_traitsIcE10_RegexMaskESt6vectorIS3_SaIS3_EEEppEv
FNDA:0,_ZN9__gnu_cxx17__normal_iteratorIPKNSt12regex_traitsIcE10_RegexMaskESt6vectorIS3_SaIS3_EEEppEv
FN:992,_ZN9__gnu_cxx17__normal_iteratorIPKcSsEmmEv
FNDA:5312,_ZN9__gnu_cxx17__normal_iteratorIPKcSsEmmEv
FN:992,_ZN9__gnu_cxx17__normal_iteratorIPcSt6vectorIcSaIcEEEmmEv
FNDA:1,_ZN9__gnu_cxx17__normal_iteratorIPcSt6vectorIcSaIcEEEmmEv
FN:1011,_ZN9__gnu_cxx17__normal_iteratorIPKcSsEpLEl
FNDA:0,_ZN9__gnu_cxx17__normal_iteratorIPKcSsEpLEl
FN:1011,_ZN9__gnu_cxx17__normal_iteratorIPKcSt6vectorIcSaIcEEEpLEl
FNDA:2295,_ZN9__gnu_cxx17__normal_iteratorIPKcSt6vectorIcSaIcEEEpLEl
FN:1016,_ZNK9__gnu_cxx17__normal_iteratorIPSt9sub_matchINS0_IPKcSsEEESt6vectorIS5_SaIS5_EEEplEl
FNDA:20556,_ZNK9__gnu_cxx17__normal_iteratorIPSt9sub_matchINS0_IPKcSsEEESt6vectorIS5_SaIS5_EEEplEl
FN:1016,_ZNK9__gnu_cxx17__normal_iteratorIPSsSt6vectorISsSaISsEEEplEl
FNDA:0,_ZNK9__gnu_cxx17__normal_iteratorIPSsSt6vectorISsSaISsEEEplEl
FN:1016,_ZNK9__gnu_cxx17__normal_iteratorIPcSt6vectorIcSaIcEEEplEl
FNDA:1259,_ZNK9__gnu_cxx17__normal_iteratorIPcSt6vectorIcSaIcEEEplEl
FN:1026,_ZNK9__gnu_cxx17__normal_iteratorIPcSt6vectorIcSaIcEEEmiEl
FNDA:0,_ZNK9__gnu_cxx17__normal_iteratorIPcSt6vectorIcSaIcEEEmiEl
FN:1026,_ZNK9__gnu_cxx17__normal_iteratorIPmSt6vectorImSaImEEEmiEl
FNDA:613,_ZNK9__gnu_cxx17__normal_iteratorIPmSt6vectorImSaImEEEmiEl
FN:1031,_ZNK9__gnu_cxx17__normal_iteratorIPSt9sub_matchINS0_IPKcSsEEESt6vectorIS5_SaIS5_EEE4baseEv
FNDA:60578,_ZNK9__gnu_cxx17__normal_iteratorIPSt9sub_matchINS0_IPKcSsEEESt6vectorIS5_SaIS5_EEE4baseEv
FN:1031,_ZNK9__gnu_cxx17__normal_iteratorIPmSt6vectorImSaImEEE4baseEv
FNDA:2444,_ZNK9__gnu_cxx17__normal_iteratorIPmSt6vectorImSaImEEE4baseEv
FN:1031,_ZNK9__gnu_cxx17__normal_iteratorIPSt4pairIlSt6vectorISt9sub_matchINS0_IPKcSsEEESaIS7_EEES2_ISA_SaISA_EEE4baseEv
FNDA:0,_ZNK9__gnu_cxx17__normal_iteratorIPSt4pairIlSt6vectorISt9sub_matchINS0_IPKcSsEEESaIS7_EEES2_ISA_SaISA_EEE4baseEv
FN:1031,_ZNK9__gnu_cxx17__normal_iteratorIPKSt4pairIlSt6vectorISt9sub_matchINS0_IPKcSsEEESaIS7_EEES2_ISA_SaISA_EEE4baseEv
FNDA:0,_ZNK9__gnu_cxx17__normal_iteratorIPKSt4pairIlSt6vectorISt9sub_matchINS0_IPKcSsEEESaIS7_EEES2_ISA_SaISA_EEE4baseEv
FN:1031,_ZNK9__gnu_cxx17__normal_iteratorIPNSt12regex_traitsIcE10_RegexMaskESt6vectorIS3_SaIS3_EEE4baseEv
FNDA:0,_ZNK9__gnu_cxx17__normal_iteratorIPNSt12regex_traitsIcE10_RegexMaskESt6vectorIS3_SaIS3_EEE4baseEv
FN:1031,_ZNK9__gnu_cxx17__normal_iteratorIPKcSsE4baseEv
FNDA:132314,_ZNK9__gnu_cxx17__normal_iteratorIPKcSsE4baseEv
FN:1031,_ZNK9__gnu_cxx17__normal_iteratorIPKSt6vectorISsSaISsEES1_IS3_SaIS3_EEE4baseEv
FNDA:0,_ZNK9__gnu_cxx17__normal_iteratorIPKSt6vectorISsSaISsEES1_IS3_SaIS3_EEE4baseEv
FN:1031,_ZNK9__gnu_cxx17__normal_iteratorIPNSt8__detail6_StateIcEESt6vectorIS3_SaIS3_EEE4baseEv
FNDA:19732,_ZNK9__gnu_cxx17__normal_iteratorIPNSt8__detail6_StateIcEESt6vectorIS3_SaIS3_EEE4baseEv
FN:1031,_ZNK9__gnu_cxx17__normal_iteratorIPcSt6vectorIcSaIcEEE4baseEv
FNDA:6370,_ZNK9__gnu_cxx17__normal_iteratorIPcSt6vectorIcSaIcEEE4baseEv
FN:1031,_ZNK9__gnu_cxx17__normal_iteratorIPKSt9sub_matchINS0_IPKcSsEEESt6vectorIS5_SaIS5_EEE4baseEv
FNDA:87296,_ZNK9__gnu_cxx17__normal_iteratorIPKSt9sub_matchINS0_IPKcSsEEESt6vectorIS5_SaIS5_EEE4baseEv
FN:1031,_ZNK9__gnu_cxx17__normal_iteratorIPKSt4pairIccESt6vectorIS2_SaIS2_EEE4baseEv
FNDA:322550,_ZNK9__gnu_cxx17__normal_iteratorIPKSt4pairIccESt6vectorIS2_SaIS2_EEE4baseEv
FN:1031,_ZNK9__gnu_cxx17__normal_iteratorIPSt4pairIccESt6vectorIS2_SaIS2_EEE4baseEv
FNDA:24,_ZNK9__gnu_cxx17__normal_iteratorIPSt4pairIccESt6vectorIS2_SaIS2_EEE4baseEv
FN:1031,_ZNK9__gnu_cxx17__normal_iteratorIPSt4pairISsSsESt6vectorIS2_SaIS2_EEE4baseEv
FNDA:0,_ZNK9__gnu_cxx17__normal_iteratorIPSt4pairISsSsESt6vectorIS2_SaIS2_EEE4baseEv
FN:1031,_ZNK9__gnu_cxx17__normal_iteratorIPKSsSt6vectorISsSaISsEEE4baseEv
FNDA:0,_ZNK9__gnu_cxx17__normal_iteratorIPKSsSt6vectorISsSaISsEEE4baseEv
FN:1031,_ZNK9__gnu_cxx17__normal_iteratorIPdSt6vectorIdSaIdEEE4baseEv
FNDA:504652,_ZNK9__gnu_cxx17__normal_iteratorIPdSt6vectorIdSaIdEEE4baseEv
FN:1031,_ZNK9__gnu_cxx17__normal_iteratorIPiSt6vectorIiSaIiEEE4baseEv
FNDA:0,_ZNK9__gnu_cxx17__normal_iteratorIPiSt6vectorIiSaIiEEE4baseEv
FN:1031,_ZNK9__gnu_cxx17__normal_iteratorIPKSt4pairISsSsESt6vectorIS2_SaIS2_EEE4baseEv
FNDA:0,_ZNK9__gnu_cxx17__normal_iteratorIPKSt4pairISsSsESt6vectorIS2_SaIS2_EEE4baseEv
FN:1031,_ZNK9__gnu_cxx17__normal_iteratorIPKNSt12regex_traitsIcE10_RegexMaskESt6vectorIS3_SaIS3_EEE4baseEv
FNDA:312262,_ZNK9__gnu_cxx17__normal_iteratorIPKNSt12regex_traitsIcE10_RegexMaskESt6vectorIS3_SaIS3_EEE4baseEv
FN:1031,_ZNK9__gnu_cxx17__normal_iteratorIPSt6vectorIdSaIdEES1_IS3_SaIS3_EEE4baseEv
FNDA:64,_ZNK9__gnu_cxx17__normal_iteratorIPSt6vectorIdSaIdEES1_IS3_SaIS3_EEE4baseEv
FN:1031,_ZNK9__gnu_cxx17__normal_iteratorIPcSsE4baseEv
FNDA:0,_ZNK9__gnu_cxx17__normal_iteratorIPcSsE4baseEv
FN:1031,_ZNK9__gnu_cxx17__normal_iteratorIP8DataTypeSt6vectorIS1_SaIS1_EEE4baseEv
FNDA:16,_ZNK9__gnu_cxx17__normal_iteratorIP8DataTypeSt6vectorIS1_SaIS1_EEE4baseEv
FN:1031,_ZNK9__gnu_cxx17__normal_iteratorIPSsSt6vectorISsSaISsEEE4baseEv
FNDA:0,_ZNK9__gnu_cxx17__normal_iteratorIPSsSt6vectorISsSaISsEEE4baseEv
FN:1031,_ZNK9__gnu_cxx17__normal_iteratorIPKcSt6vectorIcSaIcEEE4baseEv
FNDA:640262,_ZNK9__gnu_cxx17__normal_iteratorIPKcSt6vectorIcSaIcEEE4baseEv
FN:1072,_ZN9__gnu_cxxeqIPKcSsEEbRKNS_17__normal_iteratorIT_T0_EES8_
FNDA:36399,_ZN9__gnu_cxxeqIPKcSsEEbRKNS_17__normal_iteratorIT_T0_EES8_
FN:1072,_ZN9__gnu_cxxeqIPcSt6vectorIcSaIcEEEEbRKNS_17__normal_iteratorIT_T0_EESA_
FNDA:1247,_ZN9__gnu_cxxeqIPcSt6vectorIcSaIcEEEEbRKNS_17__normal_iteratorIT_T0_EESA_
FN:1072,_ZN9__gnu_cxxeqIPcSsEEbRKNS_17__normal_iteratorIT_T0_EES7_
FNDA:0,_ZN9__gnu_cxxeqIPcSsEEbRKNS_17__normal_iteratorIT_T0_EES7_
FN:1072,_ZN9__gnu_cxxeqIPSsSt6vectorISsSaISsEEEEbRKNS_17__normal_iteratorIT_T0_EESA_
FNDA:6,_ZN9__gnu_cxxeqIPSsSt6vectorISsSaISsEEEEbRKNS_17__normal_iteratorIT_T0_EESA_
FN:1072,_ZN9__gnu_cxxeqIPKSt4pairIlSt6vectorISt9sub_matchINS_17__normal_iteratorIPKcSsEEESaIS8_EEES2_ISB_SaISB_EEEEbRKNS4_IT_T0_EESK_
FNDA:0,_ZN9__gnu_cxxeqIPKSt4pairIlSt6vectorISt9sub_matchINS_17__normal_iteratorIPKcSsEEESaIS8_EEES2_ISB_SaISB_EEEEbRKNS4_IT_T0_EESK_
FN:1088,_ZN9__gnu_cxxneIPSt9sub_matchINS_17__normal_iteratorIPKcSsEEESt6vectorIS6_SaIS6_EEEEbRKNS2_IT_T0_EESF_
FNDA:8862,_ZN9__gnu_cxxneIPSt9sub_matchINS_17__normal_iteratorIPKcSsEEESt6vectorIS6_SaIS6_EEEEbRKNS2_IT_T0_EESF_
FN:1088,_ZN9__gnu_cxxneIPKcSsEEbRKNS_17__normal_iteratorIT_T0_EES8_
FNDA:27344,_ZN9__gnu_cxxneIPKcSsEEbRKNS_17__normal_iteratorIT_T0_EES8_
FN:1088,_ZN9__gnu_cxxneIPKSt6vectorISsSaISsEES1_IS3_SaIS3_EEEEbRKNS_17__normal_iteratorIT_T0_EESD_
FNDA:0,_ZN9__gnu_cxxneIPKSt6vectorISsSaISsEES1_IS3_SaIS3_EEEEbRKNS_17__normal_iteratorIT_T0_EESD_
FN:1088,_ZN9__gnu_cxxneIPSsSt6vectorISsSaISsEEEEbRKNS_17__normal_iteratorIT_T0_EESA_
FNDA:0,_ZN9__gnu_cxxneIPSsSt6vectorISsSaISsEEEEbRKNS_17__normal_iteratorIT_T0_EESA_
FN:1088,_ZN9__gnu_cxxneIPKSsSt6vectorISsSaISsEEEEbRKNS_17__normal_iteratorIT_T0_EESB_
FNDA:0,_ZN9__gnu_cxxneIPKSsSt6vectorISsSaISsEEEEbRKNS_17__normal_iteratorIT_T0_EESB_
FN:1088,_ZN9__gnu_cxxneIPSt4pairIlSt6vectorISt9sub_matchINS_17__normal_iteratorIPKcSsEEESaIS8_EEES2_ISB_SaISB_EEEEbRKNS4_IT_T0_EESJ_
FNDA:0,_ZN9__gnu_cxxneIPSt4pairIlSt6vectorISt9sub_matchINS_17__normal_iteratorIPKcSsEEESaIS8_EEES2_ISB_SaISB_EEEEbRKNS4_IT_T0_EESJ_
FN:1088,_ZN9__gnu_cxxneIPKSt4pairIccESt6vectorIS2_SaIS2_EEEEbRKNS_17__normal_iteratorIT_T0_EESD_
FNDA:161275,_ZN9__gnu_cxxneIPKSt4pairIccESt6vectorIS2_SaIS2_EEEEbRKNS_17__normal_iteratorIT_T0_EESD_
FN:1088,_ZN9__gnu_cxxneIPKSt9sub_matchINS_17__normal_iteratorIPKcSsEEESt6vectorIS6_SaIS6_EEEEbRKNS2_IT_T0_EESG_
FNDA:16828,_ZN9__gnu_cxxneIPKSt9sub_matchINS_17__normal_iteratorIPKcSsEEESt6vectorIS6_SaIS6_EEEEbRKNS2_IT_T0_EESG_
FN:1088,_ZN9__gnu_cxxneIPmSt6vectorImSaImEEEEbRKNS_17__normal_iteratorIT_T0_EESA_
FNDA:0,_ZN9__gnu_cxxneIPmSt6vectorImSaImEEEEbRKNS_17__normal_iteratorIT_T0_EESA_
FN:1088,_ZN9__gnu_cxxneIPcSsEEbRKNS_17__normal_iteratorIT_T0_EES7_
FNDA:0,_ZN9__gnu_cxxneIPcSsEEbRKNS_17__normal_iteratorIT_T0_EES7_
FN:1088,_ZN9__gnu_cxxneIPNSt8__detail6_StateIcEESt6vectorIS3_SaIS3_EEEEbRKNS_17__normal_iteratorIT_T0_EESD_
FNDA:4968,_ZN9__gnu_cxxneIPNSt8__detail6_StateIcEESt6vectorIS3_SaIS3_EEEEbRKNS_17__normal_iteratorIT_T0_EESD_
FN:1088,_ZN9__gnu_cxxneIPKcSt6vectorIcSaIcEEEEbRKNS_17__normal_iteratorIT_T0_EESB_
FNDA:158976,_ZN9__gnu_cxxneIPKcSt6vectorIcSaIcEEEEbRKNS_17__normal_iteratorIT_T0_EESB_
FN:1088,_ZN9__gnu_cxxneIPcSt6vectorIcSaIcEEEEbRKNS_17__normal_iteratorIT_T0_EESA_
FNDA:1266,_ZN9__gnu_cxxneIPcSt6vectorIcSaIcEEEEbRKNS_17__normal_iteratorIT_T0_EESA_
FN:1088,_ZN9__gnu_cxxneIPKSt4pairISsSsESt6vectorIS2_SaIS2_EEEEbRKNS_17__normal_iteratorIT_T0_EESD_
FNDA:0,_ZN9__gnu_cxxneIPKSt4pairISsSsESt6vectorIS2_SaIS2_EEEEbRKNS_17__normal_iteratorIT_T0_EESD_
FN:1088,_ZN9__gnu_cxxneIPKNSt12regex_traitsIcE10_RegexMaskESt6vectorIS3_SaIS3_EEEEbRKNS_17__normal_iteratorIT_T0_EESE_
FNDA:156131,_ZN9__gnu_cxxneIPKNSt12regex_traitsIcE10_RegexMaskESt6vectorIS3_SaIS3_EEEEbRKNS_17__normal_iteratorIT_T0_EESE_
FN:1104,_ZN9__gnu_cxxltIPcSt6vectorIcSaIcEEEEbRKNS_17__normal_iteratorIT_T0_EESA_
FNDA:0,_ZN9__gnu_cxxltIPcSt6vectorIcSaIcEEEEbRKNS_17__normal_iteratorIT_T0_EESA_
FN:1177,_ZN9__gnu_cxxmiIP8DataTypeSt6vectorIS1_SaIS1_EEEENS_17__normal_iteratorIT_T0_E15difference_typeERKS9_SC_
FNDA:4,_ZN9__gnu_cxxmiIP8DataTypeSt6vectorIS1_SaIS1_EEEENS_17__normal_iteratorIT_T0_E15difference_typeERKS9_SC_
FN:1177,_ZN9__gnu_cxxmiIPSt6vectorIdSaIdEES1_IS3_SaIS3_EEEENS_17__normal_iteratorIT_T0_E15difference_typeERKSA_SD_
FNDA:16,_ZN9__gnu_cxxmiIPSt6vectorIdSaIdEES1_IS3_SaIS3_EEEENS_17__normal_iteratorIT_T0_E15difference_typeERKSA_SD_
FN:1177,_ZN9__gnu_cxxmiIPmSt6vectorImSaImEEEENS_17__normal_iteratorIT_T0_E15difference_typeERKS8_SB_
FNDA:611,_ZN9__gnu_cxxmiIPmSt6vectorImSaImEEEENS_17__normal_iteratorIT_T0_E15difference_typeERKS8_SB_
FN:1177,_ZN9__gnu_cxxmiIPSsSt6vectorISsSaISsEEEENS_17__normal_iteratorIT_T0_E15difference_typeERKS8_SB_
FNDA:0,_ZN9__gnu_cxxmiIPSsSt6vectorISsSaISsEEEENS_17__normal_iteratorIT_T0_E15difference_typeERKS8_SB_
FN:1177,_ZN9__gnu_cxxmiIPiSt6vectorIiSaIiEEEENS_17__normal_iteratorIT_T0_E15difference_typeERKS8_SB_
FNDA:0,_ZN9__gnu_cxxmiIPiSt6vectorIiSaIiEEEENS_17__normal_iteratorIT_T0_E15difference_typeERKS8_SB_
FN:1177,_ZN9__gnu_cxxmiIPdSt6vectorIdSaIdEEEENS_17__normal_iteratorIT_T0_E15difference_typeERKS8_SB_
FNDA:48060,_ZN9__gnu_cxxmiIPdSt6vectorIdSaIdEEEENS_17__normal_iteratorIT_T0_E15difference_typeERKS8_SB_
FN:1177,_ZN9__gnu_cxxmiIPSt4pairIlSt6vectorISt9sub_matchINS_17__normal_iteratorIPKcSsEEESaIS8_EEES2_ISB_SaISB_EEEENS4_IT_T0_E15difference_typeERKSH_SK_
FNDA:0,_ZN9__gnu_cxxmiIPSt4pairIlSt6vectorISt9sub_matchINS_17__normal_iteratorIPKcSsEEESaIS8_EEES2_ISB_SaISB_EEEENS4_IT_T0_E15difference_typeERKSH_SK_
FN:1177,_ZN9__gnu_cxxmiIPcSt6vectorIcSaIcEEEENS_17__normal_iteratorIT_T0_E15difference_typeERKS8_SB_
FNDA:27,_ZN9__gnu_cxxmiIPcSt6vectorIcSaIcEEEENS_17__normal_iteratorIT_T0_E15difference_typeERKS8_SB_
FN:1177,_ZN9__gnu_cxxmiIPNSt12regex_traitsIcE10_RegexMaskESt6vectorIS3_SaIS3_EEEENS_17__normal_iteratorIT_T0_E15difference_typeERKSB_SE_
FNDA:0,_ZN9__gnu_cxxmiIPNSt12regex_traitsIcE10_RegexMaskESt6vectorIS3_SaIS3_EEEENS_17__normal_iteratorIT_T0_E15difference_typeERKSB_SE_
FN:1177,_ZN9__gnu_cxxmiIPcSsEENS_17__normal_iteratorIT_T0_E15difference_typeERKS5_S8_
FNDA:0,_ZN9__gnu_cxxmiIPcSsEENS_17__normal_iteratorIT_T0_E15difference_typeERKS5_S8_
FN:1177,_ZN9__gnu_cxxmiIPKcSt6vectorIcSaIcEEEENS_17__normal_iteratorIT_T0_E15difference_typeERKS9_SC_
FNDA:160218,_ZN9__gnu_cxxmiIPKcSt6vectorIcSaIcEEEENS_17__normal_iteratorIT_T0_E15difference_typeERKS9_SC_
FN:1177,_ZN9__gnu_cxxmiIPKcSsEENS_17__normal_iteratorIT_T0_E15difference_typeERKS6_S9_
FNDA:1176,_ZN9__gnu_cxxmiIPKcSsEENS_17__normal_iteratorIT_T0_E15difference_typeERKS6_S9_
FN:1177,_ZN9__gnu_cxxmiIPKSsSt6vectorISsSaISsEEEENS_17__normal_iteratorIT_T0_E15difference_typeERKS9_SC_
FNDA:310388,_ZN9__gnu_cxxmiIPKSsSt6vectorISsSaISsEEEENS_17__normal_iteratorIT_T0_E15difference_typeERKS9_SC_
FN:1177,_ZN9__gnu_cxxmiIPSt4pairIccESt6vectorIS2_SaIS2_EEEENS_17__normal_iteratorIT_T0_E15difference_typeERKSA_SD_
FNDA:6,_ZN9__gnu_cxxmiIPSt4pairIccESt6vectorIS2_SaIS2_EEEENS_17__normal_iteratorIT_T0_E15difference_typeERKSA_SD_
FN:1177,_ZN9__gnu_cxxmiIPSt4pairISsSsESt6vectorIS2_SaIS2_EEEENS_17__normal_iteratorIT_T0_E15difference_typeERKSA_SD_
FNDA:0,_ZN9__gnu_cxxmiIPSt4pairISsSsESt6vectorIS2_SaIS2_EEEENS_17__normal_iteratorIT_T0_E15difference_typeERKSA_SD_
FN:1177,_ZN9__gnu_cxxmiIPNSt8__detail6_StateIcEESt6vectorIS3_SaIS3_EEEENS_17__normal_iteratorIT_T0_E15difference_typeERKSB_SE_
FNDA:2449,_ZN9__gnu_cxxmiIPNSt8__detail6_StateIcEESt6vectorIS3_SaIS3_EEEENS_17__normal_iteratorIT_T0_E15difference_typeERKSB_SE_
FN:1200,_ZSt12__niter_baseIPKcSsET_N9__gnu_cxx17__normal_iteratorIS2_T0_EE
FNDA:2476,_ZSt12__niter_baseIPKcSsET_N9__gnu_cxx17__normal_iteratorIS2_T0_EE
FN:1200,_ZSt12__niter_baseIPcSt6vectorIcSaIcEEET_N9__gnu_cxx17__normal_iteratorIS4_T0_EE
FNDA:24,_ZSt12__niter_baseIPcSt6vectorIcSaIcEEET_N9__gnu_cxx17__normal_iteratorIS4_T0_EE
FN:1200,_ZSt12__niter_baseIPSt9sub_matchIN9__gnu_cxx17__normal_iteratorIPKcSsEEESt6vectorIS6_SaIS6_EEET_NS2_ISB_T0_EE
FNDA:41112,_ZSt12__niter_baseIPSt9sub_matchIN9__gnu_cxx17__normal_iteratorIPKcSsEEESt6vectorIS6_SaIS6_EEET_NS2_ISB_T0_EE
FN:1200,_ZSt12__niter_baseIPKSt9sub_matchIN9__gnu_cxx17__normal_iteratorIPKcSsEEESt6vectorIS6_SaIS6_EEET_NS2_ISC_T0_EE
FNDA:41112,_ZSt12__niter_baseIPKSt9sub_matchIN9__gnu_cxx17__normal_iteratorIPKcSsEEESt6vectorIS6_SaIS6_EEET_NS2_ISC_T0_EE
FN:1200,_ZSt12__niter_baseIPSsSt6vectorISsSaISsEEET_N9__gnu_cxx17__normal_iteratorIS4_T0_EE
FNDA:0,_ZSt12__niter_baseIPSsSt6vectorISsSaISsEEET_N9__gnu_cxx17__normal_iteratorIS4_T0_EE
FN:1200,_ZSt12__niter_baseIPKSsSt6vectorISsSaISsEEET_N9__gnu_cxx17__normal_iteratorIS5_T0_EE
FNDA:0,_ZSt12__niter_baseIPKSsSt6vectorISsSaISsEEET_N9__gnu_cxx17__normal_iteratorIS5_T0_EE
FN:1200,_ZSt12__niter_baseIPKcSt6vectorIcSaIcEEET_N9__gnu_cxx17__normal_iteratorIS5_T0_EE
FNDA:1874,_ZSt12__niter_baseIPKcSt6vectorIcSaIcEEET_N9__gnu_cxx17__normal_iteratorIS5_T0_EE
FN:1301,_ZNSt13move_iteratorIPmEC1ES0_
FNDA:0,_ZNSt13move_iteratorIPmEC1ES0_
FN:1301,_ZNSt13move_iteratorIPcEC1ES0_
FNDA:0,_ZNSt13move_iteratorIPcEC1ES0_
FN:1301,_ZNSt13move_iteratorIPSt4pairIccEEC1ES2_
FNDA:0,_ZNSt13move_iteratorIPSt4pairIccEEC1ES2_
FN:1301,_ZNSt13move_iteratorIP8DataTypeEC1ES1_
FNDA:0,_ZNSt13move_iteratorIP8DataTypeEC1ES1_
FN:1301,_ZNSt13move_iteratorIPSt6vectorIdSaIdEEEC1ES3_
FNDA:0,_ZNSt13move_iteratorIPSt6vectorIdSaIdEEEC1ES3_
FN:1301,_ZNSt13move_iteratorIPSt4pairISsSsEEC1ES2_
FNDA:0,_ZNSt13move_iteratorIPSt4pairISsSsEEC1ES2_
FN:1301,_ZNSt13move_iteratorIPNSt12regex_traitsIcE10_RegexMaskEEC1ES3_
FNDA:0,_ZNSt13move_iteratorIPNSt12regex_traitsIcE10_RegexMaskEEC1ES3_
FN:1301,_ZNSt13move_iteratorIPiEC1ES0_
FNDA:0,_ZNSt13move_iteratorIPiEC1ES0_
FN:1301,_ZNSt13move_iteratorIPdEC1ES0_
FNDA:0,_ZNSt13move_iteratorIPdEC1ES0_
FN:1301,_ZNSt13move_iteratorIPSt4pairIlSt6vectorISt9sub_matchIN9__gnu_cxx17__normal_iteratorIPKcSsEEESaIS8_EEEEC1ESC_
FNDA:0,_ZNSt13move_iteratorIPSt4pairIlSt6vectorISt9sub_matchIN9__gnu_cxx17__normal_iteratorIPKcSsEEESaIS8_EEEEC1ESC_
FN:1301,_ZNSt13move_iteratorIPSsEC1ES0_
FNDA:0,_ZNSt13move_iteratorIPSsEC1ES0_
FN:1311,_ZNKSt13move_iteratorIPSt6vectorIdSaIdEEE4baseEv
FNDA:0,_ZNKSt13move_iteratorIPSt6vectorIdSaIdEEE4baseEv
FN:1311,_ZNKSt13move_iteratorIPSt4pairIccEE4baseEv
FNDA:0,_ZNKSt13move_iteratorIPSt4pairIccEE4baseEv
FN:1311,_ZNKSt13move_iteratorIPcE4baseEv
FNDA:0,_ZNKSt13move_iteratorIPcE4baseEv
FN:1311,_ZNKSt13move_iteratorIPNSt12regex_traitsIcE10_RegexMaskEE4baseEv
FNDA:0,_ZNKSt13move_iteratorIPNSt12regex_traitsIcE10_RegexMaskEE4baseEv
FN:1311,_ZNKSt13move_iteratorIPSt4pairIlSt6vectorISt9sub_matchIN9__gnu_cxx17__normal_iteratorIPKcSsEEESaIS8_EEEE4baseEv
FNDA:0,_ZNKSt13move_iteratorIPSt4pairIlSt6vectorISt9sub_matchIN9__gnu_cxx17__normal_iteratorIPKcSsEEESaIS8_EEEE4baseEv
FN:1311,_ZNKSt13move_iteratorIP8DataTypeE4baseEv
FNDA:0,_ZNKSt13move_iteratorIP8DataTypeE4baseEv
FN:1311,_ZNKSt13move_iteratorIPiE4baseEv
FNDA:0,_ZNKSt13move_iteratorIPiE4baseEv
FN:1311,_ZNKSt13move_iteratorIPdE4baseEv
FNDA:0,_ZNKSt13move_iteratorIPdE4baseEv
FN:1311,_ZNKSt13move_iteratorIPSsE4baseEv
FNDA:0,_ZNKSt13move_iteratorIPSsE4baseEv
FN:1311,_ZNKSt13move_iteratorIPmE4baseEv
FNDA:0,_ZNKSt13move_iteratorIPmE4baseEv
FN:1311,_ZNKSt13move_iteratorIPSt4pairISsSsEE4baseEv
FNDA:0,_ZNKSt13move_iteratorIPSt4pairISsSsEE4baseEv
FN:1327,_ZNKSt13move_iteratorIPNSt12regex_traitsIcE10_RegexMaskEEdeEv
FNDA:0,_ZNKSt13move_iteratorIPNSt12regex_traitsIcE10_RegexMaskEEdeEv
FN:1327,_ZNKSt13move_iteratorIPSt4pairISsSsEEdeEv
FNDA:0,_ZNKSt13move_iteratorIPSt4pairISsSsEEdeEv
FN:1327,_ZNKSt13move_iteratorIPSt4pairIccEEdeEv
FNDA:0,_ZNKSt13move_iteratorIPSt4pairIccEEdeEv
FN:1327,_ZNKSt13move_iteratorIPSsEdeEv
FNDA:0,_ZNKSt13move_iteratorIPSsEdeEv
FN:1327,_ZNKSt13move_iteratorIPSt6vectorIdSaIdEEEdeEv
FNDA:0,_ZNKSt13move_iteratorIPSt6vectorIdSaIdEEEdeEv
FN:1327,_ZNKSt13move_iteratorIPSt4pairIlSt6vectorISt9sub_matchIN9__gnu_cxx17__normal_iteratorIPKcSsEEESaIS8_EEEEdeEv
FNDA:0,_ZNKSt13move_iteratorIPSt4pairIlSt6vectorISt9sub_matchIN9__gnu_cxx17__normal_iteratorIPKcSsEEESaIS8_EEEEdeEv
FN:1335,_ZNSt13move_iteratorIPSt6vectorIdSaIdEEEppEv
FNDA:0,_ZNSt13move_iteratorIPSt6vectorIdSaIdEEEppEv
FN:1335,_ZNSt13move_iteratorIPSsEppEv
FNDA:0,_ZNSt13move_iteratorIPSsEppEv
FN:1335,_ZNSt13move_iteratorIPSt4pairIccEEppEv
FNDA:0,_ZNSt13move_iteratorIPSt4pairIccEEppEv
FN:1335,_ZNSt13move_iteratorIPSt4pairISsSsEEppEv
FNDA:0,_ZNSt13move_iteratorIPSt4pairISsSsEEppEv
FN:1335,_ZNSt13move_iteratorIPNSt12regex_traitsIcE10_RegexMaskEEppEv
FNDA:0,_ZNSt13move_iteratorIPNSt12regex_traitsIcE10_RegexMaskEEppEv
FN:1335,_ZNSt13move_iteratorIPSt4pairIlSt6vectorISt9sub_matchIN9__gnu_cxx17__normal_iteratorIPKcSsEEESaIS8_EEEEppEv
FNDA:0,_ZNSt13move_iteratorIPSt4pairIlSt6vectorISt9sub_matchIN9__gnu_cxx17__normal_iteratorIPKcSsEEESaIS8_EEEEppEv
FN:1495,_ZSteqIPNSt12regex_traitsIcE10_RegexMaskEEbRKSt13move_iteratorIT_ES8_
FNDA:0,_ZSteqIPNSt12regex_traitsIcE10_RegexMaskEEbRKSt13move_iteratorIT_ES8_
FN:1495,_ZSteqIPSsEbRKSt13move_iteratorIT_ES5_
FNDA:0,_ZSteqIPSsEbRKSt13move_iteratorIT_ES5_
FN:1495,_ZSteqIPSt6vectorIdSaIdEEEbRKSt13move_iteratorIT_ES8_
FNDA:0,_ZSteqIPSt6vectorIdSaIdEEEbRKSt13move_iteratorIT_ES8_
FN:1495,_ZSteqIPSt4pairIccEEbRKSt13move_iteratorIT_ES7_
FNDA:0,_ZSteqIPSt4pairIccEEbRKSt13move_iteratorIT_ES7_
FN:1495,_ZSteqIPSt4pairISsSsEEbRKSt13move_iteratorIT_ES7_
FNDA:0,_ZSteqIPSt4pairISsSsEEbRKSt13move_iteratorIT_ES7_
FN:1495,_ZSteqIPSt4pairIlSt6vectorISt9sub_matchIN9__gnu_cxx17__normal_iteratorIPKcSsEEESaIS8_EEEEbRKSt13move_iteratorIT_ESH_
FNDA:0,_ZSteqIPSt4pairIlSt6vectorISt9sub_matchIN9__gnu_cxx17__normal_iteratorIPKcSsEEESaIS8_EEEEbRKSt13move_iteratorIT_ESH_
FN:1501,_ZStneIPNSt12regex_traitsIcE10_RegexMaskEEbRKSt13move_iteratorIT_ES8_
FNDA:0,_ZStneIPNSt12regex_traitsIcE10_RegexMaskEEbRKSt13move_iteratorIT_ES8_
FN:1501,_ZStneIPSt4pairISsSsEEbRKSt13move_iteratorIT_ES7_
FNDA:0,_ZStneIPSt4pairISsSsEEbRKSt13move_iteratorIT_ES7_
FN:1501,_ZStneIPSt4pairIlSt6vectorISt9sub_matchIN9__gnu_cxx17__normal_iteratorIPKcSsEEESaIS8_EEEEbRKSt13move_iteratorIT_ESH_
FNDA:0,_ZStneIPSt4pairIlSt6vectorISt9sub_matchIN9__gnu_cxx17__normal_iteratorIPKcSsEEESaIS8_EEEEbRKSt13move_iteratorIT_ESH_
FN:1501,_ZStneIPSt4pairIccEEbRKSt13move_iteratorIT_ES7_
FNDA:0,_ZStneIPSt4pairIccEEbRKSt13move_iteratorIT_ES7_
FN:1501,_ZStneIPSt6vectorIdSaIdEEEbRKSt13move_iteratorIT_ES8_
FNDA:0,_ZStneIPSt6vectorIdSaIdEEEbRKSt13move_iteratorIT_ES8_
FN:1501,_ZStneIPSsEbRKSt13move_iteratorIT_ES5_
FNDA:0,_ZStneIPSsEbRKSt13move_iteratorIT_ES5_
FN:1563,_ZSt32__make_move_if_noexcept_iteratorImSt13move_iteratorIPmEET0_PT_
FNDA:0,_ZSt32__make_move_if_noexcept_iteratorImSt13move_iteratorIPmEET0_PT_
FN:1563,_ZSt32__make_move_if_noexcept_iteratorINSt12regex_traitsIcE10_RegexMaskESt13move_iteratorIPS2_EET0_PT_
FNDA:0,_ZSt32__make_move_if_noexcept_iteratorINSt12regex_traitsIcE10_RegexMaskESt13move_iteratorIPS2_EET0_PT_
FN:1563,_ZSt32__make_move_if_noexcept_iteratorISt4pairISsSsESt13move_iteratorIPS1_EET0_PT_
FNDA:0,_ZSt32__make_move_if_noexcept_iteratorISt4pairISsSsESt13move_iteratorIPS1_EET0_PT_
FN:1563,_ZSt32__make_move_if_noexcept_iteratorISt4pairIccESt13move_iteratorIPS1_EET0_PT_
FNDA:0,_ZSt32__make_move_if_noexcept_iteratorISt4pairIccESt13move_iteratorIPS1_EET0_PT_
FN:1563,_ZSt32__make_move_if_noexcept_iteratorI8DataTypeSt13move_iteratorIPS0_EET0_PT_
FNDA:0,_ZSt32__make_move_if_noexcept_iteratorI8DataTypeSt13move_iteratorIPS0_EET0_PT_
FN:1563,_ZSt32__make_move_if_noexcept_iteratorISt6vectorIdSaIdEESt13move_iteratorIPS2_EET0_PT_
FNDA:0,_ZSt32__make_move_if_noexcept_iteratorISt6vectorIdSaIdEESt13move_iteratorIPS2_EET0_PT_
FN:1563,_ZSt32__make_move_if_noexcept_iteratorIiSt13move_iteratorIPiEET0_PT_
FNDA:0,_ZSt32__make_move_if_noexcept_iteratorIiSt13move_iteratorIPiEET0_PT_
FN:1563,_ZSt32__make_move_if_noexcept_iteratorIdSt13move_iteratorIPdEET0_PT_
FNDA:0,_ZSt32__make_move_if_noexcept_iteratorIdSt13move_iteratorIPdEET0_PT_
FN:1563,_ZSt32__make_move_if_noexcept_iteratorISsSt13move_iteratorIPSsEET0_PT_
FNDA:0,_ZSt32__make_move_if_noexcept_iteratorISsSt13move_iteratorIPSsEET0_PT_
FN:1563,_ZSt32__make_move_if_noexcept_iteratorIcSt13move_iteratorIPcEET0_PT_
FNDA:0,_ZSt32__make_move_if_noexcept_iteratorIcSt13move_iteratorIPcEET0_PT_
FN:1563,_ZSt32__make_move_if_noexcept_iteratorINSt8__detail6_StateIcEEPKS2_ET0_PT_
FNDA:9796,_ZSt32__make_move_if_noexcept_iteratorINSt8__detail6_StateIcEEPKS2_ET0_PT_
FN:1563,_ZSt32__make_move_if_noexcept_iteratorISt4pairIlSt6vectorISt9sub_matchIN9__gnu_cxx17__normal_iteratorIPKcSsEEESaIS8_EEESt13move_iteratorIPSB_EET0_PT_
FNDA:0,_ZSt32__make_move_if_noexcept_iteratorISt4pairIlSt6vectorISt9sub_matchIN9__gnu_cxx17__normal_iteratorIPKcSsEEESaIS8_EEESt13move_iteratorIPSB_EET0_PT_
FN:2169,_ZSt12__miter_baseIPdEDTcl12__miter_basecldtfp_4baseEEESt13move_iteratorIT_E
FNDA:0,_ZSt12__miter_baseIPdEDTcl12__miter_basecldtfp_4baseEEESt13move_iteratorIT_E
FN:2169,_ZSt12__miter_baseIPiEDTcl12__miter_basecldtfp_4baseEEESt13move_iteratorIT_E
FNDA:0,_ZSt12__miter_baseIPiEDTcl12__miter_basecldtfp_4baseEEESt13move_iteratorIT_E
FN:2169,_ZSt12__miter_baseIPmEDTcl12__miter_basecldtfp_4baseEEESt13move_iteratorIT_E
FNDA:0,_ZSt12__miter_baseIPmEDTcl12__miter_basecldtfp_4baseEEESt13move_iteratorIT_E
FN:2169,_ZSt12__miter_baseIPcEDTcl12__miter_basecldtfp_4baseEEESt13move_iteratorIT_E
FNDA:0,_ZSt12__miter_baseIPcEDTcl12__miter_basecldtfp_4baseEEESt13move_iteratorIT_E
FN:2169,_ZSt12__miter_baseIP8DataTypeEDTcl12__miter_basecldtfp_4baseEEESt13move_iteratorIT_E
FNDA:0,_ZSt12__miter_baseIP8DataTypeEDTcl12__miter_basecldtfp_4baseEEESt13move_iteratorIT_E
FNF:190
FNH:75
DA:949,80144
DA:950,80144
DA:953,0
DA:954,0
DA:953,0
DA:954,0
DA:953,0
DA:954,0
DA:953,8
DA:954,8
DA:953,48048
DA:954,48048
DA:953,0
DA:954,0
DA:953,0
DA:954,0
DA:953,240294
DA:954,240294
DA:953,66494
DA:954,66494
DA:953,6116
DA:954,6116
DA:953,2448
DA:954,2448
DA:953,0
DA:954,0
DA:953,0
DA:954,0
DA:953,59680
DA:954,59680
DA:953,5009
DA:954,5009
DA:953,0
DA:954,0
DA:953,320447
DA:954,320447
DA:953,319802
DA:954,319802
DA:953,312262
DA:954,312262
DA:953,0
DA:954,0
DA:953,12
DA:954,12
DA:959,1242
DA:963,1242
DA:968,3144
DA:969,3144
DA:968,0
DA:969,0
DA:968,0
DA:969,0
DA:968,1466
DA:969,1466
DA:968,43
DA:969,43
DA:968,13808
DA:969,13808
DA:968,10700
DA:969,10700
DA:968,0
DA:969,0
DA:968,613
DA:969,613
DA:968,4359
DA:969,4359
DA:968,0
DA:969,0
DA:968,0
DA:969,0
DA:968,7320
DA:969,7320
DA:968,0
DA:969,0
DA:978,751
DA:980,751
DA:981,751
DA:978,0
DA:980,0
DA:981,0
DA:978,0
DA:980,0
DA:981,0
DA:978,1374
DA:980,1374
DA:981,1374
DA:978,19
DA:980,19
DA:981,19
DA:978,13808
DA:980,13808
DA:981,13808
DA:978,0
DA:980,0
DA:981,0
DA:978,0
DA:980,0
DA:981,0
DA:978,4359
DA:980,4359
DA:981,4359
DA:978,24621
DA:980,24621
DA:981,24621
DA:978,0
DA:980,0
DA:981,0
DA:978,0
DA:980,0
DA:981,0
DA:978,7320
DA:980,7320
DA:981,7320
DA:978,0
DA:980,0
DA:981,0
DA:992,1
DA:994,1
DA:995,1
DA:992,5312
DA:994,5312
DA:995,5312
DA:1011,2295
DA:1012,2295
DA:1011,0
DA:1012,0
DA:1016,1259
DA:1017,1259
DA:1016,20556
DA:1017,20556
DA:1016,0
DA:1017,0
DA:1026,0
DA:1027,0
DA:1026,613
DA:1027,613
DA:1031,0
DA:1032,0
DA:1031,0
DA:1032,0
DA:1031,16
DA:1032,16
DA:1031,64
DA:1032,64
DA:1031,0
DA:1032,0
DA:1031,504652
DA:1032,504652
DA:1031,0
DA:1032,0
DA:1031,60578
DA:1032,60578
DA:1031,132314
DA:1032,132314
DA:1031,0
DA:1032,0
DA:1031,19732
DA:1032,19732
DA:1031,2444
DA:1032,2444
DA:1031,0
DA:1032,0
DA:1031,0
DA:1032,0
DA:1031,87296
DA:1032,87296
DA:1031,6370
DA:1032,6370
DA:1031,0
DA:1032,0
DA:1031,640262
DA:1032,640262
DA:1031,0
DA:1032,0
DA:1031,322550
DA:1032,322550
DA:1031,312262
DA:1032,312262
DA:1031,0
DA:1032,0
DA:1031,24
DA:1032,24
DA:1072,0
DA:1075,0
DA:1072,1247
DA:1075,1247
DA:1072,0
DA:1075,0
DA:1072,36399
DA:1075,36399
DA:1072,6
DA:1075,6
DA:1088,0
DA:1091,0
DA:1088,158976
DA:1091,158976
DA:1088,0
DA:1091,0
DA:1088,156131
DA:1091,156131
DA:1088,161275
DA:1091,161275
DA:1088,1266
DA:1091,1266
DA:1088,16828
DA:1091,16828
DA:1088,0
DA:1091,0
DA:1088,0
DA:1091,0
DA:1088,4968
DA:1091,4968
DA:1088,0
DA:1091,0
DA:1088,0
DA:1091,0
DA:1088,27344
DA:1091,27344
DA:1088,8862
DA:1091,8862
DA:1088,0
DA:1091,0
DA:1104,0
DA:1107,0
DA:1177,0
DA:1180,0
DA:1177,6
DA:1180,6
DA:1177,310388
DA:1180,310388
DA:1177,27
DA:1180,27
DA:1177,0
DA:1180,0
DA:1177,0
DA:1180,0
DA:1177,160218
DA:1180,160218
DA:1177,1176
DA:1180,1176
DA:1177,0
DA:1180,0
DA:1177,2449
DA:1180,2449
DA:1177,611
DA:1180,611
DA:1177,48060
DA:1180,48060
DA:1177,0
DA:1180,0
DA:1177,16
DA:1180,16
DA:1177,4
DA:1180,4
DA:1177,0
DA:1180,0
DA:1200,1874
DA:1202,1874
DA:1200,24
DA:1202,24
DA:1200,2476
DA:1202,2476
DA:1200,41112
DA:1202,41112
DA:1200,41112
DA:1202,41112
DA:1200,0
DA:1202,0
DA:1200,0
DA:1202,0
DA:1301,0
DA:1302,0
DA:1301,0
DA:1302,0
DA:1301,0
DA:1302,0
DA:1301,0
DA:1302,0
DA:1301,0
DA:1302,0
DA:1301,0
DA:1302,0
DA:1301,0
DA:1302,0
DA:1301,0
DA:1302,0
DA:1301,0
DA:1302,0
DA:1301,0
DA:1302,0
DA:1301,0
DA:1302,0
DA:1311,0
DA:1312,0
DA:1311,0
DA:1312,0
DA:1311,0
DA:1312,0
DA:1311,0
DA:1312,0
DA:1311,0
DA:1312,0
DA:1311,0
DA:1312,0
DA:1311,0
DA:1312,0
DA:1311,0
DA:1312,0
DA:1311,0
DA:1312,0
DA:1311,0
DA:1312,0
DA:1311,0
DA:1312,0
DA:1327,0
DA:1328,0
DA:1327,0
DA:1328,0
DA:1327,0
DA:1328,0
DA:1327,0
DA:1328,0
DA:1327,0
DA:1328,0
DA:1327,0
DA:1328,0
DA:1335,0
DA:1337,0
DA:1338,0
DA:1335,0
DA:1337,0
DA:1338,0
DA:1335,0
DA:1337,0
DA:1338,0
DA:1335,0
DA:1337,0
DA:1338,0
DA:1335,0
DA:1337,0
DA:1338,0
DA:1335,0
DA:1337,0
DA:1338,0
DA:1495,0
DA:1497,0
DA:1495,0
DA:1497,0
DA:1495,0
DA:1497,0
DA:1495,0
DA:1497,0
DA:1495,0
DA:1497,0
DA:1495,0
DA:1497,0
DA:1501,0
DA:1503,0
DA:1501,0
DA:1503,0
DA:1501,0
DA:1503,0
DA:1501,0
DA:1503,0
DA:1501,0
DA:1503,0
DA:1501,0
DA:1503,0
DA:1563,0
DA:1564,0
DA:1563,0
DA:1564,0
DA:1563,0
DA:1564,0
DA:1563,0
DA:1564,0
DA:1563,0
DA:1564,0
DA:1563,9796
DA:1564,9796
DA:1563,0
DA:1564,0
DA:1563,0
DA:1564,0
DA:1563,0
DA:1564,0
DA:1563,0
DA:1564,0
DA:1563,0
DA:1564,0
DA:1563,0
DA:1564,0
DA:2169,0
DA:2171,0
DA:2169,0
DA:2171,0
DA:2169,0
DA:2171,0
DA:2169,0
DA:2171,0
DA:2169,0
DA:2171,0
LF:402
LH:159
end_of_record
SF:/usr/lib/gcc/x86_64-pc-msys/10.2.0/include/c++/bits/regex_compiler.tcc
FN:65,_ZNSt8__detail9_CompilerISt12regex_traitsIcEEC1EPKcS5_RKSt6localeNSt15regex_constants18syntax_option_typeE
FNDA:609,_ZNSt8__detail9_CompilerISt12regex_traitsIcEEC1EPKcS5_RKSt6localeNSt15regex_constants18syntax_option_typeE
FN:96,_ZNSt8__detail9_CompilerISt12regex_traitsIcEE14_M_disjunctionEv
FNDA:615,_ZNSt8__detail9_CompilerISt12regex_traitsIcEE14_M_disjunctionEv
FN:120,_ZNSt8__detail9_CompilerISt12regex_traitsIcEE14_M_alternativeEv
FNDA:1873,_ZNSt8__detail9_CompilerISt12regex_traitsIcEE14_M_alternativeEv
FN:136,_ZNSt8__detail9_CompilerISt12regex_traitsIcEE7_M_termEv
FNDA:1873,_ZNSt8__detail9_CompilerISt12regex_traitsIcEE7_M_termEv
FN:151,_ZNSt8__detail9_CompilerISt12regex_traitsIcEE12_M_assertionEv
FNDA:1873,_ZNSt8__detail9_CompilerISt12regex_traitsIcEE12_M_assertionEv
FN:183,_ZNSt8__detail9_CompilerISt12regex_traitsIcEE13_M_quantifierEv
FNDA:1277,_ZNSt8__detail9_CompilerISt12regex_traitsIcEE13_M_quantifierEv
FN:187,_ZZNSt8__detail9_CompilerISt12regex_traitsIcEE13_M_quantifierEvENKUlvE_clEv
FNDA:629,_ZZNSt8__detail9_CompilerISt12regex_traitsIcEE13_M_quantifierEvENKUlvE_clEv
FN:313,_ZNSt8__detail9_CompilerISt12regex_traitsIcEE7_M_atomEv
FNDA:1267,_ZNSt8__detail9_CompilerISt12regex_traitsIcEE7_M_atomEv
FN:358,_ZNSt8__detail9_CompilerISt12regex_traitsIcEE21_M_bracket_expressionEv
FNDA:630,_ZNSt8__detail9_CompilerISt12regex_traitsIcEE21_M_bracket_expressionEv
FN:373,_ZNSt8__detail9_CompilerISt12regex_traitsIcEE26_M_insert_any_matcher_ecmaILb0ELb0EEEvv
FNDA:4,_ZNSt8__detail9_CompilerISt12regex_traitsIcEE26_M_insert_any_matcher_ecmaILb0ELb0EEEvv
FN:373,_ZNSt8__detail9_CompilerISt12regex_traitsIcEE26_M_insert_any_matcher_ecmaILb0ELb1EEEvv
FNDA:0,_ZNSt8__detail9_CompilerISt12regex_traitsIcEE26_M_insert_any_matcher_ecmaILb0ELb1EEEvv
FN:373,_ZNSt8__detail9_CompilerISt12regex_traitsIcEE26_M_insert_any_matcher_ecmaILb1ELb0EEEvv
FNDA:0,_ZNSt8__detail9_CompilerISt12regex_traitsIcEE26_M_insert_any_matcher_ecmaILb1ELb0EEEvv
FN:373,_ZNSt8__detail9_CompilerISt12regex_traitsIcEE26_M_insert_any_matcher_ecmaILb1ELb1EEEvv
FNDA:0,_ZNSt8__detail9_CompilerISt12regex_traitsIcEE26_M_insert_any_matcher_ecmaILb1ELb1EEEvv
FN:385,_ZNSt8__detail9_CompilerISt12regex_traitsIcEE27_M_insert_any_matcher_posixILb0ELb0EEEvv
FNDA:0,_ZNSt8__detail9_CompilerISt12regex_traitsIcEE27_M_insert_any_matcher_posixILb0ELb0EEEvv
FN:385,_ZNSt8__detail9_CompilerISt12regex_traitsIcEE27_M_insert_any_matcher_posixILb0ELb1EEEvv
FNDA:0,_ZNSt8__detail9_CompilerISt12regex_traitsIcEE27_M_insert_any_matcher_posixILb0ELb1EEEvv
FN:385,_ZNSt8__detail9_CompilerISt12regex_traitsIcEE27_M_insert_any_matcher_posixILb1ELb0EEEvv
FNDA:0,_ZNSt8__detail9_CompilerISt12regex_traitsIcEE27_M_insert_any_matcher_posixILb1ELb0EEEvv
FN:385,_ZNSt8__detail9_CompilerISt12regex_traitsIcEE27_M_insert_any_matcher_posixILb1ELb1EEEvv
FNDA:0,_ZNSt8__detail9_CompilerISt12regex_traitsIcEE27_M_insert_any_matcher_posixILb1ELb1EEEvv
FN:397,_ZNSt8__detail9_CompilerISt12regex_traitsIcEE22_M_insert_char_matcherILb0ELb0EEEvv
FNDA:15,_ZNSt8__detail9_CompilerISt12regex_traitsIcEE22_M_insert_char_matcherILb0ELb0EEEvv
FN:397,_ZNSt8__detail9_CompilerISt12regex_traitsIcEE22_M_insert_char_matcherILb0ELb1EEEvv
FNDA:0,_ZNSt8__detail9_CompilerISt12regex_traitsIcEE22_M_insert_char_matcherILb0ELb1EEEvv
FN:397,_ZNSt8__detail9_CompilerISt12regex_traitsIcEE22_M_insert_char_matcherILb1ELb0EEEvv
FNDA:0,_ZNSt8__detail9_CompilerISt12regex_traitsIcEE22_M_insert_char_matcherILb1ELb0EEEvv
FN:397,_ZNSt8__detail9_CompilerISt12regex_traitsIcEE22_M_insert_char_matcherILb1ELb1EEEvv
FNDA:0,_ZNSt8__detail9_CompilerISt12regex_traitsIcEE22_M_insert_char_matcherILb1ELb1EEEvv
FN:409,_ZNSt8__detail9_CompilerISt12regex_traitsIcEE33_M_insert_character_class_matcherILb0ELb0EEEvv
FNDA:612,_ZNSt8__detail9_CompilerISt12regex_traitsIcEE33_M_insert_character_class_matcherILb0ELb0EEEvv
FN:409,_ZNSt8__detail9_CompilerISt12regex_traitsIcEE33_M_insert_character_class_matcherILb0ELb1EEEvv
FNDA:0,_ZNSt8__detail9_CompilerISt12regex_traitsIcEE33_M_insert_character_class_matcherILb0ELb1EEEvv
FN:409,_ZNSt8__detail9_CompilerISt12regex_traitsIcEE33_M_insert_character_class_matcherILb1ELb1EEEvv
FNDA:0,_ZNSt8__detail9_CompilerISt12regex_traitsIcEE33_M_insert_character_class_matcherILb1ELb1EEEvv
FN:409,_ZNSt8__detail9_CompilerISt12regex_traitsIcEE33_M_insert_character_class_matcherILb1ELb0EEEvv
FNDA:0,_ZNSt8__detail9_CompilerISt12regex_traitsIcEE33_M_insert_character_class_matcherILb1ELb0EEEvv
FN:424,_ZNSt8__detail9_CompilerISt12regex_traitsIcEE25_M_insert_bracket_matcherILb0ELb0EEEvb
FNDA:9,_ZNSt8__detail9_CompilerISt12regex_traitsIcEE25_M_insert_bracket_matcherILb0ELb0EEEvb
FN:424,_ZNSt8__detail9_CompilerISt12regex_traitsIcEE25_M_insert_bracket_matcherILb0ELb1EEEvb
FNDA:0,_ZNSt8__detail9_CompilerISt12regex_traitsIcEE25_M_insert_bracket_matcherILb0ELb1EEEvb
FN:424,_ZNSt8__detail9_CompilerISt12regex_traitsIcEE25_M_insert_bracket_matcherILb1ELb0EEEvb
FNDA:0,_ZNSt8__detail9_CompilerISt12regex_traitsIcEE25_M_insert_bracket_matcherILb1ELb0EEEvb
FN:424,_ZNSt8__detail9_CompilerISt12regex_traitsIcEE25_M_insert_bracket_matcherILb1ELb1EEEvb
FNDA:0,_ZNSt8__detail9_CompilerISt12regex_traitsIcEE25_M_insert_bracket_matcherILb1ELb1EEEvb
FN:455,_ZNSt8__detail9_CompilerISt12regex_traitsIcEE18_M_expression_termILb1ELb1EEEbRSt4pairIbcERNS_15_BracketMatcherIS2_XT_EXT0_EEE
FNDA:0,_ZNSt8__detail9_CompilerISt12regex_traitsIcEE18_M_expression_termILb1ELb1EEEbRSt4pairIbcERNS_15_BracketMatcherIS2_XT_EXT0_EEE
FN:455,_ZNSt8__detail9_CompilerISt12regex_traitsIcEE18_M_expression_termILb0ELb0EEEbRSt4pairIbcERNS_15_BracketMatcherIS2_XT_EXT0_EEE
FNDA:34,_ZNSt8__detail9_CompilerISt12regex_traitsIcEE18_M_expression_termILb0ELb0EEEbRSt4pairIbcERNS_15_BracketMatcherIS2_XT_EXT0_EEE
FN:455,_ZNSt8__detail9_CompilerISt12regex_traitsIcEE18_M_expression_termILb1ELb0EEEbRSt4pairIbcERNS_15_BracketMatcherIS2_XT_EXT0_EEE
FNDA:0,_ZNSt8__detail9_CompilerISt12regex_traitsIcEE18_M_expression_termILb1ELb0EEEbRSt4pairIbcERNS_15_BracketMatcherIS2_XT_EXT0_EEE
FN:455,_ZNSt8__detail9_CompilerISt12regex_traitsIcEE18_M_expression_termILb0ELb1EEEbRSt4pairIbcERNS_15_BracketMatcherIS2_XT_EXT0_EEE
FNDA:0,_ZNSt8__detail9_CompilerISt12regex_traitsIcEE18_M_expression_termILb0ELb1EEEbRSt4pairIbcERNS_15_BracketMatcherIS2_XT_EXT0_EEE
FN:462,_ZZNSt8__detail9_CompilerISt12regex_traitsIcEE18_M_expression_termILb0ELb0EEEbRSt4pairIbcERNS_15_BracketMatcherIS2_XT_EXT0_EEEENKUlcE_clEc
FNDA:18,_ZZNSt8__detail9_CompilerISt12regex_traitsIcEE18_M_expression_termILb0ELb0EEEbRSt4pairIbcERNS_15_BracketMatcherIS2_XT_EXT0_EEEENKUlcE_clEc
FN:462,_ZZNSt8__detail9_CompilerISt12regex_traitsIcEE18_M_expression_termILb1ELb1EEEbRSt4pairIbcERNS_15_BracketMatcherIS2_XT_EXT0_EEEENKUlcE_clEc
FNDA:0,_ZZNSt8__detail9_CompilerISt12regex_traitsIcEE18_M_expression_termILb1ELb1EEEbRSt4pairIbcERNS_15_BracketMatcherIS2_XT_EXT0_EEEENKUlcE_clEc
FN:462,_ZZNSt8__detail9_CompilerISt12regex_traitsIcEE18_M_expression_termILb0ELb1EEEbRSt4pairIbcERNS_15_BracketMatcherIS2_XT_EXT0_EEEENKUlcE_clEc
FNDA:0,_ZZNSt8__detail9_CompilerISt12regex_traitsIcEE18_M_expression_termILb0ELb1EEEbRSt4pairIbcERNS_15_BracketMatcherIS2_XT_EXT0_EEEENKUlcE_clEc
FN:462,_ZZNSt8__detail9_CompilerISt12regex_traitsIcEE18_M_expression_termILb1ELb0EEEbRSt4pairIbcERNS_15_BracketMatcherIS2_XT_EXT0_EEEENKUlcE_clEc
FNDA:0,_ZZNSt8__detail9_CompilerISt12regex_traitsIcEE18_M_expression_termILb1ELb0EEEbRSt4pairIbcERNS_15_BracketMatcherIS2_XT_EXT0_EEEENKUlcE_clEc
FN:470,_ZZNSt8__detail9_CompilerISt12regex_traitsIcEE18_M_expression_termILb0ELb1EEEbRSt4pairIbcERNS_15_BracketMatcherIS2_XT_EXT0_EEEENKUlvE0_clEv
FNDA:0,_ZZNSt8__detail9_CompilerISt12regex_traitsIcEE18_M_expression_termILb0ELb1EEEbRSt4pairIbcERNS_15_BracketMatcherIS2_XT_EXT0_EEEENKUlvE0_clEv
FN:470,_ZZNSt8__detail9_CompilerISt12regex_traitsIcEE18_M_expression_termILb1ELb1EEEbRSt4pairIbcERNS_15_BracketMatcherIS2_XT_EXT0_EEEENKUlvE0_clEv
FNDA:0,_ZZNSt8__detail9_CompilerISt12regex_traitsIcEE18_M_expression_termILb1ELb1EEEbRSt4pairIbcERNS_15_BracketMatcherIS2_XT_EXT0_EEEENKUlvE0_clEv
FN:470,_ZZNSt8__detail9_CompilerISt12regex_traitsIcEE18_M_expression_termILb1ELb0EEEbRSt4pairIbcERNS_15_BracketMatcherIS2_XT_EXT0_EEEENKUlvE0_clEv
FNDA:0,_ZZNSt8__detail9_CompilerISt12regex_traitsIcEE18_M_expression_termILb1ELb0EEEbRSt4pairIbcERNS_15_BracketMatcherIS2_XT_EXT0_EEEENKUlvE0_clEv
FN:470,_ZZNSt8__detail9_CompilerISt12regex_traitsIcEE18_M_expression_termILb0ELb0EEEbRSt4pairIbcERNS_15_BracketMatcherIS2_XT_EXT0_EEEENKUlvE0_clEv
FNDA:1,_ZZNSt8__detail9_CompilerISt12regex_traitsIcEE18_M_expression_termILb0ELb0EEEbRSt4pairIbcERNS_15_BracketMatcherIS2_XT_EXT0_EEEENKUlvE0_clEv
FN:567,_ZNSt8__detail9_CompilerISt12regex_traitsIcEE11_M_try_charEv
FNDA:1294,_ZNSt8__detail9_CompilerISt12regex_traitsIcEE11_M_try_charEv
FN:588,_ZNSt8__detail9_CompilerISt12regex_traitsIcEE14_M_match_tokenENS_12_ScannerBase7_TokenTE
FNDA:21374,_ZNSt8__detail9_CompilerISt12regex_traitsIcEE14_M_match_tokenENS_12_ScannerBase7_TokenTE
FN:602,_ZNSt8__detail9_CompilerISt12regex_traitsIcEE16_M_cur_int_valueEi
FNDA:2,_ZNSt8__detail9_CompilerISt12regex_traitsIcEE16_M_cur_int_valueEi
FN:614,_ZNKSt8__detail15_BracketMatcherISt12regex_traitsIcELb1ELb1EE8_M_applyEcSt17integral_constantIbLb0EE
FNDA:0,_ZNKSt8__detail15_BracketMatcherISt12regex_traitsIcELb1ELb1EE8_M_applyEcSt17integral_constantIbLb0EE
FN:614,_ZNKSt8__detail15_BracketMatcherISt12regex_traitsIcELb1ELb0EE8_M_applyEcSt17integral_constantIbLb0EE
FNDA:0,_ZNKSt8__detail15_BracketMatcherISt12regex_traitsIcELb1ELb0EE8_M_applyEcSt17integral_constantIbLb0EE
FN:614,_ZNKSt8__detail15_BracketMatcherISt12regex_traitsIcELb0ELb1EE8_M_applyEcSt17integral_constantIbLb0EE
FNDA:0,_ZNKSt8__detail15_BracketMatcherISt12regex_traitsIcELb0ELb1EE8_M_applyEcSt17integral_constantIbLb0EE
FN:614,_ZNKSt8__detail15_BracketMatcherISt12regex_traitsIcELb0ELb0EE8_M_applyEcSt17integral_constantIbLb0EE
FNDA:158976,_ZNKSt8__detail15_BracketMatcherISt12regex_traitsIcELb0ELb0EE8_M_applyEcSt17integral_constantIbLb0EE
FN:617,_ZZNKSt8__detail15_BracketMatcherISt12regex_traitsIcELb0ELb1EE8_M_applyEcSt17integral_constantIbLb0EEENKUlvE_clEv
FNDA:0,_ZZNKSt8__detail15_BracketMatcherISt12regex_traitsIcELb0ELb1EE8_M_applyEcSt17integral_constantIbLb0EEENKUlvE_clEv
FN:617,_ZZNKSt8__detail15_BracketMatcherISt12regex_traitsIcELb1ELb0EE8_M_applyEcSt17integral_constantIbLb0EEENKUlvE_clEv
FNDA:0,_ZZNKSt8__detail15_BracketMatcherISt12regex_traitsIcELb1ELb0EE8_M_applyEcSt17integral_constantIbLb0EEENKUlvE_clEv
FN:617,_ZZNKSt8__detail15_BracketMatcherISt12regex_traitsIcELb0ELb0EE8_M_applyEcSt17integral_constantIbLb0EEENKUlvE_clEv
FNDA:158976,_ZZNKSt8__detail15_BracketMatcherISt12regex_traitsIcELb0ELb0EE8_M_applyEcSt17integral_constantIbLb0EEENKUlvE_clEv
FN:617,_ZZNKSt8__detail15_BracketMatcherISt12regex_traitsIcELb1ELb1EE8_M_applyEcSt17integral_constantIbLb0EEENKUlvE_clEv
FNDA:0,_ZZNKSt8__detail15_BracketMatcherISt12regex_traitsIcELb1ELb1EE8_M_applyEcSt17integral_constantIbLb0EEENKUlvE_clEv
FNF:52
FNH:21
DA:65,609
DA:69,609
DA:75,609
DA:76,0
DA:78,609
DA:79,609
DA:80,1218
DA:82,609
DA:83,609
DA:84,609
DA:85,609
DA:86,0
DA:87,609
DA:89,609
DA:90,609
DA:91,609
DA:92,609
DA:96,615
DA:99,615
DA:100,621
DA:102,6
DA:103,6
DA:104,6
DA:105,6
DA:106,6
DA:107,6
DA:111,6
DA:112,6
DA:116,615
DA:120,1873
DA:123,1873
DA:125,1252
DA:126,1252
DA:127,1252
DA:128,1252
DA:131,621
DA:132,1873
DA:136,1873
DA:139,1873
DA:140,606
DA:141,1267
DA:143,1277
DA:144,646
DA:146,621
DA:151,1873
DA:154,1873
DA:155,305
DA:156,1568
DA:157,301
DA:158,1267
DA:160,0
DA:161,0
DA:162,1267
DA:164,0
DA:165,0
DA:166,0
DA:167,0
DA:169,0
DA:170,0
DA:171,0
DA:172,0
DA:173,0
DA:174,0
DA:177,1267
DA:178,606
DA:183,1277
DA:186,1277
DA:187,3793
DA:189,629
DA:190,0
DA:192,629
DA:194,1277
DA:196,621
DA:197,621
DA:198,621
DA:199,621
DA:201,621
DA:202,621
DA:204,656
DA:206,2
DA:207,2
DA:208,2
DA:210,2
DA:212,654
DA:214,6
DA:215,6
DA:216,6
DA:217,6
DA:218,6
DA:220,6
DA:221,6
DA:222,6
DA:224,648
DA:226,2
DA:227,0
DA:229,2
DA:230,0
DA:232,2
DA:233,2
DA:234,2
DA:235,2
DA:239,2
DA:240,0
DA:241,0
DA:243,0
DA:245,2
DA:246,2
DA:247,0
DA:250,2
DA:252,6
DA:253,4
DA:255,2
DA:257,0
DA:258,0
DA:259,0
DA:261,0
DA:262,0
DA:266,2
DA:267,0
DA:269,2
DA:273,4
DA:274,2
DA:276,0
DA:277,0
DA:279,0
DA:280,0
DA:282,2
DA:283,2
DA:285,0
DA:286,0
DA:287,0
DA:290,2
DA:293,646
DA:294,631
DA:313,1267
DA:316,1267
DA:318,4
DA:319,0
DA:321,4
DA:323,1263
DA:324,15
DA:325,1248
DA:326,0
DA:327,0
DA:328,1248
DA:329,612
DA:330,636
DA:332,2
DA:333,2
DA:334,2
DA:335,0
DA:337,2
DA:338,2
DA:340,634
DA:342,4
DA:343,4
DA:344,4
DA:345,0
DA:347,4
DA:348,4
DA:349,4
DA:351,630
DA:352,621
DA:353,646
DA:358,630
DA:362,630
DA:363,630
DA:364,621
DA:365,9
DA:366,9
DA:373,0
DA:376,0
DA:377,0
DA:378,0
DA:380,0
DA:373,0
DA:376,0
DA:377,0
DA:378,0
DA:380,0
DA:373,0
DA:376,0
DA:377,0
DA:378,0
DA:380,0
DA:373,4
DA:376,4
DA:377,4
DA:378,8
DA:380,4
DA:385,0
DA:388,0
DA:389,0
DA:390,0
DA:392,0
DA:385,0
DA:388,0
DA:389,0
DA:390,0
DA:392,0
DA:385,0
DA:388,0
DA:389,0
DA:390,0
DA:392,0
DA:385,0
DA:388,0
DA:389,0
DA:390,0
DA:392,0
DA:397,0
DA:400,0
DA:401,0
DA:402,0
DA:403,0
DA:404,0
DA:397,0
DA:400,0
DA:401,0
DA:402,0
DA:403,0
DA:404,0
DA:397,0
DA:400,0
DA:401,0
DA:402,0
DA:403,0
DA:404,0
DA:397,15
DA:400,15
DA:401,15
DA:402,30
DA:403,15
DA:404,15
DA:409,0
DA:413,0
DA:414,0
DA:415,0
DA:416,0
DA:417,0
DA:418,0
DA:419,0
DA:409,0
DA:413,0
DA:414,0
DA:415,0
DA:416,0
DA:417,0
DA:418,0
DA:419,0
DA:409,0
DA:413,0
DA:414,0
DA:415,0
DA:416,0
DA:417,0
DA:418,0
DA:419,0
DA:409,612
DA:413,612
DA:414,612
DA:415,612
DA:416,612
DA:417,612
DA:418,1224
DA:419,612
DA:424,0
DA:427,0
DA:428,0
DA:429,0
DA:430,0
DA:432,0
DA:434,0
DA:435,0
DA:437,0
DA:439,0
DA:440,0
DA:443,0
DA:444,0
DA:445,0
DA:446,0
DA:447,0
DA:448,0
DA:449,0
DA:450,0
DA:424,0
DA:427,0
DA:428,0
DA:429,0
DA:430,0
DA:432,0
DA:434,0
DA:435,0
DA:437,0
DA:439,0
DA:440,0
DA:443,0
DA:444,0
DA:445,0
DA:446,0
DA:447,0
DA:448,0
DA:449,0
DA:450,0
DA:424,0
DA:427,0
DA:428,0
DA:429,0
DA:430,0
DA:432,0
DA:434,0
DA:435,0
DA:437,0
DA:439,0
DA:440,0
DA:443,0
DA:444,0
DA:445,0
DA:446,0
DA:447,0
DA:448,0
DA:449,0
DA:450,0
DA:424,9
DA:427,9
DA:428,9
DA:429,9
DA:430,9
DA:432,0
DA:434,0
DA:435,0
DA:437,0
DA:439,0
DA:440,0
DA:443,34
DA:444,9
DA:445,5
DA:446,9
DA:447,18
DA:448,9
DA:449,18
DA:450,9
DA:455,0
DA:459,0
DA:460,0
DA:462,0
DA:470,0
DA:479,0
DA:481,0
DA:482,0
DA:483,0
DA:485,0
DA:487,0
DA:489,0
DA:490,0
DA:492,0
DA:494,0
DA:495,0
DA:497,0
DA:498,0
DA:509,0
DA:511,0
DA:513,0
DA:515,0
DA:517,0
DA:518,0
DA:520,0
DA:526,0
DA:530,0
DA:532,0
DA:533,0
DA:535,0
DA:537,0
DA:538,0
DA:542,0
DA:543,0
DA:544,0
DA:547,0
DA:551,0
DA:553,0
DA:554,0
DA:555,0
DA:556,0
DA:559,0
DA:562,0
DA:455,0
DA:459,0
DA:460,0
DA:462,0
DA:470,0
DA:479,0
DA:481,0
DA:482,0
DA:483,0
DA:485,0
DA:487,0
DA:489,0
DA:490,0
DA:492,0
DA:494,0
DA:495,0
DA:497,0
DA:498,0
DA:509,0
DA:511,0
DA:513,0
DA:515,0
DA:517,0
DA:518,0
DA:520,0
DA:526,0
DA:530,0
DA:532,0
DA:533,0
DA:535,0
DA:537,0
DA:538,0
DA:542,0
DA:543,0
DA:544,0
DA:547,0
DA:551,0
DA:553,0
DA:554,0
DA:555,0
DA:556,0
DA:559,0
DA:562,0
DA:455,0
DA:459,0
DA:460,0
DA:462,0
DA:470,0
DA:479,0
DA:481,0
DA:482,0
DA:483,0
DA:485,0
DA:487,0
DA:489,0
DA:490,0
DA:492,0
DA:494,0
DA:495,0
DA:497,0
DA:498,0
DA:509,0
DA:511,0
DA:513,0
DA:515,0
DA:517,0
DA:518,0
DA:520,0
DA:526,0
DA:530,0
DA:532,0
DA:533,0
DA:535,0
DA:537,0
DA:538,0
DA:542,0
DA:543,0
DA:544,0
DA:547,0
DA:551,0
DA:553,0
DA:554,0
DA:555,0
DA:556,0
DA:559,0
DA:562,0
DA:455,34
DA:459,34
DA:460,9
DA:462,25
DA:470,25
DA:479,25
DA:481,0
DA:482,0
DA:483,0
DA:485,0
DA:487,25
DA:489,0
DA:490,0
DA:492,25
DA:494,0
DA:495,0
DA:497,25
DA:498,18
DA:509,7
DA:511,6
DA:513,0
DA:515,0
DA:517,0
DA:518,0
DA:520,0
DA:526,0
DA:530,6
DA:532,6
DA:533,6
DA:535,0
DA:537,0
DA:538,0
DA:542,0
DA:543,0
DA:544,0
DA:547,0
DA:551,1
DA:553,1
DA:554,1
DA:555,2
DA:556,1
DA:559,0
DA:562,25
DA:462,0
DA:462,0
DA:462,0
DA:462,54
DA:464,18
DA:465,7
DA:467,11
DA:468,18
DA:470,0
DA:470,0
DA:470,0
DA:470,2
DA:472,1
DA:474,0
DA:475,0
DA:567,1294
DA:570,1294
DA:571,1294
DA:573,0
DA:574,0
DA:576,1294
DA:578,0
DA:579,0
DA:581,1294
DA:582,39
DA:583,1294
DA:588,21374
DA:591,21374
DA:593,2548
DA:594,2548
DA:595,2548
DA:597,18826
DA:602,2
DA:605,2
DA:606,2
DA:607,4
DA:608,2
DA:609,2
DA:614,0
DA:636,0
DA:614,0
DA:636,0
DA:614,0
DA:636,0
DA:614,158976
DA:636,158976
DA:617,0
DA:617,0
DA:617,0
DA:617,1731156
DA:619,158976
DA:620,317952
DA:621,12
DA:622,158964
DA:623,160330
DA:624,1458
DA:625,92
DA:626,158872
DA:627,3678
DA:628,155194
DA:629,310388
DA:630,465582
DA:631,0
DA:632,155194
DA:633,0
DA:634,0
DA:635,155194
LF:581
LH:227
end_of_record
SF:/usr/lib/gcc/x86_64-pc-msys/10.2.0/include/c++/bits/shared_ptr.h
FN:312,_ZNSt10shared_ptrIKNSt8__detail4_NFAISt12regex_traitsIcEEEEC1IS4_vEEOS_IT_E
FNDA:609,_ZNSt10shared_ptrIKNSt8__detail4_NFAISt12regex_traitsIcEEEEC1IS4_vEEOS_IT_E
FN:407,_ZNSt10shared_ptrINSt8__detail4_NFAISt12regex_traitsIcEEEEC1ISaIS4_EJRKSt6localeRNSt15regex_constants18syntax_option_typeEEEESt20_Sp_alloc_shared_tagIT_EDpOT0_
FNDA:609,_ZNSt10shared_ptrINSt8__detail4_NFAISt12regex_traitsIcEEEEC1ISaIS4_EJRKSt6localeRNSt15regex_constants18syntax_option_typeEEEESt20_Sp_alloc_shared_tagIT_EDpOT0_
FN:442,_ZSteqIKNSt8__detail4_NFAISt12regex_traitsIcEEEEbRKSt10shared_ptrIT_EDn
FNDA:0,_ZSteqIKNSt8__detail4_NFAISt12regex_traitsIcEEEEbRKSt10shared_ptrIT_EDn
FN:857,_ZSt15allocate_sharedINSt8__detail4_NFAISt12regex_traitsIcEEESaIS4_EJRKSt6localeRNSt15regex_constants18syntax_option_typeEEESt10shared_ptrIT_ERKT0_DpOT1_
FNDA:609,_ZSt15allocate_sharedINSt8__detail4_NFAISt12regex_traitsIcEEESaIS4_EJRKSt6localeRNSt15regex_constants18syntax_option_typeEEESt10shared_ptrIT_ERKT0_DpOT1_
FN:872,_ZSt11make_sharedINSt8__detail4_NFAISt12regex_traitsIcEEEJRKSt6localeRNSt15regex_constants18syntax_option_typeEEESt10shared_ptrIT_EDpOT0_
FNDA:609,_ZSt11make_sharedINSt8__detail4_NFAISt12regex_traitsIcEEEJRKSt6localeRNSt15regex_constants18syntax_option_typeEEESt10shared_ptrIT_EDpOT0_
FNF:5
FNH:4
DA:312,609
DA:313,609
DA:407,609
DA:408,609
DA:409,609
DA:442,0
DA:443,0
DA:857,609
DA:860,609
DA:872,609
DA:875,1218
DA:876,1827
LF:12
LH:10
end_of_record
SF:/usr/lib/gcc/x86_64-pc-msys/10.2.0/include/c++/x86_64-pc-msys/bits/gthr-default.h
FN:300,_ZL18__gthread_active_pv
FNDA:1210,_ZL18__gthread_active_pv
FNF:1
FNH:1
DA:300,1210
DA:302,1210
LF:2
LH:2
end_of_record
SF:/usr/lib/gcc/x86_64-pc-msys/10.2.0/include/c++/bits/unique_ptr.h
FN:116,_ZNKSt14default_deleteIA_bEclIbEENSt9enable_ifIXsrSt14is_convertibleIPA_T_PS0_E5valueEvE4typeEPS5_
FNDA:0,_ZNKSt14default_deleteIA_bEclIbEENSt9enable_ifIXsrSt14is_convertibleIPA_T_PS0_E5valueEvE4typeEPS5_
FN:155,_ZNSt15__uniq_ptr_implIbSt14default_deleteIA_bEEC2EPb
FNDA:0,_ZNSt15__uniq_ptr_implIbSt14default_deleteIA_bEEC2EPb
FN:172,_ZNSt15__uniq_ptr_implIbSt14default_deleteIA_bEE6_M_ptrEv
FNDA:0,_ZNSt15__uniq_ptr_implIbSt14default_deleteIA_bEE6_M_ptrEv
FN:173,_ZNKSt15__uniq_ptr_implIbSt14default_deleteIA_bEE6_M_ptrEv
FNDA:0,_ZNKSt15__uniq_ptr_implIbSt14default_deleteIA_bEE6_M_ptrEv
FN:174,_ZNSt15__uniq_ptr_implIbSt14default_deleteIA_bEE10_M_deleterEv
FNDA:0,_ZNSt15__uniq_ptr_implIbSt14default_deleteIA_bEE10_M_deleterEv
FN:547,_ZNSt10unique_ptrIA_bSt14default_deleteIS0_EEC1IPbS2_vbEET_
FNDA:0,_ZNSt10unique_ptrIA_bSt14default_deleteIS0_EEC1IPbS2_vbEET_
FN:608,_ZNSt10unique_ptrIA_bSt14default_deleteIS0_EED1Ev
FNDA:0,_ZNSt10unique_ptrIA_bSt14default_deleteIS0_EED1Ev
FN:657,_ZNKSt10unique_ptrIA_bSt14default_deleteIS0_EEixEm
FNDA:0,_ZNKSt10unique_ptrIA_bSt14default_deleteIS0_EEixEm
FN:665,_ZNKSt10unique_ptrIA_bSt14default_deleteIS0_EE3getEv
FNDA:0,_ZNKSt10unique_ptrIA_bSt14default_deleteIS0_EE3getEv
FN:670,_ZNSt10unique_ptrIA_bSt14default_deleteIS0_EE11get_deleterEv
FNDA:0,_ZNSt10unique_ptrIA_bSt14default_deleteIS0_EE11get_deleterEv
FNF:10
FNH:0
DA:116,0
DA:120,0
DA:121,0
DA:155,0
DA:172,0
DA:173,0
DA:174,0
DA:547,0
DA:548,0
DA:549,0
DA:608,0
DA:610,0
DA:611,0
DA:612,0
DA:613,0
DA:614,0
DA:657,0
DA:660,0
DA:665,0
DA:666,0
DA:670,0
DA:671,0
LF:22
LH:0
end_of_record
SF:/usr/lib/gcc/x86_64-pc-msys/10.2.0/include/c++/bitset
FN:82,_ZNSt12_Base_bitsetILm4EEC2Ev
FNDA:621,_ZNSt12_Base_bitsetILm4EEC2Ev
FN:99,_ZNSt12_Base_bitsetILm4EE12_S_whichwordEm
FNDA:163851,_ZNSt12_Base_bitsetILm4EE12_S_whichwordEm
FN:107,_ZNSt12_Base_bitsetILm4EE11_S_whichbitEm
FNDA:322827,_ZNSt12_Base_bitsetILm4EE11_S_whichbitEm
FN:111,_ZNSt12_Base_bitsetILm4EE10_S_maskbitEm
FNDA:163851,_ZNSt12_Base_bitsetILm4EE10_S_maskbitEm
FN:115,_ZNSt12_Base_bitsetILm4EE10_M_getwordEm
FNDA:158976,_ZNSt12_Base_bitsetILm4EE10_M_getwordEm
FN:119,_ZNKSt12_Base_bitsetILm4EE10_M_getwordEm
FNDA:4875,_ZNKSt12_Base_bitsetILm4EE10_M_getwordEm
FN:813,_ZNSt6bitsetILm256EE9referenceC1ERS0_m
FNDA:158976,_ZNSt6bitsetILm256EE9referenceC1ERS0_m
FN:823,_ZNSt6bitsetILm256EE9referenceD1Ev
FNDA:158976,_ZNSt6bitsetILm256EE9referenceD1Ev
FN:828,_ZNSt6bitsetILm256EE9referenceaSEb
FNDA:158976,_ZNSt6bitsetILm256EE9referenceaSEb
FN:869,_ZNSt6bitsetILm256EEC1Ev
FNDA:621,_ZNSt6bitsetILm256EEC1Ev
FN:1065,_ZNKSt6bitsetILm256EE15_Unchecked_testEm
FNDA:4875,_ZNKSt6bitsetILm256EE15_Unchecked_testEm
FN:1163,_ZNSt6bitsetILm256EEixEm
FNDA:158976,_ZNSt6bitsetILm256EEixEm
FN:1167,_ZNKSt6bitsetILm256EEixEm
FNDA:4875,_ZNKSt6bitsetILm256EEixEm
FN:1300,_ZNKSt6bitsetILm256EE4sizeEv
FNDA:159597,_ZNKSt6bitsetILm256EE4sizeEv
FNF:14
FNH:14
DA:82,621
DA:83,3105
DA:99,163851
DA:100,163851
DA:107,322827
DA:108,322827
DA:111,163851
DA:112,163851
DA:115,158976
DA:116,158976
DA:119,4875
DA:120,4875
DA:813,158976
DA:815,158976
DA:816,158976
DA:817,158976
DA:823,158976
DA:824,158976
DA:828,158976
DA:830,158976
DA:831,4034
DA:833,154942
DA:834,158976
DA:869,621
DA:870,621
DA:1065,4875
DA:1066,4875
DA:1067,4875
DA:1163,158976
DA:1164,158976
DA:1167,4875
DA:1168,4875
DA:1300,159597
DA:1301,159597
LF:34
LH:34
end_of_record
SF:/usr/lib/gcc/x86_64-pc-msys/10.2.0/include/c++/new
FN:174,_ZnwmPv
FNDA:0,_ZnwmPv
FN:180,_ZdlPvS_
FNDA:0,_ZdlPvS_
FNF:2
FNH:0
DA:174,0
DA:175,0
DA:180,0
LF:3
LH:0
end_of_record
SF:/usr/lib/gcc/x86_64-pc-msys/10.2.0/include/c++/bits/basic_string.tcc
FN:565,_ZNSs12_S_constructIN9__gnu_cxx17__normal_iteratorIPcSsEEEES2_T_S4_RKSaIcESt20forward_iterator_tag
FNDA:0,_ZNSs12_S_constructIN9__gnu_cxx17__normal_iteratorIPcSsEEEES2_T_S4_RKSaIcESt20forward_iterator_tag
FN:565,_ZNSs12_S_constructIPcEES0_T_S1_RKSaIcESt20forward_iterator_tag
FNDA:155194,_ZNSs12_S_constructIPcEES0_T_S1_RKSaIcESt20forward_iterator_tag
FN:679,_ZNSsC1IN9__gnu_cxx17__normal_iteratorIPcSsEEEET_S4_RKSaIcE
FNDA:0,_ZNSsC1IN9__gnu_cxx17__normal_iteratorIPcSsEEEET_S4_RKSaIcE
FN:679,_ZNSsC1IPcEET_S1_RKSaIcE
FNDA:155194,_ZNSsC1IPcEET_S1_RKSaIcE
FNF:4
FNH:2
DA:565,0
DA:570,0
DA:571,0
DA:574,0
DA:575,0
DA:577,0
DA:580,0
DA:582,0
DA:588,0
DA:589,0
DA:565,155194
DA:570,155194
DA:571,0
DA:574,155194
DA:575,0
DA:577,155194
DA:580,155194
DA:582,155194
DA:588,155194
DA:589,155194
DA:679,0
DA:681,0
DA:682,0
DA:679,155194
DA:681,155194
DA:682,155194
LF:26
LH:11
end_of_record
SF:/usr/lib/gcc/x86_64-pc-msys/10.2.0/include/c++/bits/locale_facets.h
FN:802,_ZNKSt5ctypeIcE7toupperEc
FNDA:0,_ZNKSt5ctypeIcE7toupperEc
FN:835,_ZNKSt5ctypeIcE7tolowerEc
FNDA:0,_ZNKSt5ctypeIcE7tolowerEc
FN:852,_ZNKSt5ctypeIcE7tolowerEPcPKc
FNDA:155194,_ZNKSt5ctypeIcE7tolowerEPcPKc
FN:872,_ZNKSt5ctypeIcE5widenEc
FNDA:0,_ZNKSt5ctypeIcE5widenEc
FN:931,_ZNKSt5ctypeIcE6narrowEcc
FNDA:0,_ZNKSt5ctypeIcE6narrowEcc
FNF:5
FNH:1
DA:802,0
DA:803,0
DA:835,0
DA:836,0
DA:852,155194
DA:853,155194
DA:872,0
DA:874,0
DA:875,0
DA:876,0
DA:877,0
DA:931,0
DA:933,0
DA:934,0
DA:935,0
DA:936,0
DA:937,0
DA:938,0
LF:18
LH:2
end_of_record
SF:/usr/lib/gcc/x86_64-pc-msys/10.2.0/include/c++/x86_64-pc-msys/bits/ctype_inline.h
FN:42,_ZNKSt5ctypeIcE2isEcc
FNDA:0,_ZNKSt5ctypeIcE2isEcc
FNF:1
FNH:0
DA:42,0
DA:44,0
LF:2
LH:0
end_of_record
SF:/usr/lib/gcc/x86_64-pc-msys/10.2.0/include/c++/bits/stl_set.h
FN:167,_ZNSt3setISsSt4lessISsESaISsEEC1Ev
FNDA:6,_ZNSt3setISsSt4lessISsESaISsEEC1Ev
FN:281,_ZNSt3setISsSt4lessISsESaISsEED1Ev
FNDA:6,_ZNSt3setISsSt4lessISsESaISsEED1Ev
FN:419,_ZNKSt3setISsSt4lessISsESaISsEE4sizeEv
FNDA:5,_ZNKSt3setISsSt4lessISsESaISsEE4sizeEv
FN:509,_ZNSt3setISsSt4lessISsESaISsEE6insertERKSs
FNDA:36,_ZNSt3setISsSt4lessISsESaISsEE6insertERKSs
FNF:4
FNH:4
DA:167,6
DA:281,6
DA:419,5
DA:420,5
DA:509,36
DA:512,36
DA:513,72
LF:7
LH:7
end_of_record
SF:/usr/lib/gcc/x86_64-pc-msys/10.2.0/include/c++/bits/regex_scanner.tcc
FN:56,_ZNSt8__detail8_ScannerIcEC1EPKcS3_NSt15regex_constants18syntax_option_typeESt6locale
FNDA:609,_ZNSt8__detail8_ScannerIcEC1EPKcS3_NSt15regex_constants18syntax_option_typeESt6locale
FN:70,_ZNSt8__detail8_ScannerIcE10_M_advanceEv
FNDA:3157,_ZNSt8__detail8_ScannerIcE10_M_advanceEv
FN:96,_ZNSt8__detail8_ScannerIcE14_M_scan_normalEv
FNDA:1895,_ZNSt8__detail8_ScannerIcE14_M_scan_normalEv
FN:203,_ZNSt8__detail8_ScannerIcE18_M_scan_in_bracketEv
FNDA:40,_ZNSt8__detail8_ScannerIcE18_M_scan_in_bracketEv
FN:265,_ZNSt8__detail8_ScannerIcE16_M_scan_in_braceEv
FNDA:4,_ZNSt8__detail8_ScannerIcE16_M_scan_in_braceEv
FN:310,_ZNSt8__detail8_ScannerIcE18_M_eat_escape_ecmaEv
FNDA:621,_ZNSt8__detail8_ScannerIcE18_M_eat_escape_ecmaEv
FN:389,_ZNSt8__detail8_ScannerIcE19_M_eat_escape_posixEv
FNDA:0,_ZNSt8__detail8_ScannerIcE19_M_eat_escape_posixEv
FN:431,_ZNSt8__detail8_ScannerIcE17_M_eat_escape_awkEv
FNDA:0,_ZNSt8__detail8_ScannerIcE17_M_eat_escape_awkEv
FN:469,_ZNSt8__detail8_ScannerIcE12_M_eat_classEc
FNDA:0,_ZNSt8__detail8_ScannerIcE12_M_eat_classEc
FNF:9
FNH:6
DA:56,609
DA:62,1218
DA:63,609
DA:65,1218
DA:66,609
DA:70,3157
DA:73,3157
DA:75,1218
DA:76,1218
DA:79,1939
DA:80,1895
DA:81,44
DA:82,40
DA:83,4
DA:84,4
DA:96,1895
DA:99,1895
DA:101,1895
DA:103,12
DA:104,12
DA:105,12
DA:107,1883
DA:109,615
DA:110,0
DA:114,615
DA:115,615
DA:116,0
DA:117,0
DA:119,615
DA:120,615
DA:122,0
DA:124,1268
DA:126,6
DA:128,2
DA:129,0
DA:133,2
DA:135,2
DA:136,2
DA:138,0
DA:140,0
DA:141,0
DA:142,0
DA:144,0
DA:146,0
DA:147,0
DA:148,0
DA:151,0
DA:155,4
DA:156,0
DA:158,4
DA:160,1262
DA:161,6
DA:162,1256
DA:164,9
DA:165,9
DA:166,9
DA:168,1
DA:169,1
DA:172,8
DA:174,1247
DA:176,2
DA:177,2
DA:179,1245
DA:181,1245
DA:182,1245
DA:183,3491
DA:184,3491
DA:186,1245
DA:187,1245
DA:189,0
DA:193,0
DA:194,0
DA:203,40
DA:206,40
DA:207,0
DA:211,40
DA:213,40
DA:214,6
DA:215,34
DA:217,0
DA:218,0
DA:221,0
DA:223,0
DA:224,0
DA:226,0
DA:228,0
DA:229,0
DA:231,0
DA:233,0
DA:234,0
DA:238,0
DA:239,0
DA:245,34
DA:247,9
DA:248,9
DA:251,25
DA:252,6
DA:255,19
DA:256,19
DA:258,40
DA:259,40
DA:265,4
DA:268,4
DA:269,0
DA:273,4
DA:275,4
DA:277,2
DA:278,2
DA:279,0
DA:280,2
DA:281,0
DA:283,2
DA:284,0
DA:286,2
DA:288,0
DA:290,0
DA:291,0
DA:292,0
DA:295,0
DA:298,2
DA:300,2
DA:301,2
DA:304,0
DA:306,4
DA:310,621
DA:313,621
DA:314,0
DA:317,621
DA:318,621
DA:320,621
DA:322,7
DA:323,7
DA:325,614
DA:327,0
DA:328,0
DA:330,614
DA:332,0
DA:333,0
DA:336,614
DA:337,614
DA:338,614
DA:339,1
DA:340,1
DA:341,1
DA:343,613
DA:344,613
DA:346,1
DA:348,0
DA:349,0
DA:352,0
DA:353,0
DA:355,1
DA:357,0
DA:358,0
DA:360,0
DA:361,0
DA:362,0
DA:365,0
DA:367,0
DA:370,1
DA:372,0
DA:373,0
DA:374,0
DA:375,0
DA:376,0
DA:380,1
DA:381,1
DA:383,621
DA:389,0
DA:392,0
DA:393,0
DA:396,0
DA:397,0
DA:399,0
DA:401,0
DA:402,0
DA:405,0
DA:407,0
DA:408,0
DA:410,0
DA:412,0
DA:413,0
DA:422,0
DA:423,0
DA:426,0
DA:431,0
DA:434,0
DA:435,0
DA:437,0
DA:439,0
DA:440,0
DA:443,0
DA:444,0
DA:445,0
DA:447,0
DA:448,0
DA:450,0
DA:451,0
DA:452,0
DA:453,0
DA:455,0
DA:456,0
DA:457,0
DA:460,0
DA:469,0
DA:472,0
DA:473,0
DA:474,0
DA:475,0
DA:476,0
DA:477,0
DA:479,0
DA:480,0
DA:483,0
DA:486,0
LF:215
LH:105
end_of_record
SF:/usr/lib/gcc/x86_64-pc-msys/10.2.0/include/c++/bits/stl_iterator_base_funcs.h
FN:98,_ZSt10__distanceIN9__gnu_cxx17__normal_iteratorIPcSsEEENSt15iterator_traitsIT_E15difference_typeES5_S5_St26random_access_iterator_tag
FNDA:0,_ZSt10__distanceIN9__gnu_cxx17__normal_iteratorIPcSsEEENSt15iterator_traitsIT_E15difference_typeES5_S5_St26random_access_iterator_tag
FN:98,_ZSt10__distanceIPKcENSt15iterator_traitsIT_E15difference_typeES3_S3_St26random_access_iterator_tag
FNDA:0,_ZSt10__distanceIPKcENSt15iterator_traitsIT_E15difference_typeES3_S3_St26random_access_iterator_tag
FN:98,_ZSt10__distanceIPKSsENSt15iterator_traitsIT_E15difference_typeES3_S3_St26random_access_iterator_tag
FNDA:0,_ZSt10__distanceIPKSsENSt15iterator_traitsIT_E15difference_typeES3_S3_St26random_access_iterator_tag
FN:98,_ZSt10__distanceIN9__gnu_cxx17__normal_iteratorIPKcSt6vectorIcSaIcEEEEENSt15iterator_traitsIT_E15difference_typeES9_S9_St26random_access_iterator_tag
FNDA:158976,_ZSt10__distanceIN9__gnu_cxx17__normal_iteratorIPKcSt6vectorIcSaIcEEEEENSt15iterator_traitsIT_E15difference_typeES9_S9_St26random_access_iterator_tag
FN:98,_ZSt10__distanceIPcENSt15iterator_traitsIT_E15difference_typeES2_S2_St26random_access_iterator_tag
FNDA:155194,_ZSt10__distanceIPcENSt15iterator_traitsIT_E15difference_typeES2_S2_St26random_access_iterator_tag
FN:98,_ZSt10__distanceIN9__gnu_cxx17__normal_iteratorIPKcSsEEENSt15iterator_traitsIT_E15difference_typeES6_S6_St26random_access_iterator_tag
FNDA:882,_ZSt10__distanceIN9__gnu_cxx17__normal_iteratorIPKcSsEEENSt15iterator_traitsIT_E15difference_typeES6_S6_St26random_access_iterator_tag
FN:138,_ZSt8distanceIN9__gnu_cxx17__normal_iteratorIPcSsEEENSt15iterator_traitsIT_E15difference_typeES5_S5_
FNDA:0,_ZSt8distanceIN9__gnu_cxx17__normal_iteratorIPcSsEEENSt15iterator_traitsIT_E15difference_typeES5_S5_
FN:138,_ZSt8distanceIPKSsENSt15iterator_traitsIT_E15difference_typeES3_S3_
FNDA:0,_ZSt8distanceIPKSsENSt15iterator_traitsIT_E15difference_typeES3_S3_
FN:138,_ZSt8distanceIPcENSt15iterator_traitsIT_E15difference_typeES2_S2_
FNDA:155194,_ZSt8distanceIPcENSt15iterator_traitsIT_E15difference_typeES2_S2_
FN:138,_ZSt8distanceIN9__gnu_cxx17__normal_iteratorIPKcSsEEENSt15iterator_traitsIT_E15difference_typeES6_S6_
FNDA:882,_ZSt8distanceIN9__gnu_cxx17__normal_iteratorIPKcSsEEENSt15iterator_traitsIT_E15difference_typeES6_S6_
FN:138,_ZSt8distanceIN9__gnu_cxx17__normal_iteratorIPKcSt6vectorIcSaIcEEEEENSt15iterator_traitsIT_E15difference_typeES9_S9_
FNDA:158976,_ZSt8distanceIN9__gnu_cxx17__normal_iteratorIPKcSt6vectorIcSaIcEEEEENSt15iterator_traitsIT_E15difference_typeES9_S9_
FN:138,_ZSt8distanceIPKcENSt15iterator_traitsIT_E15difference_typeES3_S3_
FNDA:0,_ZSt8distanceIPKcENSt15iterator_traitsIT_E15difference_typeES3_S3_
FN:174,_ZSt9__advanceIN9__gnu_cxx17__normal_iteratorIPKcSsEElEvRT_T0_St26random_access_iterator_tag
FNDA:0,_ZSt9__advanceIN9__gnu_cxx17__normal_iteratorIPKcSsEElEvRT_T0_St26random_access_iterator_tag
FN:174,_ZSt9__advanceIN9__gnu_cxx17__normal_iteratorIPKcSt6vectorIcSaIcEEEElEvRT_T0_St26random_access_iterator_tag
FNDA:2295,_ZSt9__advanceIN9__gnu_cxx17__normal_iteratorIPKcSt6vectorIcSaIcEEEElEvRT_T0_St26random_access_iterator_tag
FN:202,_ZSt7advanceIN9__gnu_cxx17__normal_iteratorIPKcSsEElEvRT_T0_
FNDA:0,_ZSt7advanceIN9__gnu_cxx17__normal_iteratorIPKcSsEElEvRT_T0_
FN:202,_ZSt7advanceIN9__gnu_cxx17__normal_iteratorIPKcSt6vectorIcSaIcEEEElEvRT_T0_
FNDA:2295,_ZSt7advanceIN9__gnu_cxx17__normal_iteratorIPKcSt6vectorIcSaIcEEEElEvRT_T0_
FN:224,_ZSt4prevIN9__gnu_cxx17__normal_iteratorIPKcSsEEET_S5_NSt15iterator_traitsIS5_E15difference_typeE
FNDA:0,_ZSt4prevIN9__gnu_cxx17__normal_iteratorIPKcSsEEET_S5_NSt15iterator_traitsIS5_E15difference_typeE
FNF:17
FNH:8
DA:98,0
DA:104,0
DA:98,0
DA:104,0
DA:98,158976
DA:104,158976
DA:98,882
DA:104,882
DA:98,155194
DA:104,155194
DA:98,0
DA:104,0
DA:138,0
DA:141,0
DA:142,0
DA:138,0
DA:141,0
DA:142,0
DA:138,158976
DA:141,158976
DA:142,317952
DA:138,882
DA:141,882
DA:142,1764
DA:138,155194
DA:141,155194
DA:142,310388
DA:138,0
DA:141,0
DA:142,0
DA:174,2295
DA:185,2295
DA:186,2295
DA:174,0
DA:185,0
DA:186,0
DA:202,2295
DA:205,2295
DA:206,2295
DA:207,2295
DA:202,0
DA:205,0
DA:206,0
DA:207,0
DA:224,0
DA:230,0
DA:231,0
LF:47
LH:22
end_of_record
SF:/usr/lib/gcc/x86_64-pc-msys/10.2.0/include/c++/bits/regex.tcc
FN:50,_ZNSt8__detail17__regex_algo_implIN9__gnu_cxx17__normal_iteratorIPKcSsEESaISt9sub_matchIS5_EEcSt12regex_traitsIcELNS_20_RegexExecutorPolicyE0ELb1EEEbT_SC_RSt13match_resultsISC_T0_ERKSt11basic_regexIT1_T2_ENSt15regex_constants15match_flag_typeE
FNDA:48,_ZNSt8__detail17__regex_algo_implIN9__gnu_cxx17__normal_iteratorIPKcSsEESaISt9sub_matchIS5_EEcSt12regex_traitsIcELNS_20_RegexExecutorPolicyE0ELb1EEEbT_SC_RSt13match_resultsISC_T0_ERKSt11basic_regexIT1_T2_ENSt15regex_constants15match_flag_typeE
FN:124,_ZNKSt12regex_traitsIcE18lookup_collatenameIPKcEESsT_S4_
FNDA:0,_ZNKSt12regex_traitsIcE18lookup_collatenameIPKcEESsT_S4_
FN:280,_ZNKSt12regex_traitsIcE16lookup_classnameIPKcEENS0_10_RegexMaskET_S5_b
FNDA:0,_ZNKSt12regex_traitsIcE16lookup_classnameIPKcEENS0_10_RegexMaskET_S5_b
FN:324,_ZNKSt12regex_traitsIcE7isctypeEcNS0_10_RegexMaskE
FNDA:0,_ZNKSt12regex_traitsIcE7isctypeEcNS0_10_RegexMaskE
FN:338,_ZNKSt12regex_traitsIcE5valueEci
FNDA:2,_ZNKSt12regex_traitsIcE5valueEci
FNF:5
FNH:2
DA:50,48
DA:56,48
DA:57,0
DA:59,48
DA:60,48
DA:61,48
DA:64,48
DA:65,48
DA:69,0
DA:71,0
DA:78,96
DA:80,48
DA:84,48
DA:86,180
DA:87,144
DA:88,108
DA:89,36
DA:90,36
DA:93,36
DA:94,36
DA:95,36
DA:96,36
DA:97,36
DA:98,36
DA:112,12
DA:114,48
DA:124,0
DA:128,0
DA:262,0
DA:263,0
DA:264,0
DA:266,0
DA:267,0
DA:268,0
DA:269,0
DA:274,0
DA:280,0
DA:284,0
DA:306,0
DA:307,0
DA:308,0
DA:310,0
DA:311,0
DA:313,0
DA:314,0
DA:315,0
DA:316,0
DA:317,0
DA:319,0
DA:324,0
DA:328,0
DA:330,0
DA:332,0
DA:333,0
DA:338,2
DA:341,4
DA:343,2
DA:344,0
DA:345,2
DA:346,0
DA:347,2
DA:348,4
LF:62
LH:29
end_of_record
SF:/usr/lib/gcc/x86_64-pc-msys/10.2.0/include/c++/bits/regex_scanner.h
FN:91,_ZNSt8__detail12_ScannerBaseC2ENSt15regex_constants18syntax_option_typeE
FNDA:609,_ZNSt8__detail12_ScannerBaseC2ENSt15regex_constants18syntax_option_typeE
FN:115,_ZNSt8__detail12_ScannerBase14_M_find_escapeEc
FNDA:621,_ZNSt8__detail12_ScannerBase14_M_find_escapeEc
FN:125,_ZNKSt8__detail12_ScannerBase10_M_is_ecmaEv
FNDA:1848,_ZNKSt8__detail12_ScannerBase10_M_is_ecmaEv
FN:129,_ZNKSt8__detail12_ScannerBase11_M_is_basicEv
FNDA:617,_ZNKSt8__detail12_ScannerBase11_M_is_basicEv
FN:145,_ZNKSt8__detail12_ScannerBase9_M_is_awkEv
FNDA:0,_ZNKSt8__detail12_ScannerBase9_M_is_awkEv
FN:226,_ZNKSt8__detail8_ScannerIcE12_M_get_tokenEv
FNDA:21374,_ZNKSt8__detail8_ScannerIcE12_M_get_tokenEv
FN:230,_ZNKSt8__detail8_ScannerIcE12_M_get_valueEv
FNDA:2548,_ZNKSt8__detail8_ScannerIcE12_M_get_valueEv
FNF:7
FNH:6
DA:91,609
DA:92,609
DA:94,609
DA:95,609
DA:97,609
DA:98,609
DA:99,0
DA:100,0
DA:101,0
DA:102,0
DA:103,0
DA:104,0
DA:105,0
DA:106,0
DA:107,0
DA:108,0
DA:110,1218
DA:111,609
DA:115,621
DA:117,621
DA:118,4942
DA:119,4328
DA:120,7
DA:121,614
DA:125,1848
DA:126,1848
DA:129,617
DA:130,617
DA:145,0
DA:146,0
DA:226,21374
DA:227,21374
DA:230,2548
DA:231,2548
LF:34
LH:22
end_of_record
SF:/usr/lib/gcc/x86_64-pc-msys/10.2.0/include/c++/bits/basic_string.h
FN:4427,_ZNSs6assignIiEERSsT_S1_
FNDA:0,_ZNSs6assignIiEERSsT_S1_
FN:4964,_ZNSs7replaceIiEERSsN9__gnu_cxx17__normal_iteratorIPcSsEES4_T_S5_
FNDA:0,_ZNSs7replaceIiEERSsN9__gnu_cxx17__normal_iteratorIPcSsEES4_T_S5_
FN:5096,_ZNSs19_M_replace_dispatchIiEERSsN9__gnu_cxx17__normal_iteratorIPcSsEES4_T_S5_St11__true_type
FNDA:0,_ZNSs19_M_replace_dispatchIiEERSsN9__gnu_cxx17__normal_iteratorIPcSsEES4_T_S5_St11__true_type
FN:5117,_ZNSs16_S_construct_auxIN9__gnu_cxx17__normal_iteratorIPcSsEEEES2_T_S4_RKSaIcESt12__false_type
FNDA:0,_ZNSs16_S_construct_auxIN9__gnu_cxx17__normal_iteratorIPcSsEEEES2_T_S4_RKSaIcESt12__false_type
FN:5117,_ZNSs16_S_construct_auxIPcEES0_T_S1_RKSaIcESt12__false_type
FNDA:155194,_ZNSs16_S_construct_auxIPcEES0_T_S1_RKSaIcESt12__false_type
FN:5139,_ZNSs12_S_constructIN9__gnu_cxx17__normal_iteratorIPcSsEEEES2_T_S4_RKSaIcE
FNDA:0,_ZNSs12_S_constructIN9__gnu_cxx17__normal_iteratorIPcSsEEEES2_T_S4_RKSaIcE
FN:5139,_ZNSs12_S_constructIPcEES0_T_S1_RKSaIcE
FNDA:155194,_ZNSs12_S_constructIPcEES0_T_S1_RKSaIcE
FN:6161,_ZSteqIcEN9__gnu_cxx11__enable_ifIXsrSt9__is_charIT_E7__valueEbE6__typeERKSbIS3_St11char_traitsIS3_ESaIS3_EESC_
FNDA:0,_ZSteqIcEN9__gnu_cxx11__enable_ifIXsrSt9__is_charIT_E7__valueEbE6__typeERKSbIS3_St11char_traitsIS3_ESaIS3_EESC_
FN:6175,_ZSteqIcSt11char_traitsIcESaIcEEbRKSbIT_T0_T1_EPKS3_
FNDA:0,_ZSteqIcSt11char_traitsIcESaIcEEbRKSbIT_T0_T1_EPKS3_
FN:6267,_ZStltIcSt11char_traitsIcESaIcEEbRKSbIT_T0_T1_ES8_
FNDA:102,_ZStltIcSt11char_traitsIcESaIcEEbRKSbIT_T0_T1_ES8_
FN:6343,_ZStleIcSt11char_traitsIcESaIcEEbRKSbIT_T0_T1_ES8_
FNDA:0,_ZStleIcSt11char_traitsIcESaIcEEbRKSbIT_T0_T1_ES8_
FN:6546,_ZSt4stoiRKSsPmi
FNDA:12,_ZSt4stoiRKSsPmi
FN:6576,_ZSt4stodRKSsPm
FNDA:6,_ZSt4stodRKSsPm
FNF:13
FNH:5
DA:3620,2
DA:3678,155194
DA:4427,0
DA:4428,0
DA:4964,0
DA:4971,0
DA:5096,0
DA:5098,0
DA:5117,0
DA:5121,0
DA:5117,155194
DA:5121,155194
DA:5139,0
DA:5142,0
DA:5139,155194
DA:5142,155194
DA:6161,0
DA:6163,0
DA:6164,0
DA:6165,0
DA:6175,0
DA:6177,0
DA:6267,102
DA:6270,102
DA:6343,0
DA:6346,0
DA:6546,12
DA:6547,12
DA:6548,12
DA:6576,6
DA:6577,6
LF:31
LH:13
end_of_record
SF:/usr/lib/gcc/x86_64-pc-msys/10.2.0/include/c++/bits/stl_stack.h
FN:162,_ZNSt5stackIlSt5dequeIlSaIlEEEC1IS2_vEEv
FNDA:6,_ZNSt5stackIlSt5dequeIlSaIlEEEC1IS2_vEEv
FN:162,_ZNSt5stackINSt8__detail9_StateSeqISt12regex_traitsIcEEESt5dequeIS4_SaIS4_EEEC1IS7_vEEv
FNDA:609,_ZNSt5stackINSt8__detail9_StateSeqISt12regex_traitsIcEEESt5dequeIS4_SaIS4_EEEC1IS7_vEEv
FN:199,_ZNKSt5stackIlSt5dequeIlSaIlEEE5emptyEv
FNDA:10,_ZNKSt5stackIlSt5dequeIlSaIlEEE5emptyEv
FN:199,_ZNKSt5stackINSt8__detail9_StateSeqISt12regex_traitsIcEEESt5dequeIS4_SaIS4_EEE5emptyEv
FNDA:631,_ZNKSt5stackINSt8__detail9_StateSeqISt12regex_traitsIcEEESt5dequeIS4_SaIS4_EEE5emptyEv
FN:212,_ZNSt5stackIlSt5dequeIlSaIlEEE3topEv
FNDA:4,_ZNSt5stackIlSt5dequeIlSaIlEEE3topEv
FN:212,_ZNSt5stackINSt8__detail9_StateSeqISt12regex_traitsIcEEESt5dequeIS4_SaIS4_EEE3topEv
FNDA:3762,_ZNSt5stackINSt8__detail9_StateSeqISt12regex_traitsIcEEESt5dequeIS4_SaIS4_EEE3topEv
FN:239,_ZNSt5stackIlSt5dequeIlSaIlEEE4pushERKl
FNDA:4,_ZNSt5stackIlSt5dequeIlSaIlEEE4pushERKl
FN:239,_ZNSt5stackINSt8__detail9_StateSeqISt12regex_traitsIcEEESt5dequeIS4_SaIS4_EEE4pushERKS4_
FNDA:1889,_ZNSt5stackINSt8__detail9_StateSeqISt12regex_traitsIcEEESt5dequeIS4_SaIS4_EEE4pushERKS4_
FN:244,_ZNSt5stackINSt8__detail9_StateSeqISt12regex_traitsIcEEESt5dequeIS4_SaIS4_EEE4pushEOS4_
FNDA:1873,_ZNSt5stackINSt8__detail9_StateSeqISt12regex_traitsIcEEESt5dequeIS4_SaIS4_EEE4pushEOS4_
FN:272,_ZNSt5stackIlSt5dequeIlSaIlEEE3popEv
FNDA:4,_ZNSt5stackIlSt5dequeIlSaIlEEE3popEv
FN:272,_ZNSt5stackINSt8__detail9_StateSeqISt12regex_traitsIcEEESt5dequeIS4_SaIS4_EEE3popEv
FNDA:3762,_ZNSt5stackINSt8__detail9_StateSeqISt12regex_traitsIcEEESt5dequeIS4_SaIS4_EEE3popEv
FNF:11
FNH:11
DA:162,6
DA:163,6
DA:162,609
DA:163,609
DA:199,10
DA:200,10
DA:199,631
DA:200,631
DA:212,4
DA:215,4
DA:212,3762
DA:215,3762
DA:239,4
DA:240,4
DA:239,1889
DA:240,1889
DA:244,1873
DA:245,1873
DA:272,4
DA:275,4
DA:276,4
DA:272,3762
DA:275,3762
DA:276,3762
LF:24
LH:24
end_of_record
SF:/usr/lib/gcc/x86_64-pc-msys/10.2.0/include/c++/bits/regex_executor.h
FN:69,_ZNSt8__detail9_ExecutorIN9__gnu_cxx17__normal_iteratorIPKcSsEESaISt9sub_matchIS5_EESt12regex_traitsIcELb0EEC1ES5_S5_RSt6vectorIS7_S8_ERKSt11basic_regexIcSA_ENSt15regex_constants15match_flag_typeE
FNDA:0,_ZNSt8__detail9_ExecutorIN9__gnu_cxx17__normal_iteratorIPKcSsEESaISt9sub_matchIS5_EESt12regex_traitsIcELb0EEC1ES5_S5_RSt6vectorIS7_S8_ERKSt11basic_regexIcSA_ENSt15regex_constants15match_flag_typeE
FN:69,_ZNSt8__detail9_ExecutorIN9__gnu_cxx17__normal_iteratorIPKcSsEESaISt9sub_matchIS5_EESt12regex_traitsIcELb1EEC1ES5_S5_RSt6vectorIS7_S8_ERKSt11basic_regexIcSA_ENSt15regex_constants15match_flag_typeE
FNDA:2726,_ZNSt8__detail9_ExecutorIN9__gnu_cxx17__normal_iteratorIPKcSsEESaISt9sub_matchIS5_EESt12regex_traitsIcELb1EEC1ES5_S5_RSt6vectorIS7_S8_ERKSt11basic_regexIcSA_ENSt15regex_constants15match_flag_typeE
FN:90,_ZNSt8__detail9_ExecutorIN9__gnu_cxx17__normal_iteratorIPKcSsEESaISt9sub_matchIS5_EESt12regex_traitsIcELb0EE8_M_matchEv
FNDA:0,_ZNSt8__detail9_ExecutorIN9__gnu_cxx17__normal_iteratorIPKcSsEESaISt9sub_matchIS5_EESt12regex_traitsIcELb0EE8_M_matchEv
FN:90,_ZNSt8__detail9_ExecutorIN9__gnu_cxx17__normal_iteratorIPKcSsEESaISt9sub_matchIS5_EESt12regex_traitsIcELb1EE8_M_matchEv
FNDA:48,_ZNSt8__detail9_ExecutorIN9__gnu_cxx17__normal_iteratorIPKcSsEESaISt9sub_matchIS5_EESt12regex_traitsIcELb1EE8_M_matchEv
FN:98,_ZNSt8__detail9_ExecutorIN9__gnu_cxx17__normal_iteratorIPKcSsEESaISt9sub_matchIS5_EESt12regex_traitsIcELb1EE20_M_search_from_firstEv
FNDA:21692,_ZNSt8__detail9_ExecutorIN9__gnu_cxx17__normal_iteratorIPKcSsEESaISt9sub_matchIS5_EESt12regex_traitsIcELb1EE20_M_search_from_firstEv
FN:98,_ZNSt8__detail9_ExecutorIN9__gnu_cxx17__normal_iteratorIPKcSsEESaISt9sub_matchIS5_EESt12regex_traitsIcELb0EE20_M_search_from_firstEv
FNDA:0,_ZNSt8__detail9_ExecutorIN9__gnu_cxx17__normal_iteratorIPKcSsEESaISt9sub_matchIS5_EESt12regex_traitsIcELb0EE20_M_search_from_firstEv
FN:148,_ZNSt8__detail9_ExecutorIN9__gnu_cxx17__normal_iteratorIPKcSsEESaISt9sub_matchIS5_EESt12regex_traitsIcELb1EE7_M_mainENSB_11_Match_modeE
FNDA:21740,_ZNSt8__detail9_ExecutorIN9__gnu_cxx17__normal_iteratorIPKcSsEESaISt9sub_matchIS5_EESt12regex_traitsIcELb1EE7_M_mainENSB_11_Match_modeE
FN:148,_ZNSt8__detail9_ExecutorIN9__gnu_cxx17__normal_iteratorIPKcSsEESaISt9sub_matchIS5_EESt12regex_traitsIcELb0EE7_M_mainENSB_11_Match_modeE
FNDA:0,_ZNSt8__detail9_ExecutorIN9__gnu_cxx17__normal_iteratorIPKcSsEESaISt9sub_matchIS5_EESt12regex_traitsIcELb0EE7_M_mainENSB_11_Match_modeE
FN:158,_ZNKSt8__detail9_ExecutorIN9__gnu_cxx17__normal_iteratorIPKcSsEESaISt9sub_matchIS5_EESt12regex_traitsIcELb1EE10_M_is_wordEc
FNDA:0,_ZNKSt8__detail9_ExecutorIN9__gnu_cxx17__normal_iteratorIPKcSsEESaISt9sub_matchIS5_EESt12regex_traitsIcELb1EE10_M_is_wordEc
FN:158,_ZNKSt8__detail9_ExecutorIN9__gnu_cxx17__normal_iteratorIPKcSsEESaISt9sub_matchIS5_EESt12regex_traitsIcELb0EE10_M_is_wordEc
FNDA:0,_ZNKSt8__detail9_ExecutorIN9__gnu_cxx17__normal_iteratorIPKcSsEESaISt9sub_matchIS5_EESt12regex_traitsIcELb0EE10_M_is_wordEc
FN:166,_ZNKSt8__detail9_ExecutorIN9__gnu_cxx17__normal_iteratorIPKcSsEESaISt9sub_matchIS5_EESt12regex_traitsIcELb0EE11_M_at_beginEv
FNDA:0,_ZNKSt8__detail9_ExecutorIN9__gnu_cxx17__normal_iteratorIPKcSsEESaISt9sub_matchIS5_EESt12regex_traitsIcELb0EE11_M_at_beginEv
FN:166,_ZNKSt8__detail9_ExecutorIN9__gnu_cxx17__normal_iteratorIPKcSsEESaISt9sub_matchIS5_EESt12regex_traitsIcELb1EE11_M_at_beginEv
FNDA:20661,_ZNKSt8__detail9_ExecutorIN9__gnu_cxx17__normal_iteratorIPKcSsEESaISt9sub_matchIS5_EESt12regex_traitsIcELb1EE11_M_at_beginEv
FN:174,_ZNKSt8__detail9_ExecutorIN9__gnu_cxx17__normal_iteratorIPKcSsEESaISt9sub_matchIS5_EESt12regex_traitsIcELb0EE9_M_at_endEv
FNDA:0,_ZNKSt8__detail9_ExecutorIN9__gnu_cxx17__normal_iteratorIPKcSsEESaISt9sub_matchIS5_EESt12regex_traitsIcELb0EE9_M_at_endEv
FN:174,_ZNKSt8__detail9_ExecutorIN9__gnu_cxx17__normal_iteratorIPKcSsEESaISt9sub_matchIS5_EESt12regex_traitsIcELb1EE9_M_at_endEv
FNDA:1041,_ZNKSt8__detail9_ExecutorIN9__gnu_cxx17__normal_iteratorIPKcSsEESaISt9sub_matchIS5_EESt12regex_traitsIcELb1EE9_M_at_endEv
FN:194,_ZNSt8__detail9_ExecutorIN9__gnu_cxx17__normal_iteratorIPKcSsEESaISt9sub_matchIS5_EESt12regex_traitsIcELb0EE11_State_infoISt17integral_constantIbLb0EESt6vectorIS7_S8_EEC1Elm
FNDA:0,_ZNSt8__detail9_ExecutorIN9__gnu_cxx17__normal_iteratorIPKcSsEESaISt9sub_matchIS5_EESt12regex_traitsIcELb0EE11_State_infoISt17integral_constantIbLb0EESt6vectorIS7_S8_EEC1Elm
FN:198,_ZNSt8__detail9_ExecutorIN9__gnu_cxx17__normal_iteratorIPKcSsEESaISt9sub_matchIS5_EESt12regex_traitsIcELb0EE11_State_infoISt17integral_constantIbLb0EESt6vectorIS7_S8_EE10_M_visitedEl
FNDA:0,_ZNSt8__detail9_ExecutorIN9__gnu_cxx17__normal_iteratorIPKcSsEESaISt9sub_matchIS5_EESt12regex_traitsIcELb0EE11_State_infoISt17integral_constantIbLb0EESt6vectorIS7_S8_EE10_M_visitedEl
FN:206,_ZNSt8__detail9_ExecutorIN9__gnu_cxx17__normal_iteratorIPKcSsEESaISt9sub_matchIS5_EESt12regex_traitsIcELb0EE11_State_infoISt17integral_constantIbLb0EESt6vectorIS7_S8_EE8_M_queueElRKSG_
FNDA:0,_ZNSt8__detail9_ExecutorIN9__gnu_cxx17__normal_iteratorIPKcSsEESaISt9sub_matchIS5_EESt12regex_traitsIcELb0EE11_State_infoISt17integral_constantIbLb0EESt6vectorIS7_S8_EE8_M_queueElRKSG_
FN:224,_ZNSt8__detail9_ExecutorIN9__gnu_cxx17__normal_iteratorIPKcSsEESaISt9sub_matchIS5_EESt12regex_traitsIcELb1EE11_State_infoISt17integral_constantIbLb1EESt6vectorIS7_S8_EEC1Elm
FNDA:2726,_ZNSt8__detail9_ExecutorIN9__gnu_cxx17__normal_iteratorIPKcSsEESaISt9sub_matchIS5_EESt12regex_traitsIcELb1EE11_State_infoISt17integral_constantIbLb1EESt6vectorIS7_S8_EEC1Elm
FN:228,_ZNKSt8__detail9_ExecutorIN9__gnu_cxx17__normal_iteratorIPKcSsEESaISt9sub_matchIS5_EESt12regex_traitsIcELb1EE11_State_infoISt17integral_constantIbLb1EESt6vectorIS7_S8_EE10_M_visitedEl
FNDA:70776,_ZNKSt8__detail9_ExecutorIN9__gnu_cxx17__normal_iteratorIPKcSsEESaISt9sub_matchIS5_EESt12regex_traitsIcELb1EE11_State_infoISt17integral_constantIbLb1EESt6vectorIS7_S8_EE10_M_visitedEl
FN:231,_ZNSt8__detail9_ExecutorIN9__gnu_cxx17__normal_iteratorIPKcSsEESaISt9sub_matchIS5_EESt12regex_traitsIcELb1EE11_State_infoISt17integral_constantIbLb1EESt6vectorIS7_S8_EE14_M_get_sol_posEv
FNDA:21740,_ZNSt8__detail9_ExecutorIN9__gnu_cxx17__normal_iteratorIPKcSsEESaISt9sub_matchIS5_EESt12regex_traitsIcELb1EE11_State_infoISt17integral_constantIbLb1EESt6vectorIS7_S8_EE14_M_get_sol_posEv
FNF:20
FNH:9
DA:69,2726
DA:77,2726
DA:79,2726
DA:80,5452
DA:81,2726
DA:82,2726
DA:84,335
DA:85,5452
DA:86,2726
DA:69,0
DA:77,0
DA:79,0
DA:80,0
DA:81,0
DA:82,0
DA:84,0
DA:85,0
DA:86,0
DA:90,48
DA:92,48
DA:93,48
DA:90,0
DA:92,0
DA:93,0
DA:98,21692
DA:100,21692
DA:101,21692
DA:98,0
DA:100,0
DA:101,0
DA:148,21740
DA:149,21740
DA:148,0
DA:149,0
DA:158,0
DA:161,0
DA:162,0
DA:158,0
DA:161,0
DA:162,0
DA:166,20661
DA:168,20661
DA:169,20661
DA:170,20661
DA:166,0
DA:168,0
DA:169,0
DA:170,0
DA:174,1041
DA:176,1041
DA:177,1041
DA:174,0
DA:176,0
DA:177,0
DA:194,0
DA:195,0
DA:196,0
DA:198,0
DA:200,0
DA:201,0
DA:202,0
DA:203,0
DA:206,0
DA:207,0
DA:224,2726
DA:225,2726
DA:228,70776
DA:231,21740
LF:68
LH:28
end_of_record
SF:/usr/lib/gcc/x86_64-pc-msys/10.2.0/include/c++/bits/stl_vector.h
FN:97,_ZNSt12_Vector_baseINSt12regex_traitsIcE10_RegexMaskESaIS2_EE17_Vector_impl_dataC2Ev
FNDA:1558,_ZNSt12_Vector_baseINSt12regex_traitsIcE10_RegexMaskESaIS2_EE17_Vector_impl_dataC2Ev
FN:97,_ZNSt12_Vector_baseI8DataTypeSaIS0_EE17_Vector_impl_dataC2Ev
FNDA:1,_ZNSt12_Vector_baseI8DataTypeSaIS0_EE17_Vector_impl_dataC2Ev
FN:97,_ZNSt12_Vector_baseImSaImEE17_Vector_impl_dataC2Ev
FNDA:609,_ZNSt12_Vector_baseImSaImEE17_Vector_impl_dataC2Ev
FN:97,_ZNSt12_Vector_baseISt4pairIccESaIS1_EE17_Vector_impl_dataC2Ev
FNDA:1558,_ZNSt12_Vector_baseISt4pairIccESaIS1_EE17_Vector_impl_dataC2Ev
FN:97,_ZNSt12_Vector_baseINSt8__detail6_StateIcEESaIS2_EE17_Vector_impl_dataC2Ev
FNDA:609,_ZNSt12_Vector_baseINSt8__detail6_StateIcEESaIS2_EE17_Vector_impl_dataC2Ev
FN:97,_ZNSt12_Vector_baseISt6vectorISsSaISsEESaIS2_EE17_Vector_impl_dataC2Ev
FNDA:0,_ZNSt12_Vector_baseISt6vectorISsSaISsEESaIS2_EE17_Vector_impl_dataC2Ev
FN:97,_ZNSt12_Vector_baseIcSaIcEE17_Vector_impl_dataC2Ev
FNDA:156752,_ZNSt12_Vector_baseIcSaIcEE17_Vector_impl_dataC2Ev
FN:97,_ZNSt12_Vector_baseISt6vectorIdSaIdEESaIS2_EE17_Vector_impl_dataC2Ev
FNDA:0,_ZNSt12_Vector_baseISt6vectorIdSaIdEESaIS2_EE17_Vector_impl_dataC2Ev
FN:97,_ZNSt12_Vector_baseISt4pairIlSt6vectorISt9sub_matchIN9__gnu_cxx17__normal_iteratorIPKcSsEEESaIS8_EEESaISB_EE17_Vector_impl_dataC2Ev
FNDA:0,_ZNSt12_Vector_baseISt4pairIlSt6vectorISt9sub_matchIN9__gnu_cxx17__normal_iteratorIPKcSsEEESaIS8_EEESaISB_EE17_Vector_impl_dataC2Ev
FN:97,_ZNSt12_Vector_baseISt4pairIN9__gnu_cxx17__normal_iteratorIPKcSsEEiESaIS6_EE17_Vector_impl_dataC2Ev
FNDA:2726,_ZNSt12_Vector_baseISt4pairIN9__gnu_cxx17__normal_iteratorIPKcSsEEiESaIS6_EE17_Vector_impl_dataC2Ev
FN:97,_ZNSt12_Vector_baseISsSaISsEE17_Vector_impl_dataC2Ev
FNDA:0,_ZNSt12_Vector_baseISsSaISsEE17_Vector_impl_dataC2Ev
FN:97,_ZNSt12_Vector_baseISt9sub_matchIN9__gnu_cxx17__normal_iteratorIPKcSsEEESaIS6_EE17_Vector_impl_dataC1Ev
FNDA:1520,_ZNSt12_Vector_baseISt9sub_matchIN9__gnu_cxx17__normal_iteratorIPKcSsEEESaIS6_EE17_Vector_impl_dataC1Ev
FN:97,_ZNSt12_Vector_baseIdSaIdEE17_Vector_impl_dataC2Ev
FNDA:0,_ZNSt12_Vector_baseIdSaIdEE17_Vector_impl_dataC2Ev
FN:97,_ZNSt12_Vector_baseISt9sub_matchIN9__gnu_cxx17__normal_iteratorIPKcSsEEESaIS6_EE17_Vector_impl_dataC2Ev
FNDA:6674,_ZNSt12_Vector_baseISt9sub_matchIN9__gnu_cxx17__normal_iteratorIPKcSsEEESaIS6_EE17_Vector_impl_dataC2Ev
FN:97,_ZNSt12_Vector_baseIiSaIiEE17_Vector_impl_dataC2Ev
FNDA:0,_ZNSt12_Vector_baseIiSaIiEE17_Vector_impl_dataC2Ev
FN:97,_ZNSt12_Vector_baseISt4pairISsSsESaIS1_EE17_Vector_impl_dataC2Ev
FNDA:0,_ZNSt12_Vector_baseISt4pairISsSsESaIS1_EE17_Vector_impl_dataC2Ev
FN:102,_ZNSt12_Vector_baseIcSaIcEE17_Vector_impl_dataC2EOS2_
FNDA:1242,_ZNSt12_Vector_baseIcSaIcEE17_Vector_impl_dataC2EOS2_
FN:102,_ZNSt12_Vector_baseISt4pairIlSt6vectorISt9sub_matchIN9__gnu_cxx17__normal_iteratorIPKcSsEEESaIS8_EEESaISB_EE17_Vector_impl_dataC2EOSE_
FNDA:0,_ZNSt12_Vector_baseISt4pairIlSt6vectorISt9sub_matchIN9__gnu_cxx17__normal_iteratorIPKcSsEEESaIS8_EEESaISB_EE17_Vector_impl_dataC2EOSE_
FN:102,_ZNSt12_Vector_baseISt4pairISsSsESaIS1_EE17_Vector_impl_dataC2EOS4_
FNDA:0,_ZNSt12_Vector_baseISt4pairISsSsESaIS1_EE17_Vector_impl_dataC2EOS4_
FN:102,_ZNSt12_Vector_baseIdSaIdEE17_Vector_impl_dataC2EOS2_
FNDA:45,_ZNSt12_Vector_baseIdSaIdEE17_Vector_impl_dataC2EOS2_
FN:102,_ZNSt12_Vector_baseINSt12regex_traitsIcE10_RegexMaskESaIS2_EE17_Vector_impl_dataC2EOS5_
FNDA:1242,_ZNSt12_Vector_baseINSt12regex_traitsIcE10_RegexMaskESaIS2_EE17_Vector_impl_dataC2EOS5_
FN:102,_ZNSt12_Vector_baseISsSaISsEE17_Vector_impl_dataC2EOS2_
FNDA:0,_ZNSt12_Vector_baseISsSaISsEE17_Vector_impl_dataC2EOS2_
FN:102,_ZNSt12_Vector_baseISt4pairIccESaIS1_EE17_Vector_impl_dataC2EOS4_
FNDA:1242,_ZNSt12_Vector_baseISt4pairIccESaIS1_EE17_Vector_impl_dataC2EOS4_
FN:102,_ZNSt12_Vector_baseISt9sub_matchIN9__gnu_cxx17__normal_iteratorIPKcSsEEESaIS6_EE17_Vector_impl_dataC2EOS9_
FNDA:0,_ZNSt12_Vector_baseISt9sub_matchIN9__gnu_cxx17__normal_iteratorIPKcSsEEESaIS6_EE17_Vector_impl_dataC2EOS9_
FN:109,_ZNSt12_Vector_baseISt9sub_matchIN9__gnu_cxx17__normal_iteratorIPKcSsEEESaIS6_EE17_Vector_impl_data12_M_copy_dataERKS9_
FNDA:4560,_ZNSt12_Vector_baseISt9sub_matchIN9__gnu_cxx17__normal_iteratorIPKcSsEEESaIS6_EE17_Vector_impl_data12_M_copy_dataERKS9_
FN:117,_ZNSt12_Vector_baseISt9sub_matchIN9__gnu_cxx17__normal_iteratorIPKcSsEEESaIS6_EE17_Vector_impl_data12_M_swap_dataERS9_
FNDA:1520,_ZNSt12_Vector_baseISt9sub_matchIN9__gnu_cxx17__normal_iteratorIPKcSsEEESaIS6_EE17_Vector_impl_data12_M_swap_dataERS9_
FN:131,_ZNSt12_Vector_baseISt4pairISsSsESaIS1_EE12_Vector_implC1Ev
FNDA:0,_ZNSt12_Vector_baseISt4pairISsSsESaIS1_EE12_Vector_implC1Ev
FN:131,_ZNSt12_Vector_baseISsSaISsEE12_Vector_implC1Ev
FNDA:0,_ZNSt12_Vector_baseISsSaISsEE12_Vector_implC1Ev
FN:131,_ZNSt12_Vector_baseImSaImEE12_Vector_implC1Ev
FNDA:609,_ZNSt12_Vector_baseImSaImEE12_Vector_implC1Ev
FN:131,_ZNSt12_Vector_baseI8DataTypeSaIS0_EE12_Vector_implC1Ev
FNDA:1,_ZNSt12_Vector_baseI8DataTypeSaIS0_EE12_Vector_implC1Ev
FN:131,_ZNSt12_Vector_baseISt4pairIlSt6vectorISt9sub_matchIN9__gnu_cxx17__normal_iteratorIPKcSsEEESaIS8_EEESaISB_EE12_Vector_implC1Ev
FNDA:0,_ZNSt12_Vector_baseISt4pairIlSt6vectorISt9sub_matchIN9__gnu_cxx17__normal_iteratorIPKcSsEEESaIS8_EEESaISB_EE12_Vector_implC1Ev
FN:131,_ZNSt12_Vector_baseINSt8__detail6_StateIcEESaIS2_EE12_Vector_implC1Ev
FNDA:609,_ZNSt12_Vector_baseINSt8__detail6_StateIcEESaIS2_EE12_Vector_implC1Ev
FN:131,_ZNSt12_Vector_baseISt6vectorIdSaIdEESaIS2_EE12_Vector_implC1Ev
FNDA:5,_ZNSt12_Vector_baseISt6vectorIdSaIdEESaIS2_EE12_Vector_implC1Ev
FN:131,_ZNSt12_Vector_baseINSt12regex_traitsIcE10_RegexMaskESaIS2_EE12_Vector_implC1Ev
FNDA:621,_ZNSt12_Vector_baseINSt12regex_traitsIcE10_RegexMaskESaIS2_EE12_Vector_implC1Ev
FN:131,_ZNSt12_Vector_baseISt4pairIccESaIS1_EE12_Vector_implC1Ev
FNDA:621,_ZNSt12_Vector_baseISt4pairIccESaIS1_EE12_Vector_implC1Ev
FN:131,_ZNSt12_Vector_baseIcSaIcEE12_Vector_implC1Ev
FNDA:621,_ZNSt12_Vector_baseIcSaIcEE12_Vector_implC1Ev
FN:131,_ZNSt12_Vector_baseIiSaIiEE12_Vector_implC1Ev
FNDA:0,_ZNSt12_Vector_baseIiSaIiEE12_Vector_implC1Ev
FN:131,_ZNSt12_Vector_baseISt9sub_matchIN9__gnu_cxx17__normal_iteratorIPKcSsEEESaIS6_EE12_Vector_implC1Ev
FNDA:2726,_ZNSt12_Vector_baseISt9sub_matchIN9__gnu_cxx17__normal_iteratorIPKcSsEEESaIS6_EE12_Vector_implC1Ev
FN:131,_ZNSt12_Vector_baseIdSaIdEE12_Vector_implC1Ev
FNDA:12016,_ZNSt12_Vector_baseIdSaIdEE12_Vector_implC1Ev
FN:136,_ZNSt12_Vector_baseISt9sub_matchIN9__gnu_cxx17__normal_iteratorIPKcSsEEESaIS6_EE12_Vector_implC1ERKS7_
FNDA:3948,_ZNSt12_Vector_baseISt9sub_matchIN9__gnu_cxx17__normal_iteratorIPKcSsEEESaIS6_EE12_Vector_implC1ERKS7_
FN:136,_ZNSt12_Vector_baseISt6vectorISsSaISsEESaIS2_EE12_Vector_implC1ERKS3_
FNDA:0,_ZNSt12_Vector_baseISt6vectorISsSaISsEESaIS2_EE12_Vector_implC1ERKS3_
FN:136,_ZNSt12_Vector_baseISt4pairIN9__gnu_cxx17__normal_iteratorIPKcSsEEiESaIS6_EE12_Vector_implC1ERKS7_
FNDA:2726,_ZNSt12_Vector_baseISt4pairIN9__gnu_cxx17__normal_iteratorIPKcSsEEiESaIS6_EE12_Vector_implC1ERKS7_
FN:136,_ZNSt12_Vector_baseISt4pairISsSsESaIS1_EE12_Vector_implC1ERKS2_
FNDA:0,_ZNSt12_Vector_baseISt4pairISsSsESaIS1_EE12_Vector_implC1ERKS2_
FN:136,_ZNSt12_Vector_baseINSt12regex_traitsIcE10_RegexMaskESaIS2_EE12_Vector_implC1ERKS3_
FNDA:937,_ZNSt12_Vector_baseINSt12regex_traitsIcE10_RegexMaskESaIS2_EE12_Vector_implC1ERKS3_
FN:136,_ZNSt12_Vector_baseISsSaISsEE12_Vector_implC1ERKS0_
FNDA:0,_ZNSt12_Vector_baseISsSaISsEE12_Vector_implC1ERKS0_
FN:136,_ZNSt12_Vector_baseISt4pairIccESaIS1_EE12_Vector_implC1ERKS2_
FNDA:937,_ZNSt12_Vector_baseISt4pairIccESaIS1_EE12_Vector_implC1ERKS2_
FN:136,_ZNSt12_Vector_baseIcSaIcEE12_Vector_implC1ERKS0_
FNDA:156131,_ZNSt12_Vector_baseIcSaIcEE12_Vector_implC1ERKS0_
FN:143,_ZNSt12_Vector_baseIdSaIdEE12_Vector_implC1EOS2_
FNDA:45,_ZNSt12_Vector_baseIdSaIdEE12_Vector_implC1EOS2_
FN:143,_ZNSt12_Vector_baseISt4pairISsSsESaIS1_EE12_Vector_implC1EOS4_
FNDA:0,_ZNSt12_Vector_baseISt4pairISsSsESaIS1_EE12_Vector_implC1EOS4_
FN:143,_ZNSt12_Vector_baseINSt12regex_traitsIcE10_RegexMaskESaIS2_EE12_Vector_implC1EOS5_
FNDA:1242,_ZNSt12_Vector_baseINSt12regex_traitsIcE10_RegexMaskESaIS2_EE12_Vector_implC1EOS5_
FN:143,_ZNSt12_Vector_baseISt4pairIccESaIS1_EE12_Vector_implC1EOS4_
FNDA:1242,_ZNSt12_Vector_baseISt4pairIccESaIS1_EE12_Vector_implC1EOS4_
FN:143,_ZNSt12_Vector_baseISsSaISsEE12_Vector_implC1EOS2_
FNDA:0,_ZNSt12_Vector_baseISsSaISsEE12_Vector_implC1EOS2_
FN:143,_ZNSt12_Vector_baseIcSaIcEE12_Vector_implC1EOS2_
FNDA:1242,_ZNSt12_Vector_baseIcSaIcEE12_Vector_implC1EOS2_
FN:143,_ZNSt12_Vector_baseISt4pairIlSt6vectorISt9sub_matchIN9__gnu_cxx17__normal_iteratorIPKcSsEEESaIS8_EEESaISB_EE12_Vector_implC1EOSE_
FNDA:0,_ZNSt12_Vector_baseISt4pairIlSt6vectorISt9sub_matchIN9__gnu_cxx17__normal_iteratorIPKcSsEEESaIS8_EEESaISB_EE12_Vector_implC1EOSE_
FN:143,_ZNSt12_Vector_baseISt9sub_matchIN9__gnu_cxx17__normal_iteratorIPKcSsEEESaIS6_EE12_Vector_implC1EOS9_
FNDA:0,_ZNSt12_Vector_baseISt9sub_matchIN9__gnu_cxx17__normal_iteratorIPKcSsEEESaIS6_EE12_Vector_implC1EOS9_
FN:276,_ZNSt12_Vector_baseISt4pairISsSsESaIS1_EE19_M_get_Tp_allocatorEv
FNDA:0,_ZNSt12_Vector_baseISt4pairISsSsESaIS1_EE19_M_get_Tp_allocatorEv
FN:276,_ZNSt12_Vector_baseISt6vectorISsSaISsEESaIS2_EE19_M_get_Tp_allocatorEv
FNDA:0,_ZNSt12_Vector_baseISt6vectorISsSaISsEESaIS2_EE19_M_get_Tp_allocatorEv
FN:276,_ZNSt12_Vector_baseIdSaIdEE19_M_get_Tp_allocatorEv
FNDA:0,_ZNSt12_Vector_baseIdSaIdEE19_M_get_Tp_allocatorEv
FN:276,_ZNSt12_Vector_baseISsSaISsEE19_M_get_Tp_allocatorEv
FNDA:0,_ZNSt12_Vector_baseISsSaISsEE19_M_get_Tp_allocatorEv
FN:276,_ZNSt12_Vector_baseIiSaIiEE19_M_get_Tp_allocatorEv
FNDA:0,_ZNSt12_Vector_baseIiSaIiEE19_M_get_Tp_allocatorEv
FN:276,_ZNSt12_Vector_baseI8DataTypeSaIS0_EE19_M_get_Tp_allocatorEv
FNDA:0,_ZNSt12_Vector_baseI8DataTypeSaIS0_EE19_M_get_Tp_allocatorEv
FN:276,_ZNSt12_Vector_baseISt6vectorIdSaIdEESaIS2_EE19_M_get_Tp_allocatorEv
FNDA:0,_ZNSt12_Vector_baseISt6vectorIdSaIdEESaIS2_EE19_M_get_Tp_allocatorEv
FN:276,_ZNSt12_Vector_baseIcSaIcEE19_M_get_Tp_allocatorEv
FNDA:469336,_ZNSt12_Vector_baseIcSaIcEE19_M_get_Tp_allocatorEv
FN:276,_ZNSt12_Vector_baseISt4pairIccESaIS1_EE19_M_get_Tp_allocatorEv
FNDA:3742,_ZNSt12_Vector_baseISt4pairIccESaIS1_EE19_M_get_Tp_allocatorEv
FN:276,_ZNSt12_Vector_baseINSt12regex_traitsIcE10_RegexMaskESaIS2_EE19_M_get_Tp_allocatorEv
FNDA:3730,_ZNSt12_Vector_baseINSt12regex_traitsIcE10_RegexMaskESaIS2_EE19_M_get_Tp_allocatorEv
FN:276,_ZNSt12_Vector_baseImSaImEE19_M_get_Tp_allocatorEv
FNDA:1827,_ZNSt12_Vector_baseImSaImEE19_M_get_Tp_allocatorEv
FN:276,_ZNSt12_Vector_baseISt9sub_matchIN9__gnu_cxx17__normal_iteratorIPKcSsEEESaIS6_EE19_M_get_Tp_allocatorEv
FNDA:38071,_ZNSt12_Vector_baseISt9sub_matchIN9__gnu_cxx17__normal_iteratorIPKcSsEEESaIS6_EE19_M_get_Tp_allocatorEv
FN:276,_ZNSt12_Vector_baseISt4pairIN9__gnu_cxx17__normal_iteratorIPKcSsEEiESaIS6_EE19_M_get_Tp_allocatorEv
FNDA:5452,_ZNSt12_Vector_baseISt4pairIN9__gnu_cxx17__normal_iteratorIPKcSsEEiESaIS6_EE19_M_get_Tp_allocatorEv
FN:276,_ZNSt12_Vector_baseINSt8__detail6_StateIcEESaIS2_EE19_M_get_Tp_allocatorEv
FNDA:7952,_ZNSt12_Vector_baseINSt8__detail6_StateIcEESaIS2_EE19_M_get_Tp_allocatorEv
FN:276,_ZNSt12_Vector_baseISt4pairIlSt6vectorISt9sub_matchIN9__gnu_cxx17__normal_iteratorIPKcSsEEESaIS8_EEESaISB_EE19_M_get_Tp_allocatorEv
FNDA:0,_ZNSt12_Vector_baseISt4pairIlSt6vectorISt9sub_matchIN9__gnu_cxx17__normal_iteratorIPKcSsEEESaIS8_EEESaISB_EE19_M_get_Tp_allocatorEv
FN:280,_ZNKSt12_Vector_baseImSaImEE19_M_get_Tp_allocatorEv
FNDA:1222,_ZNKSt12_Vector_baseImSaImEE19_M_get_Tp_allocatorEv
FN:280,_ZNKSt12_Vector_baseISt4pairIlSt6vectorISt9sub_matchIN9__gnu_cxx17__normal_iteratorIPKcSsEEESaIS8_EEESaISB_EE19_M_get_Tp_allocatorEv
FNDA:0,_ZNKSt12_Vector_baseISt4pairIlSt6vectorISt9sub_matchIN9__gnu_cxx17__normal_iteratorIPKcSsEEESaIS8_EEESaISB_EE19_M_get_Tp_allocatorEv
FN:280,_ZNKSt12_Vector_baseISt6vectorISsSaISsEESaIS2_EE19_M_get_Tp_allocatorEv
FNDA:0,_ZNKSt12_Vector_baseISt6vectorISsSaISsEESaIS2_EE19_M_get_Tp_allocatorEv
FN:280,_ZNKSt12_Vector_baseI8DataTypeSaIS0_EE19_M_get_Tp_allocatorEv
FNDA:8,_ZNKSt12_Vector_baseI8DataTypeSaIS0_EE19_M_get_Tp_allocatorEv
FN:280,_ZNKSt12_Vector_baseIiSaIiEE19_M_get_Tp_allocatorEv
FNDA:0,_ZNKSt12_Vector_baseIiSaIiEE19_M_get_Tp_allocatorEv
FN:280,_ZNKSt12_Vector_baseISt6vectorIdSaIdEESaIS2_EE19_M_get_Tp_allocatorEv
FNDA:0,_ZNKSt12_Vector_baseISt6vectorIdSaIdEESaIS2_EE19_M_get_Tp_allocatorEv
FN:280,_ZNKSt12_Vector_baseINSt8__detail6_StateIcEESaIS2_EE19_M_get_Tp_allocatorEv
FNDA:4898,_ZNKSt12_Vector_baseINSt8__detail6_StateIcEESaIS2_EE19_M_get_Tp_allocatorEv
FN:280,_ZNKSt12_Vector_baseIdSaIdEE19_M_get_Tp_allocatorEv
FNDA:0,_ZNKSt12_Vector_baseIdSaIdEE19_M_get_Tp_allocatorEv
FN:280,_ZNKSt12_Vector_baseISt4pairISsSsESaIS1_EE19_M_get_Tp_allocatorEv
FNDA:0,_ZNKSt12_Vector_baseISt4pairISsSsESaIS1_EE19_M_get_Tp_allocatorEv
FN:280,_ZNKSt12_Vector_baseISt4pairIccESaIS1_EE19_M_get_Tp_allocatorEv
FNDA:949,_ZNKSt12_Vector_baseISt4pairIccESaIS1_EE19_M_get_Tp_allocatorEv
FN:280,_ZNKSt12_Vector_baseIcSaIcEE19_M_get_Tp_allocatorEv
FNDA:961,_ZNKSt12_Vector_baseIcSaIcEE19_M_get_Tp_allocatorEv
FN:280,_ZNKSt12_Vector_baseISsSaISsEE19_M_get_Tp_allocatorEv
FNDA:0,_ZNKSt12_Vector_baseISsSaISsEE19_M_get_Tp_allocatorEv
FN:280,_ZNKSt12_Vector_baseINSt12regex_traitsIcE10_RegexMaskESaIS2_EE19_M_get_Tp_allocatorEv
FNDA:937,_ZNKSt12_Vector_baseINSt12regex_traitsIcE10_RegexMaskESaIS2_EE19_M_get_Tp_allocatorEv
FN:280,_ZNKSt12_Vector_baseISt9sub_matchIN9__gnu_cxx17__normal_iteratorIPKcSsEEESaIS6_EE19_M_get_Tp_allocatorEv
FNDA:294,_ZNKSt12_Vector_baseISt9sub_matchIN9__gnu_cxx17__normal_iteratorIPKcSsEEESaIS6_EE19_M_get_Tp_allocatorEv
FN:284,_ZNKSt12_Vector_baseISt9sub_matchIN9__gnu_cxx17__normal_iteratorIPKcSsEEESaIS6_EE13get_allocatorEv
FNDA:0,_ZNKSt12_Vector_baseISt9sub_matchIN9__gnu_cxx17__normal_iteratorIPKcSsEEESaIS6_EE13get_allocatorEv
FN:288,_ZNSt12_Vector_baseISt4pairISsSsESaIS1_EEC2Ev
FNDA:0,_ZNSt12_Vector_baseISt4pairISsSsESaIS1_EEC2Ev
FN:288,_ZNSt12_Vector_baseINSt12regex_traitsIcE10_RegexMaskESaIS2_EEC2Ev
FNDA:621,_ZNSt12_Vector_baseINSt12regex_traitsIcE10_RegexMaskESaIS2_EEC2Ev
FN:288,_ZNSt12_Vector_baseISt4pairIccESaIS1_EEC2Ev
FNDA:621,_ZNSt12_Vector_baseISt4pairIccESaIS1_EEC2Ev
FN:288,_ZNSt12_Vector_baseIcSaIcEEC2Ev
FNDA:621,_ZNSt12_Vector_baseIcSaIcEEC2Ev
FN:288,_ZNSt12_Vector_baseImSaImEEC2Ev
FNDA:609,_ZNSt12_Vector_baseImSaImEEC2Ev
FN:288,_ZNSt12_Vector_baseINSt8__detail6_StateIcEESaIS2_EEC2Ev
FNDA:609,_ZNSt12_Vector_baseINSt8__detail6_StateIcEESaIS2_EEC2Ev
FN:288,_ZNSt12_Vector_baseISsSaISsEEC2Ev
FNDA:0,_ZNSt12_Vector_baseISsSaISsEEC2Ev
FN:288,_ZNSt12_Vector_baseISt6vectorIdSaIdEESaIS2_EEC2Ev
FNDA:5,_ZNSt12_Vector_baseISt6vectorIdSaIdEESaIS2_EEC2Ev
FN:288,_ZNSt12_Vector_baseI8DataTypeSaIS0_EEC2Ev
FNDA:1,_ZNSt12_Vector_baseI8DataTypeSaIS0_EEC2Ev
FN:288,_ZNSt12_Vector_baseISt9sub_matchIN9__gnu_cxx17__normal_iteratorIPKcSsEEESaIS6_EEC2Ev
FNDA:2726,_ZNSt12_Vector_baseISt9sub_matchIN9__gnu_cxx17__normal_iteratorIPKcSsEEESaIS6_EEC2Ev
FN:288,_ZNSt12_Vector_baseIdSaIdEEC2Ev
FNDA:12016,_ZNSt12_Vector_baseIdSaIdEEC2Ev
FN:288,_ZNSt12_Vector_baseISt4pairIlSt6vectorISt9sub_matchIN9__gnu_cxx17__normal_iteratorIPKcSsEEESaIS8_EEESaISB_EEC2Ev
FNDA:0,_ZNSt12_Vector_baseISt4pairIlSt6vectorISt9sub_matchIN9__gnu_cxx17__normal_iteratorIPKcSsEEESaIS8_EEESaISB_EEC2Ev
FN:288,_ZNSt12_Vector_baseIiSaIiEEC2Ev
FNDA:0,_ZNSt12_Vector_baseIiSaIiEEC2Ev
FN:293,_ZNSt12_Vector_baseISt9sub_matchIN9__gnu_cxx17__normal_iteratorIPKcSsEEESaIS6_EEC2ERKS7_
FNDA:2134,_ZNSt12_Vector_baseISt9sub_matchIN9__gnu_cxx17__normal_iteratorIPKcSsEEESaIS6_EEC2ERKS7_
FN:293,_ZNSt12_Vector_baseISsSaISsEEC2ERKS0_
FNDA:0,_ZNSt12_Vector_baseISsSaISsEEC2ERKS0_
FN:293,_ZNSt12_Vector_baseIcSaIcEEC2ERKS0_
FNDA:155194,_ZNSt12_Vector_baseIcSaIcEEC2ERKS0_
FN:303,_ZNSt12_Vector_baseISt6vectorISsSaISsEESaIS2_EEC2EmRKS3_
FNDA:0,_ZNSt12_Vector_baseISt6vectorISsSaISsEESaIS2_EEC2EmRKS3_
FN:303,_ZNSt12_Vector_baseISt9sub_matchIN9__gnu_cxx17__normal_iteratorIPKcSsEEESaIS6_EEC2EmRKS7_
FNDA:1814,_ZNSt12_Vector_baseISt9sub_matchIN9__gnu_cxx17__normal_iteratorIPKcSsEEESaIS6_EEC2EmRKS7_
FN:303,_ZNSt12_Vector_baseISsSaISsEEC2EmRKS0_
FNDA:0,_ZNSt12_Vector_baseISsSaISsEEC2EmRKS0_
FN:303,_ZNSt12_Vector_baseISt4pairISsSsESaIS1_EEC2EmRKS2_
FNDA:0,_ZNSt12_Vector_baseISt4pairISsSsESaIS1_EEC2EmRKS2_
FN:303,_ZNSt12_Vector_baseINSt12regex_traitsIcE10_RegexMaskESaIS2_EEC2EmRKS3_
FNDA:937,_ZNSt12_Vector_baseINSt12regex_traitsIcE10_RegexMaskESaIS2_EEC2EmRKS3_
FN:303,_ZNSt12_Vector_baseISt4pairIN9__gnu_cxx17__normal_iteratorIPKcSsEEiESaIS6_EEC2EmRKS7_
FNDA:2726,_ZNSt12_Vector_baseISt4pairIN9__gnu_cxx17__normal_iteratorIPKcSsEEiESaIS6_EEC2EmRKS7_
FN:303,_ZNSt12_Vector_baseISt4pairIccESaIS1_EEC2EmRKS2_
FNDA:937,_ZNSt12_Vector_baseISt4pairIccESaIS1_EEC2EmRKS2_
FN:303,_ZNSt12_Vector_baseIcSaIcEEC2EmRKS0_
FNDA:937,_ZNSt12_Vector_baseIcSaIcEEC2EmRKS0_
FN:308,_ZNSt12_Vector_baseISt4pairIlSt6vectorISt9sub_matchIN9__gnu_cxx17__normal_iteratorIPKcSsEEESaIS8_EEESaISB_EEC2EOSD_
FNDA:0,_ZNSt12_Vector_baseISt4pairIlSt6vectorISt9sub_matchIN9__gnu_cxx17__normal_iteratorIPKcSsEEESaIS8_EEESaISB_EEC2EOSD_
FN:308,_ZNSt12_Vector_baseIcSaIcEEC2EOS1_
FNDA:1242,_ZNSt12_Vector_baseIcSaIcEEC2EOS1_
FN:308,_ZNSt12_Vector_baseIdSaIdEEC2EOS1_
FNDA:45,_ZNSt12_Vector_baseIdSaIdEEC2EOS1_
FN:308,_ZNSt12_Vector_baseISsSaISsEEC2EOS1_
FNDA:0,_ZNSt12_Vector_baseISsSaISsEEC2EOS1_
FN:308,_ZNSt12_Vector_baseISt4pairIccESaIS1_EEC2EOS3_
FNDA:1242,_ZNSt12_Vector_baseISt4pairIccESaIS1_EEC2EOS3_
FN:308,_ZNSt12_Vector_baseISt9sub_matchIN9__gnu_cxx17__normal_iteratorIPKcSsEEESaIS6_EEC2EOS8_
FNDA:0,_ZNSt12_Vector_baseISt9sub_matchIN9__gnu_cxx17__normal_iteratorIPKcSsEEESaIS6_EEC2EOS8_
FN:308,_ZNSt12_Vector_baseINSt12regex_traitsIcE10_RegexMaskESaIS2_EEC2EOS4_
FNDA:1242,_ZNSt12_Vector_baseINSt12regex_traitsIcE10_RegexMaskESaIS2_EEC2EOS4_
FN:308,_ZNSt12_Vector_baseISt4pairISsSsESaIS1_EEC2EOS3_
FNDA:0,_ZNSt12_Vector_baseISt4pairISsSsESaIS1_EEC2EOS3_
FN:333,_ZNSt12_Vector_baseIdSaIdEED2Ev
FNDA:0,_ZNSt12_Vector_baseIdSaIdEED2Ev
FN:333,_ZNSt12_Vector_baseINSt12regex_traitsIcE10_RegexMaskESaIS2_EED2Ev
FNDA:2793,_ZNSt12_Vector_baseINSt12regex_traitsIcE10_RegexMaskESaIS2_EED2Ev
FN:333,_ZNSt12_Vector_baseISt4pairIccESaIS1_EED2Ev
FNDA:2793,_ZNSt12_Vector_baseISt4pairIccESaIS1_EED2Ev
FN:333,_ZNSt12_Vector_baseIcSaIcEED2Ev
FNDA:157987,_ZNSt12_Vector_baseIcSaIcEED2Ev
FN:333,_ZNSt12_Vector_baseISt4pairISsSsESaIS1_EED2Ev
FNDA:0,_ZNSt12_Vector_baseISt4pairISsSsESaIS1_EED2Ev
FN:333,_ZNSt12_Vector_baseISt9sub_matchIN9__gnu_cxx17__normal_iteratorIPKcSsEEESaIS6_EED2Ev
FNDA:6674,_ZNSt12_Vector_baseISt9sub_matchIN9__gnu_cxx17__normal_iteratorIPKcSsEEESaIS6_EED2Ev
FN:333,_ZNSt12_Vector_baseIiSaIiEED2Ev
FNDA:0,_ZNSt12_Vector_baseIiSaIiEED2Ev
FN:333,_ZNSt12_Vector_baseI8DataTypeSaIS0_EED2Ev
FNDA:0,_ZNSt12_Vector_baseI8DataTypeSaIS0_EED2Ev
FN:333,_ZNSt12_Vector_baseISt6vectorISsSaISsEESaIS2_EED2Ev
FNDA:0,_ZNSt12_Vector_baseISt6vectorISsSaISsEESaIS2_EED2Ev
FN:333,_ZNSt12_Vector_baseISt4pairIN9__gnu_cxx17__normal_iteratorIPKcSsEEiESaIS6_EED2Ev
FNDA:2726,_ZNSt12_Vector_baseISt4pairIN9__gnu_cxx17__normal_iteratorIPKcSsEEiESaIS6_EED2Ev
FN:333,_ZNSt12_Vector_baseISt6vectorIdSaIdEESaIS2_EED2Ev
FNDA:0,_ZNSt12_Vector_baseISt6vectorIdSaIdEESaIS2_EED2Ev
FN:333,_ZNSt12_Vector_baseImSaImEED2Ev
FNDA:605,_ZNSt12_Vector_baseImSaImEED2Ev
FN:333,_ZNSt12_Vector_baseISt4pairIlSt6vectorISt9sub_matchIN9__gnu_cxx17__normal_iteratorIPKcSsEEESaIS8_EEESaISB_EED2Ev
FNDA:0,_ZNSt12_Vector_baseISt4pairIlSt6vectorISt9sub_matchIN9__gnu_cxx17__normal_iteratorIPKcSsEEESaIS8_EEESaISB_EED2Ev
FN:333,_ZNSt12_Vector_baseISsSaISsEED2Ev
FNDA:0,_ZNSt12_Vector_baseISsSaISsEED2Ev
FN:333,_ZNSt12_Vector_baseINSt8__detail6_StateIcEESaIS2_EED2Ev
FNDA:605,_ZNSt12_Vector_baseINSt8__detail6_StateIcEESaIS2_EED2Ev
FN:343,_ZNSt12_Vector_baseISt6vectorISsSaISsEESaIS2_EE11_M_allocateEm
FNDA:0,_ZNSt12_Vector_baseISt6vectorISsSaISsEESaIS2_EE11_M_allocateEm
FN:343,_ZNSt12_Vector_baseINSt8__detail6_StateIcEESaIS2_EE11_M_allocateEm
FNDA:2449,_ZNSt12_Vector_baseINSt8__detail6_StateIcEESaIS2_EE11_M_allocateEm
FN:343,_ZNSt12_Vector_baseIiSaIiEE11_M_allocateEm
FNDA:0,_ZNSt12_Vector_baseIiSaIiEE11_M_allocateEm
FN:343,_ZNSt12_Vector_baseIdSaIdEE11_M_allocateEm
FNDA:0,_ZNSt12_Vector_baseIdSaIdEE11_M_allocateEm
FN:343,_ZNSt12_Vector_baseImSaImEE11_M_allocateEm
FNDA:611,_ZNSt12_Vector_baseImSaImEE11_M_allocateEm
FN:343,_ZNSt12_Vector_baseISt6vectorIdSaIdEESaIS2_EE11_M_allocateEm
FNDA:0,_ZNSt12_Vector_baseISt6vectorIdSaIdEESaIS2_EE11_M_allocateEm
FN:343,_ZNSt12_Vector_baseISt9sub_matchIN9__gnu_cxx17__normal_iteratorIPKcSsEEESaIS6_EE11_M_allocateEm
FNDA:4540,_ZNSt12_Vector_baseISt9sub_matchIN9__gnu_cxx17__normal_iteratorIPKcSsEEESaIS6_EE11_M_allocateEm
FN:343,_ZNSt12_Vector_baseISt4pairISsSsESaIS1_EE11_M_allocateEm
FNDA:0,_ZNSt12_Vector_baseISt4pairISsSsESaIS1_EE11_M_allocateEm
FN:343,_ZNSt12_Vector_baseI8DataTypeSaIS0_EE11_M_allocateEm
FNDA:4,_ZNSt12_Vector_baseI8DataTypeSaIS0_EE11_M_allocateEm
FN:343,_ZNSt12_Vector_baseISt4pairIccESaIS1_EE11_M_allocateEm
FNDA:943,_ZNSt12_Vector_baseISt4pairIccESaIS1_EE11_M_allocateEm
FN:343,_ZNSt12_Vector_baseISsSaISsEE11_M_allocateEm
FNDA:0,_ZNSt12_Vector_baseISsSaISsEE11_M_allocateEm
FN:343,_ZNSt12_Vector_baseISt4pairIN9__gnu_cxx17__normal_iteratorIPKcSsEEiESaIS6_EE11_M_allocateEm
FNDA:2726,_ZNSt12_Vector_baseISt4pairIN9__gnu_cxx17__normal_iteratorIPKcSsEEiESaIS6_EE11_M_allocateEm
FN:343,_ZNSt12_Vector_baseINSt12regex_traitsIcE10_RegexMaskESaIS2_EE11_M_allocateEm
FNDA:937,_ZNSt12_Vector_baseINSt12regex_traitsIcE10_RegexMaskESaIS2_EE11_M_allocateEm
FN:343,_ZNSt12_Vector_baseISt4pairIlSt6vectorISt9sub_matchIN9__gnu_cxx17__normal_iteratorIPKcSsEEESaIS8_EEESaISB_EE11_M_allocateEm
FNDA:0,_ZNSt12_Vector_baseISt4pairIlSt6vectorISt9sub_matchIN9__gnu_cxx17__normal_iteratorIPKcSsEEESaIS8_EEESaISB_EE11_M_allocateEm
FN:343,_ZNSt12_Vector_baseIcSaIcEE11_M_allocateEm
FNDA:156143,_ZNSt12_Vector_baseIcSaIcEE11_M_allocateEm
FN:350,_ZNSt12_Vector_baseISt4pairIN9__gnu_cxx17__normal_iteratorIPKcSsEEiESaIS6_EE13_M_deallocateEPS6_m
FNDA:2726,_ZNSt12_Vector_baseISt4pairIN9__gnu_cxx17__normal_iteratorIPKcSsEEiESaIS6_EE13_M_deallocateEPS6_m
FN:350,_ZNSt12_Vector_baseISt6vectorIdSaIdEESaIS2_EE13_M_deallocateEPS2_m
FNDA:0,_ZNSt12_Vector_baseISt6vectorIdSaIdEESaIS2_EE13_M_deallocateEPS2_m
FN:350,_ZNSt12_Vector_baseISt4pairIlSt6vectorISt9sub_matchIN9__gnu_cxx17__normal_iteratorIPKcSsEEESaIS8_EEESaISB_EE13_M_deallocateEPSB_m
FNDA:0,_ZNSt12_Vector_baseISt4pairIlSt6vectorISt9sub_matchIN9__gnu_cxx17__normal_iteratorIPKcSsEEESaIS8_EEESaISB_EE13_M_deallocateEPSB_m
FN:350,_ZNSt12_Vector_baseISsSaISsEE13_M_deallocateEPSsm
FNDA:0,_ZNSt12_Vector_baseISsSaISsEE13_M_deallocateEPSsm
FN:350,_ZNSt12_Vector_baseIiSaIiEE13_M_deallocateEPim
FNDA:0,_ZNSt12_Vector_baseIiSaIiEE13_M_deallocateEPim
FN:350,_ZNSt12_Vector_baseI8DataTypeSaIS0_EE13_M_deallocateEPS0_m
FNDA:0,_ZNSt12_Vector_baseI8DataTypeSaIS0_EE13_M_deallocateEPS0_m
FN:350,_ZNSt12_Vector_baseISt9sub_matchIN9__gnu_cxx17__normal_iteratorIPKcSsEEESaIS6_EE13_M_deallocateEPS6_m
FNDA:9400,_ZNSt12_Vector_baseISt9sub_matchIN9__gnu_cxx17__normal_iteratorIPKcSsEEESaIS6_EE13_M_deallocateEPS6_m
FN:350,_ZNSt12_Vector_baseIdSaIdEE13_M_deallocateEPdm
FNDA:0,_ZNSt12_Vector_baseIdSaIdEE13_M_deallocateEPdm
FN:350,_ZNSt12_Vector_baseISt6vectorISsSaISsEESaIS2_EE13_M_deallocateEPS2_m
FNDA:0,_ZNSt12_Vector_baseISt6vectorISsSaISsEESaIS2_EE13_M_deallocateEPS2_m
FN:350,_ZNSt12_Vector_baseINSt8__detail6_StateIcEESaIS2_EE13_M_deallocateEPS2_m
FNDA:3054,_ZNSt12_Vector_baseINSt8__detail6_StateIcEESaIS2_EE13_M_deallocateEPS2_m
FN:350,_ZNSt12_Vector_baseISt4pairISsSsESaIS1_EE13_M_deallocateEPS1_m
FNDA:0,_ZNSt12_Vector_baseISt4pairISsSsESaIS1_EE13_M_deallocateEPS1_m
FN:350,_ZNSt12_Vector_baseINSt12regex_traitsIcE10_RegexMaskESaIS2_EE13_M_deallocateEPS2_m
FNDA:2793,_ZNSt12_Vector_baseINSt12regex_traitsIcE10_RegexMaskESaIS2_EE13_M_deallocateEPS2_m
FN:350,_ZNSt12_Vector_baseISt4pairIccESaIS1_EE13_M_deallocateEPS1_m
FNDA:2799,_ZNSt12_Vector_baseISt4pairIccESaIS1_EE13_M_deallocateEPS1_m
FN:350,_ZNSt12_Vector_baseIcSaIcEE13_M_deallocateEPcm
FNDA:157999,_ZNSt12_Vector_baseIcSaIcEE13_M_deallocateEPcm
FN:350,_ZNSt12_Vector_baseImSaImEE13_M_deallocateEPmm
FNDA:1216,_ZNSt12_Vector_baseImSaImEE13_M_deallocateEPmm
FN:359,_ZNSt12_Vector_baseISt9sub_matchIN9__gnu_cxx17__normal_iteratorIPKcSsEEESaIS6_EE17_M_create_storageEm
FNDA:1814,_ZNSt12_Vector_baseISt9sub_matchIN9__gnu_cxx17__normal_iteratorIPKcSsEEESaIS6_EE17_M_create_storageEm
FN:359,_ZNSt12_Vector_baseISt4pairIN9__gnu_cxx17__normal_iteratorIPKcSsEEiESaIS6_EE17_M_create_storageEm
FNDA:2726,_ZNSt12_Vector_baseISt4pairIN9__gnu_cxx17__normal_iteratorIPKcSsEEiESaIS6_EE17_M_create_storageEm
FN:359,_ZNSt12_Vector_baseISt4pairISsSsESaIS1_EE17_M_create_storageEm
FNDA:0,_ZNSt12_Vector_baseISt4pairISsSsESaIS1_EE17_M_create_storageEm
FN:359,_ZNSt12_Vector_baseINSt12regex_traitsIcE10_RegexMaskESaIS2_EE17_M_create_storageEm
FNDA:937,_ZNSt12_Vector_baseINSt12regex_traitsIcE10_RegexMaskESaIS2_EE17_M_create_storageEm
FN:359,_ZNSt12_Vector_baseISt4pairIccESaIS1_EE17_M_create_storageEm
FNDA:937,_ZNSt12_Vector_baseISt4pairIccESaIS1_EE17_M_create_storageEm
FN:359,_ZNSt12_Vector_baseISsSaISsEE17_M_create_storageEm
FNDA:0,_ZNSt12_Vector_baseISsSaISsEE17_M_create_storageEm
FN:359,_ZNSt12_Vector_baseIcSaIcEE17_M_create_storageEm
FNDA:937,_ZNSt12_Vector_baseIcSaIcEE17_M_create_storageEm
FN:359,_ZNSt12_Vector_baseISt6vectorISsSaISsEESaIS2_EE17_M_create_storageEm
FNDA:0,_ZNSt12_Vector_baseISt6vectorISsSaISsEESaIS2_EE17_M_create_storageEm
FN:431,_ZNSt6vectorISt4pairIlS_ISt9sub_matchIN9__gnu_cxx17__normal_iteratorIPKcSsEEESaIS7_EEESaISA_EE19_S_nothrow_relocateESt17integral_constantIbLb1EE
FNDA:0,_ZNSt6vectorISt4pairIlS_ISt9sub_matchIN9__gnu_cxx17__normal_iteratorIPKcSsEEESaIS7_EEESaISA_EE19_S_nothrow_relocateESt17integral_constantIbLb1EE
FN:431,_ZNSt6vectorISt4pairIccESaIS1_EE19_S_nothrow_relocateESt17integral_constantIbLb1EE
FNDA:12,_ZNSt6vectorISt4pairIccESaIS1_EE19_S_nothrow_relocateESt17integral_constantIbLb1EE
FN:431,_ZNSt6vectorI8DataTypeSaIS0_EE19_S_nothrow_relocateESt17integral_constantIbLb1EE
FNDA:8,_ZNSt6vectorI8DataTypeSaIS0_EE19_S_nothrow_relocateESt17integral_constantIbLb1EE
FN:431,_ZNSt6vectorINSt12regex_traitsIcE10_RegexMaskESaIS2_EE19_S_nothrow_relocateESt17integral_constantIbLb1EE
FNDA:0,_ZNSt6vectorINSt12regex_traitsIcE10_RegexMaskESaIS2_EE19_S_nothrow_relocateESt17integral_constantIbLb1EE
FN:431,_ZNSt6vectorIcSaIcEE19_S_nothrow_relocateESt17integral_constantIbLb1EE
FNDA:24,_ZNSt6vectorIcSaIcEE19_S_nothrow_relocateESt17integral_constantIbLb1EE
FN:431,_ZNSt6vectorIiSaIiEE19_S_nothrow_relocateESt17integral_constantIbLb1EE
FNDA:0,_ZNSt6vectorIiSaIiEE19_S_nothrow_relocateESt17integral_constantIbLb1EE
FN:431,_ZNSt6vectorIdSaIdEE19_S_nothrow_relocateESt17integral_constantIbLb1EE
FNDA:96129,_ZNSt6vectorIdSaIdEE19_S_nothrow_relocateESt17integral_constantIbLb1EE
FN:431,_ZNSt6vectorISt4pairISsSsESaIS1_EE19_S_nothrow_relocateESt17integral_constantIbLb1EE
FNDA:0,_ZNSt6vectorISt4pairISsSsESaIS1_EE19_S_nothrow_relocateESt17integral_constantIbLb1EE
FN:431,_ZNSt6vectorINSt8__detail6_StateIcEESaIS2_EE19_S_nothrow_relocateESt17integral_constantIbLb1EE
FNDA:4898,_ZNSt6vectorINSt8__detail6_StateIcEESaIS2_EE19_S_nothrow_relocateESt17integral_constantIbLb1EE
FN:431,_ZNSt6vectorIS_IdSaIdEESaIS1_EE19_S_nothrow_relocateESt17integral_constantIbLb1EE
FNDA:32,_ZNSt6vectorIS_IdSaIdEESaIS1_EE19_S_nothrow_relocateESt17integral_constantIbLb1EE
FN:431,_ZNSt6vectorImSaImEE19_S_nothrow_relocateESt17integral_constantIbLb1EE
FNDA:1222,_ZNSt6vectorImSaImEE19_S_nothrow_relocateESt17integral_constantIbLb1EE
FN:431,_ZNSt6vectorISsSaISsEE19_S_nothrow_relocateESt17integral_constantIbLb1EE
FNDA:0,_ZNSt6vectorISsSaISsEE19_S_nothrow_relocateESt17integral_constantIbLb1EE
FN:444,_ZNSt6vectorIdSaIdEE15_S_use_relocateEv
FNDA:96129,_ZNSt6vectorIdSaIdEE15_S_use_relocateEv
FN:444,_ZNSt6vectorINSt12regex_traitsIcE10_RegexMaskESaIS2_EE15_S_use_relocateEv
FNDA:0,_ZNSt6vectorINSt12regex_traitsIcE10_RegexMaskESaIS2_EE15_S_use_relocateEv
FN:444,_ZNSt6vectorI8DataTypeSaIS0_EE15_S_use_relocateEv
FNDA:8,_ZNSt6vectorI8DataTypeSaIS0_EE15_S_use_relocateEv
FN:444,_ZNSt6vectorISt4pairIlS_ISt9sub_matchIN9__gnu_cxx17__normal_iteratorIPKcSsEEESaIS7_EEESaISA_EE15_S_use_relocateEv
FNDA:0,_ZNSt6vectorISt4pairIlS_ISt9sub_matchIN9__gnu_cxx17__normal_iteratorIPKcSsEEESaIS7_EEESaISA_EE15_S_use_relocateEv
FN:444,_ZNSt6vectorISt4pairIccESaIS1_EE15_S_use_relocateEv
FNDA:12,_ZNSt6vectorISt4pairIccESaIS1_EE15_S_use_relocateEv
FN:444,_ZNSt6vectorIS_IdSaIdEESaIS1_EE15_S_use_relocateEv
FNDA:32,_ZNSt6vectorIS_IdSaIdEESaIS1_EE15_S_use_relocateEv
FN:444,_ZNSt6vectorImSaImEE15_S_use_relocateEv
FNDA:1222,_ZNSt6vectorImSaImEE15_S_use_relocateEv
FN:444,_ZNSt6vectorISsSaISsEE15_S_use_relocateEv
FNDA:0,_ZNSt6vectorISsSaISsEE15_S_use_relocateEv
FN:444,_ZNSt6vectorIiSaIiEE15_S_use_relocateEv
FNDA:0,_ZNSt6vectorIiSaIiEE15_S_use_relocateEv
FN:444,_ZNSt6vectorIcSaIcEE15_S_use_relocateEv
FNDA:24,_ZNSt6vectorIcSaIcEE15_S_use_relocateEv
FN:444,_ZNSt6vectorISt4pairISsSsESaIS1_EE15_S_use_relocateEv
FNDA:0,_ZNSt6vectorISt4pairISsSsESaIS1_EE15_S_use_relocateEv
FN:444,_ZNSt6vectorINSt8__detail6_StateIcEESaIS2_EE15_S_use_relocateEv
FNDA:4898,_ZNSt6vectorINSt8__detail6_StateIcEESaIS2_EE15_S_use_relocateEv
FN:453,_ZNSt6vectorINSt12regex_traitsIcE10_RegexMaskESaIS2_EE14_S_do_relocateEPS2_S5_S5_RS3_St17integral_constantIbLb1EE
FNDA:0,_ZNSt6vectorINSt12regex_traitsIcE10_RegexMaskESaIS2_EE14_S_do_relocateEPS2_S5_S5_RS3_St17integral_constantIbLb1EE
FN:453,_ZNSt6vectorISt4pairIccESaIS1_EE14_S_do_relocateEPS1_S4_S4_RS2_St17integral_constantIbLb1EE
FNDA:12,_ZNSt6vectorISt4pairIccESaIS1_EE14_S_do_relocateEPS1_S4_S4_RS2_St17integral_constantIbLb1EE
FN:453,_ZNSt6vectorISt4pairIlS_ISt9sub_matchIN9__gnu_cxx17__normal_iteratorIPKcSsEEESaIS7_EEESaISA_EE14_S_do_relocateEPSA_SD_SD_RSB_St17integral_constantIbLb1EE
FNDA:0,_ZNSt6vectorISt4pairIlS_ISt9sub_matchIN9__gnu_cxx17__normal_iteratorIPKcSsEEESaIS7_EEESaISA_EE14_S_do_relocateEPSA_SD_SD_RSB_St17integral_constantIbLb1EE
FN:453,_ZNSt6vectorIS_IdSaIdEESaIS1_EE14_S_do_relocateEPS1_S4_S4_RS2_St17integral_constantIbLb1EE
FNDA:32,_ZNSt6vectorIS_IdSaIdEESaIS1_EE14_S_do_relocateEPS1_S4_S4_RS2_St17integral_constantIbLb1EE
FN:453,_ZNSt6vectorIiSaIiEE14_S_do_relocateEPiS2_S2_RS0_St17integral_constantIbLb1EE
FNDA:0,_ZNSt6vectorIiSaIiEE14_S_do_relocateEPiS2_S2_RS0_St17integral_constantIbLb1EE
FN:453,_ZNSt6vectorIdSaIdEE14_S_do_relocateEPdS2_S2_RS0_St17integral_constantIbLb1EE
FNDA:96129,_ZNSt6vectorIdSaIdEE14_S_do_relocateEPdS2_S2_RS0_St17integral_constantIbLb1EE
FN:453,_ZNSt6vectorISsSaISsEE14_S_do_relocateEPSsS2_S2_RS0_St17integral_constantIbLb1EE
FNDA:0,_ZNSt6vectorISsSaISsEE14_S_do_relocateEPSsS2_S2_RS0_St17integral_constantIbLb1EE
FN:453,_ZNSt6vectorImSaImEE14_S_do_relocateEPmS2_S2_RS0_St17integral_constantIbLb1EE
FNDA:1222,_ZNSt6vectorImSaImEE14_S_do_relocateEPmS2_S2_RS0_St17integral_constantIbLb1EE
FN:453,_ZNSt6vectorIcSaIcEE14_S_do_relocateEPcS2_S2_RS0_St17integral_constantIbLb1EE
FNDA:24,_ZNSt6vectorIcSaIcEE14_S_do_relocateEPcS2_S2_RS0_St17integral_constantIbLb1EE
FN:453,_ZNSt6vectorI8DataTypeSaIS0_EE14_S_do_relocateEPS0_S3_S3_RS1_St17integral_constantIbLb1EE
FNDA:8,_ZNSt6vectorI8DataTypeSaIS0_EE14_S_do_relocateEPS0_S3_S3_RS1_St17integral_constantIbLb1EE
FN:453,_ZNSt6vectorISt4pairISsSsESaIS1_EE14_S_do_relocateEPS1_S4_S4_RS2_St17integral_constantIbLb1EE
FNDA:0,_ZNSt6vectorISt4pairISsSsESaIS1_EE14_S_do_relocateEPS1_S4_S4_RS2_St17integral_constantIbLb1EE
FN:460,_ZNSt6vectorINSt8__detail6_StateIcEESaIS2_EE14_S_do_relocateEPS2_S5_S5_RS3_St17integral_constantIbLb0EE
FNDA:0,_ZNSt6vectorINSt8__detail6_StateIcEESaIS2_EE14_S_do_relocateEPS2_S5_S5_RS3_St17integral_constantIbLb0EE
FN:465,_ZNSt6vectorINSt8__detail6_StateIcEESaIS2_EE11_S_relocateEPS2_S5_S5_RS3_
FNDA:0,_ZNSt6vectorINSt8__detail6_StateIcEESaIS2_EE11_S_relocateEPS2_S5_S5_RS3_
FN:465,_ZNSt6vectorIS_IdSaIdEESaIS1_EE11_S_relocateEPS1_S4_S4_RS2_
FNDA:32,_ZNSt6vectorIS_IdSaIdEESaIS1_EE11_S_relocateEPS1_S4_S4_RS2_
FN:465,_ZNSt6vectorI8DataTypeSaIS0_EE11_S_relocateEPS0_S3_S3_RS1_
FNDA:8,_ZNSt6vectorI8DataTypeSaIS0_EE11_S_relocateEPS0_S3_S3_RS1_
FN:465,_ZNSt6vectorISsSaISsEE11_S_relocateEPSsS2_S2_RS0_
FNDA:0,_ZNSt6vectorISsSaISsEE11_S_relocateEPSsS2_S2_RS0_
FN:465,_ZNSt6vectorIdSaIdEE11_S_relocateEPdS2_S2_RS0_
FNDA:96129,_ZNSt6vectorIdSaIdEE11_S_relocateEPdS2_S2_RS0_
FN:465,_ZNSt6vectorIcSaIcEE11_S_relocateEPcS2_S2_RS0_
FNDA:24,_ZNSt6vectorIcSaIcEE11_S_relocateEPcS2_S2_RS0_
FN:465,_ZNSt6vectorISt4pairIccESaIS1_EE11_S_relocateEPS1_S4_S4_RS2_
FNDA:12,_ZNSt6vectorISt4pairIccESaIS1_EE11_S_relocateEPS1_S4_S4_RS2_
FN:465,_ZNSt6vectorISt4pairISsSsESaIS1_EE11_S_relocateEPS1_S4_S4_RS2_
FNDA:0,_ZNSt6vectorISt4pairISsSsESaIS1_EE11_S_relocateEPS1_S4_S4_RS2_
FN:465,_ZNSt6vectorINSt12regex_traitsIcE10_RegexMaskESaIS2_EE11_S_relocateEPS2_S5_S5_RS3_
FNDA:0,_ZNSt6vectorINSt12regex_traitsIcE10_RegexMaskESaIS2_EE11_S_relocateEPS2_S5_S5_RS3_
FN:465,_ZNSt6vectorImSaImEE11_S_relocateEPmS2_S2_RS0_
FNDA:1222,_ZNSt6vectorImSaImEE11_S_relocateEPmS2_S2_RS0_
FN:465,_ZNSt6vectorISt4pairIlS_ISt9sub_matchIN9__gnu_cxx17__normal_iteratorIPKcSsEEESaIS7_EEESaISA_EE11_S_relocateEPSA_SD_SD_RSB_
FNDA:0,_ZNSt6vectorISt4pairIlS_ISt9sub_matchIN9__gnu_cxx17__normal_iteratorIPKcSsEEESaIS7_EEESaISA_EE11_S_relocateEPSA_SD_SD_RSB_
FN:465,_ZNSt6vectorIiSaIiEE11_S_relocateEPiS2_S2_RS0_
FNDA:0,_ZNSt6vectorIiSaIiEE11_S_relocateEPiS2_S2_RS0_
FN:487,_ZNSt6vectorISt9sub_matchIN9__gnu_cxx17__normal_iteratorIPKcSsEEESaIS6_EEC1Ev
FNDA:2726,_ZNSt6vectorISt9sub_matchIN9__gnu_cxx17__normal_iteratorIPKcSsEEESaIS6_EEC1Ev
FN:487,_ZNSt6vectorISsSaISsEEC1Ev
FNDA:0,_ZNSt6vectorISsSaISsEEC1Ev
FN:487,_ZNSt6vectorIiSaIiEEC1Ev
FNDA:0,_ZNSt6vectorIiSaIiEEC1Ev
FN:487,_ZNSt6vectorIS_IdSaIdEESaIS1_EEC1Ev
FNDA:5,_ZNSt6vectorIS_IdSaIdEESaIS1_EEC1Ev
FN:487,_ZNSt6vectorISt4pairIlS_ISt9sub_matchIN9__gnu_cxx17__normal_iteratorIPKcSsEEESaIS7_EEESaISA_EEC1Ev
FNDA:0,_ZNSt6vectorISt4pairIlS_ISt9sub_matchIN9__gnu_cxx17__normal_iteratorIPKcSsEEESaIS7_EEESaISA_EEC1Ev
FN:487,_ZNSt6vectorImSaImEEC1Ev
FNDA:609,_ZNSt6vectorImSaImEEC1Ev
FN:487,_ZNSt6vectorIdSaIdEEC1Ev
FNDA:12016,_ZNSt6vectorIdSaIdEEC1Ev
FN:487,_ZNSt6vectorISt4pairISsSsESaIS1_EEC1Ev
FNDA:0,_ZNSt6vectorISt4pairISsSsESaIS1_EEC1Ev
FN:487,_ZNSt6vectorI8DataTypeSaIS0_EEC1Ev
FNDA:1,_ZNSt6vectorI8DataTypeSaIS0_EEC1Ev
FN:487,_ZNSt6vectorINSt12regex_traitsIcE10_RegexMaskESaIS2_EEC1Ev
FNDA:621,_ZNSt6vectorINSt12regex_traitsIcE10_RegexMaskESaIS2_EEC1Ev
FN:487,_ZNSt6vectorINSt8__detail6_StateIcEESaIS2_EEC2Ev
FNDA:609,_ZNSt6vectorINSt8__detail6_StateIcEESaIS2_EEC2Ev
FN:487,_ZNSt6vectorISt4pairIccESaIS1_EEC1Ev
FNDA:621,_ZNSt6vectorISt4pairIccESaIS1_EEC1Ev
FN:487,_ZNSt6vectorIcSaIcEEC1Ev
FNDA:621,_ZNSt6vectorIcSaIcEEC1Ev
FN:497,_ZNSt6vectorISt9sub_matchIN9__gnu_cxx17__normal_iteratorIPKcSsEEESaIS6_EEC1ERKS7_
FNDA:0,_ZNSt6vectorISt9sub_matchIN9__gnu_cxx17__normal_iteratorIPKcSsEEESaIS6_EEC1ERKS7_
FN:497,_ZNSt6vectorISt9sub_matchIN9__gnu_cxx17__normal_iteratorIPKcSsEEESaIS6_EEC2ERKS7_
FNDA:2134,_ZNSt6vectorISt9sub_matchIN9__gnu_cxx17__normal_iteratorIPKcSsEEESaIS6_EEC2ERKS7_
FN:510,_ZNSt6vectorISt4pairIN9__gnu_cxx17__normal_iteratorIPKcSsEEiESaIS6_EEC1EmRKS7_
FNDA:2726,_ZNSt6vectorISt4pairIN9__gnu_cxx17__normal_iteratorIPKcSsEEiESaIS6_EEC1EmRKS7_
FN:522,_ZNSt6vectorISt9sub_matchIN9__gnu_cxx17__normal_iteratorIPKcSsEEESaIS6_EEC1EmRKS6_RKS7_
FNDA:1520,_ZNSt6vectorISt9sub_matchIN9__gnu_cxx17__normal_iteratorIPKcSsEEESaIS6_EEC1EmRKS6_RKS7_
FN:553,_ZNSt6vectorISt9sub_matchIN9__gnu_cxx17__normal_iteratorIPKcSsEEESaIS6_EEC1ERKS8_
FNDA:0,_ZNSt6vectorISt9sub_matchIN9__gnu_cxx17__normal_iteratorIPKcSsEEESaIS6_EEC1ERKS8_
FN:553,_ZNSt6vectorISsSaISsEEC1ERKS1_
FNDA:0,_ZNSt6vectorISsSaISsEEC1ERKS1_
FN:553,_ZNSt6vectorIS_ISsSaISsEESaIS1_EEC1ERKS3_
FNDA:0,_ZNSt6vectorIS_ISsSaISsEESaIS1_EEC1ERKS3_
FN:553,_ZNSt6vectorIcSaIcEEC1ERKS1_
FNDA:937,_ZNSt6vectorIcSaIcEEC1ERKS1_
FN:553,_ZNSt6vectorISt4pairISsSsESaIS1_EEC1ERKS3_
FNDA:0,_ZNSt6vectorISt4pairISsSsESaIS1_EEC1ERKS3_
FN:553,_ZNSt6vectorINSt12regex_traitsIcE10_RegexMaskESaIS2_EEC1ERKS4_
FNDA:937,_ZNSt6vectorINSt12regex_traitsIcE10_RegexMaskESaIS2_EEC1ERKS4_
FN:553,_ZNSt6vectorISt4pairIccESaIS1_EEC1ERKS3_
FNDA:937,_ZNSt6vectorISt4pairIccESaIS1_EEC1ERKS3_
FN:572,_ZNSt6vectorINSt12regex_traitsIcE10_RegexMaskESaIS2_EEC1EOS4_
FNDA:1242,_ZNSt6vectorINSt12regex_traitsIcE10_RegexMaskESaIS2_EEC1EOS4_
FN:572,_ZNSt6vectorISt4pairIlS_ISt9sub_matchIN9__gnu_cxx17__normal_iteratorIPKcSsEEESaIS7_EEESaISA_EEC1EOSC_
FNDA:0,_ZNSt6vectorISt4pairIlS_ISt9sub_matchIN9__gnu_cxx17__normal_iteratorIPKcSsEEESaIS7_EEESaISA_EEC1EOSC_
FN:572,_ZNSt6vectorISt4pairIccESaIS1_EEC1EOS3_
FNDA:1242,_ZNSt6vectorISt4pairIccESaIS1_EEC1EOS3_
FN:572,_ZNSt6vectorIcSaIcEEC1EOS1_
FNDA:1242,_ZNSt6vectorIcSaIcEEC1EOS1_
FN:572,_ZNSt6vectorIdSaIdEEC1EOS1_
FNDA:45,_ZNSt6vectorIdSaIdEEC1EOS1_
FN:572,_ZNSt6vectorISt9sub_matchIN9__gnu_cxx17__normal_iteratorIPKcSsEEESaIS6_EEC1EOS8_
FNDA:0,_ZNSt6vectorISt9sub_matchIN9__gnu_cxx17__normal_iteratorIPKcSsEEESaIS6_EEC1EOS8_
FN:572,_ZNSt6vectorISt4pairISsSsESaIS1_EEC1EOS3_
FNDA:0,_ZNSt6vectorISt4pairISsSsESaIS1_EEC1EOS3_
FN:572,_ZNSt6vectorISsSaISsEEC1EOS1_
FNDA:0,_ZNSt6vectorISsSaISsEEC1EOS1_
FN:625,_ZNSt6vectorISsSaISsEEC1ESt16initializer_listISsERKS0_
FNDA:0,_ZNSt6vectorISsSaISsEEC1ESt16initializer_listISsERKS0_
FN:653,_ZNSt6vectorIcSaIcEEC1IPKcvEET_S5_RKS0_
FNDA:155194,_ZNSt6vectorIcSaIcEEC1IPKcvEET_S5_RKS0_
FN:678,_ZNSt6vectorISt4pairISsSsESaIS1_EED1Ev
FNDA:0,_ZNSt6vectorISt4pairISsSsESaIS1_EED1Ev
FN:678,_ZNSt6vectorISt4pairIlS_ISt9sub_matchIN9__gnu_cxx17__normal_iteratorIPKcSsEEESaIS7_EEESaISA_EED1Ev
FNDA:0,_ZNSt6vectorISt4pairIlS_ISt9sub_matchIN9__gnu_cxx17__normal_iteratorIPKcSsEEESaIS7_EEESaISA_EED1Ev
FN:678,_ZNSt6vectorISt4pairIN9__gnu_cxx17__normal_iteratorIPKcSsEEiESaIS6_EED1Ev
FNDA:2726,_ZNSt6vectorISt4pairIN9__gnu_cxx17__normal_iteratorIPKcSsEEiESaIS6_EED1Ev
FN:678,_ZNSt6vectorINSt12regex_traitsIcE10_RegexMaskESaIS2_EED1Ev
FNDA:2793,_ZNSt6vectorINSt12regex_traitsIcE10_RegexMaskESaIS2_EED1Ev
FN:678,_ZNSt6vectorISt9sub_matchIN9__gnu_cxx17__normal_iteratorIPKcSsEEESaIS6_EED2Ev
FNDA:2428,_ZNSt6vectorISt9sub_matchIN9__gnu_cxx17__normal_iteratorIPKcSsEEESaIS6_EED2Ev
FN:678,_ZNSt6vectorIiSaIiEED1Ev
FNDA:0,_ZNSt6vectorIiSaIiEED1Ev
FN:678,_ZNSt6vectorISt4pairIccESaIS1_EED1Ev
FNDA:2793,_ZNSt6vectorISt4pairIccESaIS1_EED1Ev
FN:678,_ZNSt6vectorISt9sub_matchIN9__gnu_cxx17__normal_iteratorIPKcSsEEESaIS6_EED1Ev
FNDA:4246,_ZNSt6vectorISt9sub_matchIN9__gnu_cxx17__normal_iteratorIPKcSsEEESaIS6_EED1Ev
FN:678,_ZNSt6vectorIS_ISsSaISsEESaIS1_EED1Ev
FNDA:0,_ZNSt6vectorIS_ISsSaISsEESaIS1_EED1Ev
FN:678,_ZNSt6vectorImSaImEED1Ev
FNDA:605,_ZNSt6vectorImSaImEED1Ev
FN:678,_ZNSt6vectorIdSaIdEED1Ev
FNDA:0,_ZNSt6vectorIdSaIdEED1Ev
FN:678,_ZNSt6vectorIcSaIcEED1Ev
FNDA:157987,_ZNSt6vectorIcSaIcEED1Ev
FN:678,_ZNSt6vectorISsSaISsEED1Ev
FNDA:0,_ZNSt6vectorISsSaISsEED1Ev
FN:678,_ZNSt6vectorINSt8__detail6_StateIcEESaIS2_EED2Ev
FNDA:605,_ZNSt6vectorINSt8__detail6_StateIcEESaIS2_EED2Ev
FN:678,_ZNSt6vectorIS_IdSaIdEESaIS1_EED1Ev
FNDA:0,_ZNSt6vectorIS_IdSaIdEESaIS1_EED1Ev
FN:678,_ZNSt6vectorI8DataTypeSaIS0_EED1Ev
FNDA:0,_ZNSt6vectorI8DataTypeSaIS0_EED1Ev
FN:709,_ZNSt6vectorISt9sub_matchIN9__gnu_cxx17__normal_iteratorIPKcSsEEESaIS6_EEaSEOS8_
FNDA:0,_ZNSt6vectorISt9sub_matchIN9__gnu_cxx17__normal_iteratorIPKcSsEEESaIS6_EEaSEOS8_
FN:749,_ZNSt6vectorISt9sub_matchIN9__gnu_cxx17__normal_iteratorIPKcSsEEESaIS6_EE6assignEmRKS6_
FNDA:3910,_ZNSt6vectorISt9sub_matchIN9__gnu_cxx17__normal_iteratorIPKcSsEEESaIS6_EE6assignEmRKS6_
FN:811,_ZNSt6vectorISt4pairIccESaIS1_EE5beginEv
FNDA:6,_ZNSt6vectorISt4pairIccESaIS1_EE5beginEv
FN:811,_ZNSt6vectorISt9sub_matchIN9__gnu_cxx17__normal_iteratorIPKcSsEEESaIS6_EE5beginEv
FNDA:22969,_ZNSt6vectorISt9sub_matchIN9__gnu_cxx17__normal_iteratorIPKcSsEEESaIS6_EE5beginEv
FN:811,_ZNSt6vectorIcSaIcEE5beginEv
FNDA:1875,_ZNSt6vectorIcSaIcEE5beginEv
FN:811,_ZNSt6vectorIiSaIiEE5beginEv
FNDA:0,_ZNSt6vectorIiSaIiEE5beginEv
FN:811,_ZNSt6vectorISsSaISsEE5beginEv
FNDA:0,_ZNSt6vectorISsSaISsEE5beginEv
FN:811,_ZNSt6vectorI8DataTypeSaIS0_EE5beginEv
FNDA:4,_ZNSt6vectorI8DataTypeSaIS0_EE5beginEv
FN:811,_ZNSt6vectorImSaImEE5beginEv
FNDA:611,_ZNSt6vectorImSaImEE5beginEv
FN:811,_ZNSt6vectorINSt8__detail6_StateIcEESaIS2_EE5beginEv
FNDA:3058,_ZNSt6vectorINSt8__detail6_StateIcEESaIS2_EE5beginEv
FN:811,_ZNSt6vectorISt4pairIlS_ISt9sub_matchIN9__gnu_cxx17__normal_iteratorIPKcSsEEESaIS7_EEESaISA_EE5beginEv
FNDA:0,_ZNSt6vectorISt4pairIlS_ISt9sub_matchIN9__gnu_cxx17__normal_iteratorIPKcSsEEESaIS7_EEESaISA_EE5beginEv
FN:811,_ZNSt6vectorIdSaIdEE5beginEv
FNDA:132158,_ZNSt6vectorIdSaIdEE5beginEv
FN:811,_ZNSt6vectorINSt12regex_traitsIcE10_RegexMaskESaIS2_EE5beginEv
FNDA:0,_ZNSt6vectorINSt12regex_traitsIcE10_RegexMaskESaIS2_EE5beginEv
FN:811,_ZNSt6vectorIS_IdSaIdEESaIS1_EE5beginEv
FNDA:16,_ZNSt6vectorIS_IdSaIdEESaIS1_EE5beginEv
FN:811,_ZNSt6vectorISt4pairISsSsESaIS1_EE5beginEv
FNDA:0,_ZNSt6vectorISt4pairISsSsESaIS1_EE5beginEv
FN:820,_ZNKSt6vectorIS_ISsSaISsEESaIS1_EE5beginEv
FNDA:0,_ZNKSt6vectorIS_ISsSaISsEESaIS1_EE5beginEv
FN:820,_ZNKSt6vectorISt4pairISsSsESaIS1_EE5beginEv
FNDA:0,_ZNKSt6vectorISt4pairISsSsESaIS1_EE5beginEv
FN:820,_ZNKSt6vectorINSt12regex_traitsIcE10_RegexMaskESaIS2_EE5beginEv
FNDA:156131,_ZNKSt6vectorINSt12regex_traitsIcE10_RegexMaskESaIS2_EE5beginEv
FN:820,_ZNKSt6vectorISt4pairIccESaIS1_EE5beginEv
FNDA:159901,_ZNKSt6vectorISt4pairIccESaIS1_EE5beginEv
FN:820,_ZNKSt6vectorIcSaIcEE5beginEv
FNDA:159913,_ZNKSt6vectorIcSaIcEE5beginEv
FN:820,_ZNKSt6vectorISt4pairIlS_ISt9sub_matchIN9__gnu_cxx17__normal_iteratorIPKcSsEEESaIS7_EEESaISA_EE5beginEv
FNDA:0,_ZNKSt6vectorISt4pairIlS_ISt9sub_matchIN9__gnu_cxx17__normal_iteratorIPKcSsEEESaIS7_EEESaISA_EE5beginEv
FN:820,_ZNKSt6vectorISsSaISsEE5beginEv
FNDA:0,_ZNKSt6vectorISsSaISsEE5beginEv
FN:820,_ZNKSt6vectorISt9sub_matchIN9__gnu_cxx17__normal_iteratorIPKcSsEEESaIS6_EE5beginEv
FNDA:29840,_ZNKSt6vectorISt9sub_matchIN9__gnu_cxx17__normal_iteratorIPKcSsEEESaIS6_EE5beginEv
FN:829,_ZNSt6vectorIdSaIdEE3endEv
FNDA:96122,_ZNSt6vectorIdSaIdEE3endEv
FN:829,_ZNSt6vectorIiSaIiEE3endEv
FNDA:0,_ZNSt6vectorIiSaIiEE3endEv
FN:829,_ZNSt6vectorIS_IdSaIdEESaIS1_EE3endEv
FNDA:24024,_ZNSt6vectorIS_IdSaIdEESaIS1_EE3endEv
FN:829,_ZNSt6vectorISsSaISsEE3endEv
FNDA:0,_ZNSt6vectorISsSaISsEE3endEv
FN:829,_ZNSt6vectorI8DataTypeSaIS0_EE3endEv
FNDA:4,_ZNSt6vectorI8DataTypeSaIS0_EE3endEv
FN:829,_ZNSt6vectorISt4pairIlS_ISt9sub_matchIN9__gnu_cxx17__normal_iteratorIPKcSsEEESaIS7_EEESaISA_EE3endEv
FNDA:0,_ZNSt6vectorISt4pairIlS_ISt9sub_matchIN9__gnu_cxx17__normal_iteratorIPKcSsEEESaIS7_EEESaISA_EE3endEv
FN:829,_ZNSt6vectorINSt8__detail6_StateIcEESaIS2_EE3endEv
FNDA:3058,_ZNSt6vectorINSt8__detail6_StateIcEESaIS2_EE3endEv
FN:829,_ZNSt6vectorIcSaIcEE3endEv
FNDA:1875,_ZNSt6vectorIcSaIcEE3endEv
FN:829,_ZNSt6vectorINSt12regex_traitsIcE10_RegexMaskESaIS2_EE3endEv
FNDA:0,_ZNSt6vectorINSt12regex_traitsIcE10_RegexMaskESaIS2_EE3endEv
FN:829,_ZNSt6vectorISt4pairISsSsESaIS1_EE3endEv
FNDA:0,_ZNSt6vectorISt4pairISsSsESaIS1_EE3endEv
FN:829,_ZNSt6vectorISt4pairIccESaIS1_EE3endEv
FNDA:6,_ZNSt6vectorISt4pairIccESaIS1_EE3endEv
FN:829,_ZNSt6vectorImSaImEE3endEv
FNDA:1224,_ZNSt6vectorImSaImEE3endEv
FN:829,_ZNSt6vectorISt9sub_matchIN9__gnu_cxx17__normal_iteratorIPKcSsEEESaIS6_EE3endEv
FNDA:22969,_ZNSt6vectorISt9sub_matchIN9__gnu_cxx17__normal_iteratorIPKcSsEEESaIS6_EE3endEv
FN:838,_ZNKSt6vectorISt4pairIlS_ISt9sub_matchIN9__gnu_cxx17__normal_iteratorIPKcSsEEESaIS7_EEESaISA_EE3endEv
FNDA:0,_ZNKSt6vectorISt4pairIlS_ISt9sub_matchIN9__gnu_cxx17__normal_iteratorIPKcSsEEESaIS7_EEESaISA_EE3endEv
FN:838,_ZNKSt6vectorISsSaISsEE3endEv
FNDA:0,_ZNKSt6vectorISsSaISsEE3endEv
FN:838,_ZNKSt6vectorINSt12regex_traitsIcE10_RegexMaskESaIS2_EE3endEv
FNDA:156131,_ZNKSt6vectorINSt12regex_traitsIcE10_RegexMaskESaIS2_EE3endEv
FN:838,_ZNKSt6vectorISt4pairISsSsESaIS1_EE3endEv
FNDA:0,_ZNKSt6vectorISt4pairISsSsESaIS1_EE3endEv
FN:838,_ZNKSt6vectorISt4pairIccESaIS1_EE3endEv
FNDA:159901,_ZNKSt6vectorISt4pairIccESaIS1_EE3endEv
FN:838,_ZNKSt6vectorIS_ISsSaISsEESaIS1_EE3endEv
FNDA:0,_ZNKSt6vectorIS_ISsSaISsEESaIS1_EE3endEv
FN:838,_ZNKSt6vectorISt9sub_matchIN9__gnu_cxx17__normal_iteratorIPKcSsEEESaIS6_EE3endEv
FNDA:29840,_ZNKSt6vectorISt9sub_matchIN9__gnu_cxx17__normal_iteratorIPKcSsEEESaIS6_EE3endEv
FN:838,_ZNKSt6vectorIcSaIcEE3endEv
FNDA:159913,_ZNKSt6vectorIcSaIcEE3endEv
FN:884,_ZNKSt6vectorIcSaIcEE6cbeginEv
FNDA:621,_ZNKSt6vectorIcSaIcEE6cbeginEv
FN:918,_ZNKSt6vectorISsSaISsEE4sizeEv
FNDA:0,_ZNKSt6vectorISsSaISsEE4sizeEv
FN:918,_ZNKSt6vectorIS_ISsSaISsEESaIS1_EE4sizeEv
FNDA:0,_ZNKSt6vectorIS_ISsSaISsEESaIS1_EE4sizeEv
FN:918,_ZNKSt6vectorIS_IdSaIdEESaIS1_EE4sizeEv
FNDA:0,_ZNKSt6vectorIS_IdSaIdEESaIS1_EE4sizeEv
FN:918,_ZNKSt6vectorIcSaIcEE4sizeEv
FNDA:311373,_ZNKSt6vectorIcSaIcEE4sizeEv
FN:918,_ZNKSt6vectorISt9sub_matchIN9__gnu_cxx17__normal_iteratorIPKcSsEEESaIS6_EE4sizeEv
FNDA:58683,_ZNKSt6vectorISt9sub_matchIN9__gnu_cxx17__normal_iteratorIPKcSsEEESaIS6_EE4sizeEv
FN:918,_ZNKSt6vectorIdSaIdEE4sizeEv
FNDA:0,_ZNKSt6vectorIdSaIdEE4sizeEv
FN:918,_ZNKSt6vectorImSaImEE4sizeEv
FNDA:2444,_ZNKSt6vectorImSaImEE4sizeEv
FN:918,_ZNKSt6vectorINSt12regex_traitsIcE10_RegexMaskESaIS2_EE4sizeEv
FNDA:937,_ZNKSt6vectorINSt12regex_traitsIcE10_RegexMaskESaIS2_EE4sizeEv
FN:918,_ZNKSt6vectorINSt8__detail6_StateIcEESaIS2_EE4sizeEv
FNDA:0,_ZNKSt6vectorINSt8__detail6_StateIcEESaIS2_EE4sizeEv
FN:918,_ZNKSt6vectorISt4pairIccESaIS1_EE4sizeEv
FNDA:961,_ZNKSt6vectorISt4pairIccESaIS1_EE4sizeEv
FN:918,_ZNKSt6vectorISt4pairIlS_ISt9sub_matchIN9__gnu_cxx17__normal_iteratorIPKcSsEEESaIS7_EEESaISA_EE4sizeEv
FNDA:0,_ZNKSt6vectorISt4pairIlS_ISt9sub_matchIN9__gnu_cxx17__normal_iteratorIPKcSsEEESaIS7_EEESaISA_EE4sizeEv
FN:918,_ZNKSt6vectorI8DataTypeSaIS0_EE4sizeEv
FNDA:16,_ZNKSt6vectorI8DataTypeSaIS0_EE4sizeEv
FN:918,_ZNKSt6vectorISt4pairISsSsESaIS1_EE4sizeEv
FNDA:0,_ZNKSt6vectorISt4pairISsSsESaIS1_EE4sizeEv
FN:918,_ZNKSt6vectorIiSaIiEE4sizeEv
FNDA:0,_ZNKSt6vectorIiSaIiEE4sizeEv
FN:923,_ZNKSt6vectorIdSaIdEE8max_sizeEv
FNDA:96156,_ZNKSt6vectorIdSaIdEE8max_sizeEv
FN:923,_ZNKSt6vectorISt4pairIlS_ISt9sub_matchIN9__gnu_cxx17__normal_iteratorIPKcSsEEESaIS7_EEESaISA_EE8max_sizeEv
FNDA:0,_ZNKSt6vectorISt4pairIlS_ISt9sub_matchIN9__gnu_cxx17__normal_iteratorIPKcSsEEESaIS7_EEESaISA_EE8max_sizeEv
FN:923,_ZNKSt6vectorINSt12regex_traitsIcE10_RegexMaskESaIS2_EE8max_sizeEv
FNDA:0,_ZNKSt6vectorINSt12regex_traitsIcE10_RegexMaskESaIS2_EE8max_sizeEv
FN:923,_ZNKSt6vectorI8DataTypeSaIS0_EE8max_sizeEv
FNDA:8,_ZNKSt6vectorI8DataTypeSaIS0_EE8max_sizeEv
FN:923,_ZNKSt6vectorIS_IdSaIdEESaIS1_EE8max_sizeEv
FNDA:32,_ZNKSt6vectorIS_IdSaIdEESaIS1_EE8max_sizeEv
FN:923,_ZNKSt6vectorIiSaIiEE8max_sizeEv
FNDA:0,_ZNKSt6vectorIiSaIiEE8max_sizeEv
FN:923,_ZNKSt6vectorINSt8__detail6_StateIcEESaIS2_EE8max_sizeEv
FNDA:4898,_ZNKSt6vectorINSt8__detail6_StateIcEESaIS2_EE8max_sizeEv
FN:923,_ZNKSt6vectorISt4pairISsSsESaIS1_EE8max_sizeEv
FNDA:0,_ZNKSt6vectorISt4pairISsSsESaIS1_EE8max_sizeEv
FN:923,_ZNKSt6vectorISsSaISsEE8max_sizeEv
FNDA:0,_ZNKSt6vectorISsSaISsEE8max_sizeEv
FN:923,_ZNKSt6vectorISt4pairIccESaIS1_EE8max_sizeEv
FNDA:12,_ZNKSt6vectorISt4pairIccESaIS1_EE8max_sizeEv
FN:923,_ZNKSt6vectorIcSaIcEE8max_sizeEv
FNDA:24,_ZNKSt6vectorIcSaIcEE8max_sizeEv
FN:923,_ZNKSt6vectorImSaImEE8max_sizeEv
FNDA:1222,_ZNKSt6vectorImSaImEE8max_sizeEv
FN:998,_ZNKSt6vectorISsSaISsEE8capacityEv
FNDA:1,_ZNKSt6vectorISsSaISsEE8capacityEv
FN:998,_ZNKSt6vectorISt9sub_matchIN9__gnu_cxx17__normal_iteratorIPKcSsEEESaIS6_EE8capacityEv
FNDA:27192,_ZNKSt6vectorISt9sub_matchIN9__gnu_cxx17__normal_iteratorIPKcSsEEESaIS6_EE8capacityEv
FN:1007,_ZNKSt6vectorISt4pairIlS_ISt9sub_matchIN9__gnu_cxx17__normal_iteratorIPKcSsEEESaIS7_EEESaISA_EE5emptyEv
FNDA:0,_ZNKSt6vectorISt4pairIlS_ISt9sub_matchIN9__gnu_cxx17__normal_iteratorIPKcSsEEESaIS7_EEESaISA_EE5emptyEv
FN:1043,_ZNSt6vectorISsSaISsEEixEm
FNDA:0,_ZNSt6vectorISsSaISsEEixEm
FN:1043,_ZNSt6vectorIS_ISsSaISsEESaIS1_EEixEm
FNDA:0,_ZNSt6vectorIS_ISsSaISsEESaIS1_EEixEm
FN:1043,_ZNSt6vectorIiSaIiEEixEm
FNDA:420091,_ZNSt6vectorIiSaIiEEixEm
FN:1043,_ZNSt6vectorIS_IdSaIdEESaIS1_EEixEm
FNDA:360155,_ZNSt6vectorIS_IdSaIdEESaIS1_EEixEm
FN:1043,_ZNSt6vectorISt4pairIN9__gnu_cxx17__normal_iteratorIPKcSsEEiESaIS6_EEixEm
FNDA:9416,_ZNSt6vectorISt4pairIN9__gnu_cxx17__normal_iteratorIPKcSsEEiESaIS6_EEixEm
FN:1043,_ZNSt6vectorI8DataTypeSaIS0_EEixEm
FNDA:12,_ZNSt6vectorI8DataTypeSaIS0_EEixEm
FN:1043,_ZNSt6vectorINSt8__detail6_StateIcEESaIS2_EEixEm
FNDA:10128,_ZNSt6vectorINSt8__detail6_StateIcEESaIS2_EEixEm
FN:1043,_ZNSt6vectorIdSaIdEEixEm
FNDA:0,_ZNSt6vectorIdSaIdEEixEm
FN:1043,_ZNSt6vectorISt9sub_matchIN9__gnu_cxx17__normal_iteratorIPKcSsEEESaIS6_EEixEm
FNDA:32036,_ZNSt6vectorISt9sub_matchIN9__gnu_cxx17__normal_iteratorIPKcSsEEESaIS6_EEixEm
FN:1061,_ZNKSt6vectorINSt8__detail6_StateIcEESaIS2_EEixEm
FNDA:0,_ZNKSt6vectorINSt8__detail6_StateIcEESaIS2_EEixEm
FN:1143,_ZNSt6vectorImSaImEE4backEv
FNDA:613,_ZNSt6vectorImSaImEE4backEv
FN:1168,_ZNSt6vectorIcSaIcEE4dataEv
FNDA:620776,_ZNSt6vectorIcSaIcEE4dataEv
FN:1187,_ZNSt6vectorImSaImEE9push_backERKm
FNDA:613,_ZNSt6vectorImSaImEE9push_backERKm
FN:1187,_ZNSt6vectorISsSaISsEE9push_backERKSs
FNDA:0,_ZNSt6vectorISsSaISsEE9push_backERKSs
FN:1187,_ZNSt6vectorINSt12regex_traitsIcE10_RegexMaskESaIS2_EE9push_backERKS2_
FNDA:0,_ZNSt6vectorINSt12regex_traitsIcE10_RegexMaskESaIS2_EE9push_backERKS2_
FN:1203,_ZNSt6vectorINSt8__detail6_StateIcEESaIS2_EE9push_backEOS2_
FNDA:4359,_ZNSt6vectorINSt8__detail6_StateIcEESaIS2_EE9push_backEOS2_
FN:1203,_ZNSt6vectorISt4pairIccESaIS1_EE9push_backEOS1_
FNDA:6,_ZNSt6vectorISt4pairIccESaIS1_EE9push_backEOS1_
FN:1203,_ZNSt6vectorISt4pairISsSsESaIS1_EE9push_backEOS1_
FNDA:0,_ZNSt6vectorISt4pairISsSsESaIS1_EE9push_backEOS1_
FN:1203,_ZNSt6vectorIcSaIcEE9push_backEOc
FNDA:12,_ZNSt6vectorIcSaIcEE9push_backEOc
FN:1225,_ZNSt6vectorImSaImEE8pop_backEv
FNDA:613,_ZNSt6vectorImSaImEE8pop_backEv
FN:1457,_ZNSt6vectorIcSaIcEE5eraseEN9__gnu_cxx17__normal_iteratorIPKcS1_EES6_
FNDA:621,_ZNSt6vectorIcSaIcEE5eraseEN9__gnu_cxx17__normal_iteratorIPKcS1_EES6_
FN:1498,_ZNSt6vectorISsSaISsEE5clearEv
FNDA:0,_ZNSt6vectorISsSaISsEE5clearEv
FN:1498,_ZNSt6vectorISt9sub_matchIN9__gnu_cxx17__normal_iteratorIPKcSsEEESaIS6_EE5clearEv
FNDA:0,_ZNSt6vectorISt9sub_matchIN9__gnu_cxx17__normal_iteratorIPKcSsEEESaIS6_EE5clearEv
FN:1498,_ZNSt6vectorISt4pairIlS_ISt9sub_matchIN9__gnu_cxx17__normal_iteratorIPKcSsEEESaIS7_EEESaISA_EE5clearEv
FNDA:0,_ZNSt6vectorISt4pairIlS_ISt9sub_matchIN9__gnu_cxx17__normal_iteratorIPKcSsEEESaIS7_EEESaISA_EE5clearEv
FN:1508,_ZNSt6vectorISt9sub_matchIN9__gnu_cxx17__normal_iteratorIPKcSsEEESaIS6_EE20_M_allocate_and_copyINS2_IPKS6_S8_EEEEPS6_mT_SE_
FNDA:2726,_ZNSt6vectorISt9sub_matchIN9__gnu_cxx17__normal_iteratorIPKcSsEEESaIS6_EE20_M_allocate_and_copyINS2_IPKS6_S8_EEEEPS6_mT_SE_
FN:1508,_ZNSt6vectorISsSaISsEE20_M_allocate_and_copyIN9__gnu_cxx17__normal_iteratorIPKSsS1_EEEEPSsmT_S9_
FNDA:1,_ZNSt6vectorISsSaISsEE20_M_allocate_and_copyIN9__gnu_cxx17__normal_iteratorIPKSsS1_EEEEPSsmT_S9_
FN:1577,_ZNSt6vectorISsSaISsEE19_M_range_initializeIPKSsEEvT_S5_St20forward_iterator_tag
FNDA:0,_ZNSt6vectorISsSaISsEE19_M_range_initializeIPKSsEEvT_S5_St20forward_iterator_tag
FN:1577,_ZNSt6vectorIcSaIcEE19_M_range_initializeIPKcEEvT_S5_St20forward_iterator_tag
FNDA:155194,_ZNSt6vectorIcSaIcEE19_M_range_initializeIPKcEEvT_S5_St20forward_iterator_tag
FN:1593,_ZNSt6vectorISt9sub_matchIN9__gnu_cxx17__normal_iteratorIPKcSsEEESaIS6_EE18_M_fill_initializeEmRKS6_
FNDA:1520,_ZNSt6vectorISt9sub_matchIN9__gnu_cxx17__normal_iteratorIPKcSsEEESaIS6_EE18_M_fill_initializeEmRKS6_
FN:1603,_ZNSt6vectorISt4pairIN9__gnu_cxx17__normal_iteratorIPKcSsEEiESaIS6_EE21_M_default_initializeEm
FNDA:2726,_ZNSt6vectorISt4pairIN9__gnu_cxx17__normal_iteratorIPKcSsEEiESaIS6_EE21_M_default_initializeEm
FN:1756,_ZNKSt6vectorIdSaIdEE12_M_check_lenEmPKc
FNDA:48069,_ZNKSt6vectorIdSaIdEE12_M_check_lenEmPKc
FN:1756,_ZNKSt6vectorISt4pairIlS_ISt9sub_matchIN9__gnu_cxx17__normal_iteratorIPKcSsEEESaIS7_EEESaISA_EE12_M_check_lenEmS5_
FNDA:0,_ZNKSt6vectorISt4pairIlS_ISt9sub_matchIN9__gnu_cxx17__normal_iteratorIPKcSsEEESaIS7_EEESaISA_EE12_M_check_lenEmS5_
FN:1756,_ZNKSt6vectorISsSaISsEE12_M_check_lenEmPKc
FNDA:0,_ZNKSt6vectorISsSaISsEE12_M_check_lenEmPKc
FN:1756,_ZNKSt6vectorIiSaIiEE12_M_check_lenEmPKc
FNDA:0,_ZNKSt6vectorIiSaIiEE12_M_check_lenEmPKc
FN:1756,_ZNKSt6vectorIS_IdSaIdEESaIS1_EE12_M_check_lenEmPKc
FNDA:16,_ZNKSt6vectorIS_IdSaIdEESaIS1_EE12_M_check_lenEmPKc
FN:1756,_ZNKSt6vectorI8DataTypeSaIS0_EE12_M_check_lenEmPKc
FNDA:4,_ZNKSt6vectorI8DataTypeSaIS0_EE12_M_check_lenEmPKc
FN:1756,_ZNKSt6vectorISt4pairISsSsESaIS1_EE12_M_check_lenEmPKc
FNDA:0,_ZNKSt6vectorISt4pairISsSsESaIS1_EE12_M_check_lenEmPKc
FN:1756,_ZNKSt6vectorISt4pairIccESaIS1_EE12_M_check_lenEmPKc
FNDA:6,_ZNKSt6vectorISt4pairIccESaIS1_EE12_M_check_lenEmPKc
FN:1756,_ZNKSt6vectorImSaImEE12_M_check_lenEmPKc
FNDA:611,_ZNKSt6vectorImSaImEE12_M_check_lenEmPKc
FN:1756,_ZNKSt6vectorINSt12regex_traitsIcE10_RegexMaskESaIS2_EE12_M_check_lenEmPKc
FNDA:0,_ZNKSt6vectorINSt12regex_traitsIcE10_RegexMaskESaIS2_EE12_M_check_lenEmPKc
FN:1756,_ZNKSt6vectorIcSaIcEE12_M_check_lenEmPKc
FNDA:12,_ZNKSt6vectorIcSaIcEE12_M_check_lenEmPKc
FN:1756,_ZNKSt6vectorINSt8__detail6_StateIcEESaIS2_EE12_M_check_lenEmPKc
FNDA:2449,_ZNKSt6vectorINSt8__detail6_StateIcEESaIS2_EE12_M_check_lenEmPKc
FN:1767,_ZNSt6vectorIcSaIcEE17_S_check_init_lenEmRKS0_
FNDA:155194,_ZNSt6vectorIcSaIcEE17_S_check_init_lenEmRKS0_
FN:1767,_ZNSt6vectorISt4pairIN9__gnu_cxx17__normal_iteratorIPKcSsEEiESaIS6_EE17_S_check_init_lenEmRKS7_
FNDA:2726,_ZNSt6vectorISt4pairIN9__gnu_cxx17__normal_iteratorIPKcSsEEiESaIS6_EE17_S_check_init_lenEmRKS7_
FN:1767,_ZNSt6vectorISt9sub_matchIN9__gnu_cxx17__normal_iteratorIPKcSsEEESaIS6_EE17_S_check_init_lenEmRKS7_
FNDA:1520,_ZNSt6vectorISt9sub_matchIN9__gnu_cxx17__normal_iteratorIPKcSsEEESaIS6_EE17_S_check_init_lenEmRKS7_
FN:1767,_ZNSt6vectorISsSaISsEE17_S_check_init_lenEmRKS0_
FNDA:0,_ZNSt6vectorISsSaISsEE17_S_check_init_lenEmRKS0_
FN:1776,_ZNSt6vectorIcSaIcEE11_S_max_sizeERKS0_
FNDA:155218,_ZNSt6vectorIcSaIcEE11_S_max_sizeERKS0_
FN:1776,_ZNSt6vectorINSt12regex_traitsIcE10_RegexMaskESaIS2_EE11_S_max_sizeERKS3_
FNDA:0,_ZNSt6vectorINSt12regex_traitsIcE10_RegexMaskESaIS2_EE11_S_max_sizeERKS3_
FN:1776,_ZNSt6vectorISt4pairIccESaIS1_EE11_S_max_sizeERKS2_
FNDA:12,_ZNSt6vectorISt4pairIccESaIS1_EE11_S_max_sizeERKS2_
FN:1776,_ZNSt6vectorISt4pairISsSsESaIS1_EE11_S_max_sizeERKS2_
FNDA:0,_ZNSt6vectorISt4pairISsSsESaIS1_EE11_S_max_sizeERKS2_
FN:1776,_ZNSt6vectorISsSaISsEE11_S_max_sizeERKS0_
FNDA:0,_ZNSt6vectorISsSaISsEE11_S_max_sizeERKS0_
FN:1776,_ZNSt6vectorI8DataTypeSaIS0_EE11_S_max_sizeERKS1_
FNDA:8,_ZNSt6vectorI8DataTypeSaIS0_EE11_S_max_sizeERKS1_
FN:1776,_ZNSt6vectorIS_IdSaIdEESaIS1_EE11_S_max_sizeERKS2_
FNDA:0,_ZNSt6vectorIS_IdSaIdEESaIS1_EE11_S_max_sizeERKS2_
FN:1776,_ZNSt6vectorIiSaIiEE11_S_max_sizeERKS0_
FNDA:0,_ZNSt6vectorIiSaIiEE11_S_max_sizeERKS0_
FN:1776,_ZNSt6vectorIdSaIdEE11_S_max_sizeERKS0_
FNDA:0,_ZNSt6vectorIdSaIdEE11_S_max_sizeERKS0_
FN:1776,_ZNSt6vectorISt4pairIN9__gnu_cxx17__normal_iteratorIPKcSsEEiESaIS6_EE11_S_max_sizeERKS7_
FNDA:2726,_ZNSt6vectorISt4pairIN9__gnu_cxx17__normal_iteratorIPKcSsEEiESaIS6_EE11_S_max_sizeERKS7_
FN:1776,_ZNSt6vectorISt9sub_matchIN9__gnu_cxx17__normal_iteratorIPKcSsEEESaIS6_EE11_S_max_sizeERKS7_
FNDA:1520,_ZNSt6vectorISt9sub_matchIN9__gnu_cxx17__normal_iteratorIPKcSsEEESaIS6_EE11_S_max_sizeERKS7_
FN:1776,_ZNSt6vectorImSaImEE11_S_max_sizeERKS0_
FNDA:1222,_ZNSt6vectorImSaImEE11_S_max_sizeERKS0_
FN:1776,_ZNSt6vectorINSt8__detail6_StateIcEESaIS2_EE11_S_max_sizeERKS3_
FNDA:4898,_ZNSt6vectorINSt8__detail6_StateIcEESaIS2_EE11_S_max_sizeERKS3_
FN:1776,_ZNSt6vectorISt4pairIlS_ISt9sub_matchIN9__gnu_cxx17__normal_iteratorIPKcSsEEESaIS7_EEESaISA_EE11_S_max_sizeERKSB_
FNDA:0,_ZNSt6vectorISt4pairIlS_ISt9sub_matchIN9__gnu_cxx17__normal_iteratorIPKcSsEEESaIS7_EEESaISA_EE11_S_max_sizeERKSB_
FN:1792,_ZNSt6vectorIcSaIcEE15_M_erase_at_endEPc
FNDA:0,_ZNSt6vectorIcSaIcEE15_M_erase_at_endEPc
FN:1792,_ZNSt6vectorISt4pairIlS_ISt9sub_matchIN9__gnu_cxx17__normal_iteratorIPKcSsEEESaIS7_EEESaISA_EE15_M_erase_at_endEPSA_
FNDA:0,_ZNSt6vectorISt4pairIlS_ISt9sub_matchIN9__gnu_cxx17__normal_iteratorIPKcSsEEESaIS7_EEESaISA_EE15_M_erase_at_endEPSA_
FN:1792,_ZNSt6vectorISt9sub_matchIN9__gnu_cxx17__normal_iteratorIPKcSsEEESaIS6_EE15_M_erase_at_endEPS6_
FNDA:1519,_ZNSt6vectorISt9sub_matchIN9__gnu_cxx17__normal_iteratorIPKcSsEEESaIS6_EE15_M_erase_at_endEPS6_
FN:1792,_ZNSt6vectorISsSaISsEE15_M_erase_at_endEPSs
FNDA:0,_ZNSt6vectorISsSaISsEE15_M_erase_at_endEPSs
FN:1815,_ZNSt6vectorISt9sub_matchIN9__gnu_cxx17__normal_iteratorIPKcSsEEESaIS6_EE14_M_move_assignEOS8_St17integral_constantIbLb1EE
FNDA:0,_ZNSt6vectorISt9sub_matchIN9__gnu_cxx17__normal_iteratorIPKcSsEEESaIS6_EE14_M_move_assignEOS8_St17integral_constantIbLb1EE
FN:1844,_ZNKSt6vectorIcSaIcEE11_M_data_ptrIcEEPT_S4_
FNDA:620776,_ZNKSt6vectorIcSaIcEE11_M_data_ptrIcEEPT_S4_
FNF:408
FNH:227
DA:97,609
DA:98,609
DA:99,609
DA:97,0
DA:98,0
DA:99,0
DA:97,1558
DA:98,1558
DA:99,1558
DA:97,1558
DA:98,1558
DA:99,1558
DA:97,156752
DA:98,156752
DA:99,156752
DA:97,2726
DA:98,2726
DA:99,2726
DA:97,0
DA:98,0
DA:99,0
DA:97,1520
DA:98,1520
DA:99,1520
DA:97,6674
DA:98,6674
DA:99,6674
DA:97,0
DA:98,0
DA:99,0
DA:97,0
DA:98,0
DA:99,0
DA:97,0
DA:98,0
DA:99,0
DA:97,1
DA:98,1
DA:99,1
DA:97,0
DA:98,0
DA:99,0
DA:97,0
DA:98,0
DA:99,0
DA:97,609
DA:98,609
DA:99,609
DA:102,0
DA:103,0
DA:104,0
DA:105,0
DA:102,0
DA:103,0
DA:104,0
DA:105,0
DA:102,1242
DA:103,1242
DA:104,1242
DA:105,1242
DA:102,1242
DA:103,1242
DA:104,1242
DA:105,1242
DA:102,0
DA:103,0
DA:104,0
DA:105,0
DA:102,1242
DA:103,1242
DA:104,1242
DA:105,1242
DA:102,0
DA:103,0
DA:104,0
DA:105,0
DA:102,45
DA:103,45
DA:104,45
DA:105,45
DA:109,4560
DA:111,4560
DA:112,4560
DA:113,4560
DA:114,4560
DA:117,1520
DA:121,1520
DA:122,1520
DA:123,1520
DA:124,1520
DA:125,1520
DA:131,609
DA:133,609
DA:134,609
DA:131,0
DA:133,0
DA:134,0
DA:131,621
DA:133,621
DA:134,621
DA:131,621
DA:133,621
DA:134,621
DA:131,621
DA:133,621
DA:134,621
DA:131,0
DA:133,0
DA:134,0
DA:131,2726
DA:133,2726
DA:134,2726
DA:131,0
DA:133,0
DA:134,0
DA:131,12016
DA:133,12016
DA:134,12016
DA:131,1
DA:133,1
DA:134,1
DA:131,5
DA:133,5
DA:134,5
DA:131,0
DA:133,0
DA:134,0
DA:131,609
DA:133,609
DA:134,609
DA:136,0
DA:137,0
DA:138,0
DA:136,937
DA:137,937
DA:138,937
DA:136,937
DA:137,937
DA:138,937
DA:136,156131
DA:137,156131
DA:138,156131
DA:136,2726
DA:137,2726
DA:138,2726
DA:136,3948
DA:137,3948
DA:138,3948
DA:136,0
DA:137,0
DA:138,0
DA:136,0
DA:137,0
DA:138,0
DA:143,0
DA:144,0
DA:145,0
DA:143,0
DA:144,0
DA:145,0
DA:143,1242
DA:144,1242
DA:145,1242
DA:143,1242
DA:144,1242
DA:145,1242
DA:143,0
DA:144,0
DA:145,0
DA:143,1242
DA:144,1242
DA:145,1242
DA:143,0
DA:144,0
DA:145,0
DA:143,45
DA:144,45
DA:145,45
DA:276,0
DA:277,0
DA:276,3730
DA:277,3730
DA:276,3742
DA:277,3742
DA:276,469336
DA:277,469336
DA:276,7952
DA:277,7952
DA:276,0
DA:277,0
DA:276,5452
DA:277,5452
DA:276,38071
DA:277,38071
DA:276,0
DA:277,0
DA:276,0
DA:277,0
DA:276,0
DA:277,0
DA:276,0
DA:277,0
DA:276,0
DA:277,0
DA:276,0
DA:277,0
DA:276,1827
DA:277,1827
DA:280,0
DA:281,0
DA:280,949
DA:281,949
DA:280,961
DA:281,961
DA:280,937
DA:281,937
DA:280,0
DA:281,0
DA:280,4898
DA:281,4898
DA:280,1222
DA:281,1222
DA:280,294
DA:281,294
DA:280,0
DA:281,0
DA:280,0
DA:281,0
DA:280,0
DA:281,0
DA:280,8
DA:281,8
DA:280,0
DA:281,0
DA:280,0
DA:281,0
DA:284,0
DA:285,0
DA:288,609
DA:288,0
DA:288,621
DA:288,621
DA:288,621
DA:288,0
DA:288,2726
DA:288,0
DA:288,12016
DA:288,1
DA:288,5
DA:288,0
DA:288,609
DA:293,155194
DA:294,155194
DA:293,2134
DA:294,2134
DA:293,0
DA:294,0
DA:303,0
DA:304,0
DA:305,0
DA:303,937
DA:304,937
DA:305,937
DA:303,937
DA:304,937
DA:305,937
DA:303,937
DA:304,937
DA:305,937
DA:303,1814
DA:304,1814
DA:305,1814
DA:303,0
DA:304,0
DA:305,0
DA:303,2726
DA:304,2726
DA:305,2726
DA:303,0
DA:304,0
DA:305,0
DA:308,0
DA:308,0
DA:308,1242
DA:308,1242
DA:308,0
DA:308,1242
DA:308,0
DA:308,45
DA:333,605
DA:335,605
DA:336,605
DA:337,605
DA:333,0
DA:335,0
DA:336,0
DA:337,0
DA:333,2793
DA:335,2793
DA:336,2793
DA:337,2793
DA:333,2793
DA:335,2793
DA:336,2793
DA:337,2793
DA:333,157987
DA:335,157987
DA:336,157987
DA:337,157987
DA:333,0
DA:335,0
DA:336,0
DA:337,0
DA:333,2726
DA:335,2726
DA:336,2726
DA:337,2726
DA:333,6674
DA:335,6674
DA:336,6674
DA:337,6674
DA:333,0
DA:335,0
DA:336,0
DA:337,0
DA:333,0
DA:335,0
DA:336,0
DA:337,0
DA:333,0
DA:335,0
DA:336,0
DA:337,0
DA:333,0
DA:335,0
DA:336,0
DA:337,0
DA:333,0
DA:335,0
DA:336,0
DA:337,0
DA:333,0
DA:335,0
DA:336,0
DA:337,0
DA:333,605
DA:335,605
DA:336,605
DA:337,605
DA:343,0
DA:346,0
DA:343,943
DA:346,943
DA:343,156143
DA:346,156143
DA:343,937
DA:346,937
DA:343,0
DA:346,0
DA:343,2449
DA:346,2449
DA:343,4540
DA:346,4540
DA:343,2726
DA:346,2726
DA:343,611
DA:346,611
DA:343,0
DA:346,0
DA:343,0
DA:346,0
DA:343,0
DA:346,0
DA:343,0
DA:346,0
DA:343,4
DA:346,4
DA:343,0
DA:346,0
DA:350,0
DA:353,0
DA:354,0
DA:355,0
DA:350,2793
DA:353,2793
DA:354,0
DA:355,2793
DA:350,2799
DA:353,2799
DA:354,10
DA:355,2799
DA:350,157999
DA:353,157999
DA:354,155208
DA:355,157999
DA:350,3054
DA:353,3054
DA:354,2445
DA:355,3054
DA:350,0
DA:353,0
DA:354,0
DA:355,0
DA:350,2726
DA:353,2726
DA:354,2726
DA:355,2726
DA:350,9400
DA:353,9400
DA:354,4540
DA:355,9400
DA:350,0
DA:353,0
DA:354,0
DA:355,0
DA:350,0
DA:353,0
DA:354,0
DA:355,0
DA:350,0
DA:353,0
DA:354,0
DA:355,0
DA:350,0
DA:353,0
DA:354,0
DA:355,0
DA:350,0
DA:353,0
DA:354,0
DA:355,0
DA:350,0
DA:353,0
DA:354,0
DA:355,0
DA:350,1216
DA:353,1216
DA:354,607
DA:355,1216
DA:359,0
DA:361,0
DA:362,0
DA:363,0
DA:364,0
DA:359,937
DA:361,937
DA:362,937
DA:363,937
DA:364,937
DA:359,937
DA:361,937
DA:362,937
DA:363,937
DA:364,937
DA:359,937
DA:361,937
DA:362,937
DA:363,937
DA:364,937
DA:359,1814
DA:361,1814
DA:362,1814
DA:363,1814
DA:364,1814
DA:359,0
DA:361,0
DA:362,0
DA:363,0
DA:364,0
DA:359,2726
DA:361,2726
DA:362,2726
DA:363,2726
DA:364,2726
DA:359,0
DA:361,0
DA:362,0
DA:363,0
DA:364,0
DA:431,0
DA:436,0
DA:431,12
DA:436,12
DA:431,24
DA:436,24
DA:431,0
DA:436,0
DA:431,0
DA:436,0
DA:431,4898
DA:436,4898
DA:431,1222
DA:436,1222
DA:431,0
DA:436,0
DA:431,96129
DA:436,96129
DA:431,0
DA:436,0
DA:431,32
DA:436,32
DA:431,8
DA:436,8
DA:444,0
DA:449,0
DA:444,12
DA:449,12
DA:444,24
DA:449,24
DA:444,0
DA:449,0
DA:444,0
DA:449,0
DA:444,4898
DA:449,4898
DA:444,1222
DA:449,1222
DA:444,0
DA:449,0
DA:444,96129
DA:449,96129
DA:444,0
DA:449,0
DA:444,32
DA:449,32
DA:444,8
DA:449,8
DA:453,0
DA:456,0
DA:453,12
DA:456,12
DA:453,24
DA:456,24
DA:453,0
DA:456,0
DA:453,0
DA:456,0
DA:453,1222
DA:456,1222
DA:453,0
DA:456,0
DA:453,96129
DA:456,96129
DA:453,0
DA:456,0
DA:453,32
DA:456,32
DA:453,8
DA:456,8
DA:460,0
DA:462,0
DA:465,0
DA:469,0
DA:465,12
DA:469,12
DA:465,24
DA:469,24
DA:465,0
DA:469,0
DA:465,0
DA:469,0
DA:465,0
DA:469,0
DA:465,1222
DA:469,1222
DA:465,0
DA:469,0
DA:465,96129
DA:469,96129
DA:465,0
DA:469,0
DA:465,32
DA:469,32
DA:465,8
DA:469,8
DA:487,609
DA:487,0
DA:487,621
DA:487,621
DA:487,621
DA:487,0
DA:487,2726
DA:487,0
DA:487,12016
DA:487,1
DA:487,5
DA:487,0
DA:487,609
DA:497,0
DA:498,0
DA:497,2134
DA:498,2134
DA:510,2726
DA:511,2726
DA:512,2726
DA:522,1520
DA:524,1520
DA:525,1520
DA:553,0
DA:555,0
DA:557,0
DA:558,0
DA:560,0
DA:561,0
DA:553,937
DA:555,937
DA:557,937
DA:558,937
DA:560,937
DA:561,937
DA:553,937
DA:555,937
DA:557,937
DA:558,937
DA:560,937
DA:561,937
DA:553,937
DA:555,937
DA:557,937
DA:558,937
DA:560,937
DA:561,937
DA:553,0
DA:555,0
DA:557,0
DA:558,0
DA:560,0
DA:561,0
DA:553,0
DA:555,0
DA:557,0
DA:558,0
DA:560,0
DA:561,0
DA:553,0
DA:555,0
DA:557,0
DA:558,0
DA:560,0
DA:561,0
DA:572,0
DA:572,0
DA:572,1242
DA:572,1242
DA:572,0
DA:572,1242
DA:572,0
DA:572,45
DA:625,0
DA:627,0
DA:629,0
DA:630,0
DA:631,0
DA:653,155194
DA:654,155194
DA:655,155194
DA:657,155194
DA:658,155194
DA:659,155194
DA:678,605
DA:680,605
DA:681,605
DA:683,605
DA:678,0
DA:680,0
DA:681,0
DA:683,0
DA:678,2793
DA:680,2793
DA:681,2793
DA:683,2793
DA:678,2793
DA:680,2793
DA:681,2793
DA:683,2793
DA:678,157987
DA:680,157987
DA:681,157987
DA:683,157987
DA:678,0
DA:680,0
DA:681,0
DA:683,0
DA:678,2726
DA:680,2726
DA:681,2726
DA:683,2726
DA:678,4246
DA:680,4246
DA:681,4246
DA:683,4246
DA:678,2428
DA:680,2428
DA:681,2428
DA:683,2428
DA:678,0
DA:680,0
DA:681,0
DA:683,0
DA:678,0
DA:680,0
DA:681,0
DA:683,0
DA:678,0
DA:680,0
DA:681,0
DA:683,0
DA:678,0
DA:680,0
DA:681,0
DA:683,0
DA:678,0
DA:680,0
DA:681,0
DA:683,0
DA:678,0
DA:680,0
DA:681,0
DA:683,0
DA:678,605
DA:680,605
DA:681,605
DA:683,605
DA:709,0
DA:711,0
DA:714,0
DA:715,0
DA:749,3910
DA:750,3910
DA:811,0
DA:812,0
DA:811,6
DA:812,6
DA:811,0
DA:812,0
DA:811,1875
DA:812,1875
DA:811,611
DA:812,611
DA:811,0
DA:812,0
DA:811,3058
DA:812,3058
DA:811,22969
DA:812,22969
DA:811,132158
DA:812,132158
DA:811,0
DA:812,0
DA:811,16
DA:812,16
DA:811,4
DA:812,4
DA:811,0
DA:812,0
DA:820,0
DA:821,0
DA:820,156131
DA:821,156131
DA:820,159901
DA:821,159901
DA:820,159913
DA:821,159913
DA:820,29840
DA:821,29840
DA:820,0
DA:821,0
DA:820,0
DA:821,0
DA:820,0
DA:821,0
DA:829,0
DA:830,0
DA:829,6
DA:830,6
DA:829,0
DA:830,0
DA:829,1875
DA:830,1875
DA:829,0
DA:830,0
DA:829,1224
DA:830,1224
DA:829,3058
DA:830,3058
DA:829,22969
DA:830,22969
DA:829,96122
DA:830,96122
DA:829,0
DA:830,0
DA:829,24024
DA:830,24024
DA:829,4
DA:830,4
DA:829,0
DA:830,0
DA:838,0
DA:839,0
DA:838,156131
DA:839,156131
DA:838,159901
DA:839,159901
DA:838,159913
DA:839,159913
DA:838,29840
DA:839,29840
DA:838,0
DA:839,0
DA:838,0
DA:839,0
DA:838,0
DA:839,0
DA:884,621
DA:885,621
DA:918,0
DA:919,0
DA:918,961
DA:919,961
DA:918,311373
DA:919,311373
DA:918,937
DA:919,937
DA:918,0
DA:919,0
DA:918,2444
DA:919,2444
DA:918,58683
DA:919,58683
DA:918,0
DA:919,0
DA:918,0
DA:919,0
DA:918,16
DA:919,16
DA:918,0
DA:919,0
DA:918,0
DA:919,0
DA:918,0
DA:919,0
DA:918,0
DA:919,0
DA:923,0
DA:924,0
DA:923,12
DA:924,12
DA:923,24
DA:924,24
DA:923,0
DA:924,0
DA:923,0
DA:924,0
DA:923,4898
DA:924,4898
DA:923,1222
DA:924,1222
DA:923,0
DA:924,0
DA:923,96156
DA:924,96156
DA:923,0
DA:924,0
DA:923,32
DA:924,32
DA:923,8
DA:924,8
DA:998,27192
DA:999,27192
DA:1000,27192
DA:998,1
DA:999,1
DA:1000,1
DA:1007,0
DA:1008,0
DA:1043,9416
DA:1046,9416
DA:1043,10128
DA:1046,10128
DA:1043,32036
DA:1046,32036
DA:1043,420091
DA:1046,420091
DA:1043,12
DA:1046,12
DA:1043,0
DA:1046,0
DA:1043,360155
DA:1046,360155
DA:1043,0
DA:1046,0
DA:1043,0
DA:1046,0
DA:1061,0
DA:1064,0
DA:1143,613
DA:1146,613
DA:1168,620776
DA:1169,620776
DA:1187,0
DA:1189,0
DA:1192,0
DA:1194,0
DA:1198,0
DA:1199,0
DA:1187,0
DA:1189,0
DA:1192,0
DA:1194,0
DA:1198,0
DA:1199,0
DA:1187,613
DA:1189,613
DA:1192,2
DA:1194,2
DA:1198,611
DA:1199,613
DA:1203,0
DA:1204,0
DA:1203,6
DA:1204,6
DA:1203,12
DA:1204,12
DA:1203,4359
DA:1204,4359
DA:1225,613
DA:1228,613
DA:1229,613
DA:1231,613
DA:1457,621
DA:1459,621
DA:1460,621
DA:1461,1242
DA:1498,0
DA:1499,0
DA:1498,0
DA:1499,0
DA:1498,0
DA:1499,0
DA:1508,2726
DA:1511,2726
DA:1514,2726
DA:1515,2726
DA:1516,2726
DA:1518,0
DA:1520,0
DA:1521,0
DA:1508,1
DA:1511,1
DA:1514,1
DA:1515,1
DA:1516,1
DA:1518,0
DA:1520,0
DA:1521,0
DA:1577,155194
DA:1580,155194
DA:1582,155194
DA:1583,155194
DA:1584,155194
DA:1585,155194
DA:1587,155194
DA:1588,155194
DA:1577,0
DA:1580,0
DA:1582,0
DA:1583,0
DA:1584,0
DA:1585,0
DA:1587,0
DA:1588,0
DA:1593,1520
DA:1595,1520
DA:1596,1520
DA:1597,1520
DA:1598,1520
DA:1603,2726
DA:1605,2726
DA:1606,2726
DA:1607,2726
DA:1608,2726
DA:1756,0
DA:1758,0
DA:1759,0
DA:1761,0
DA:1762,0
DA:1756,6
DA:1758,6
DA:1759,0
DA:1761,6
DA:1762,6
DA:1756,12
DA:1758,12
DA:1759,0
DA:1761,12
DA:1762,12
DA:1756,0
DA:1758,0
DA:1759,0
DA:1761,0
DA:1762,0
DA:1756,0
DA:1758,0
DA:1759,0
DA:1761,0
DA:1762,0
DA:1756,2449
DA:1758,2449
DA:1759,0
DA:1761,2449
DA:1762,2449
DA:1756,611
DA:1758,611
DA:1759,0
DA:1761,611
DA:1762,611
DA:1756,0
DA:1758,0
DA:1759,0
DA:1761,0
DA:1762,0
DA:1756,48069
DA:1758,48069
DA:1759,0
DA:1761,48069
DA:1762,48069
DA:1756,0
DA:1758,0
DA:1759,0
DA:1761,0
DA:1762,0
DA:1756,16
DA:1758,16
DA:1759,0
DA:1761,16
DA:1762,16
DA:1756,4
DA:1758,4
DA:1759,0
DA:1761,4
DA:1762,4
DA:1767,155194
DA:1769,155194
DA:1770,0
DA:1772,155194
DA:1767,1520
DA:1769,1520
DA:1770,0
DA:1772,1520
DA:1767,2726
DA:1769,2726
DA:1770,0
DA:1772,2726
DA:1767,0
DA:1769,0
DA:1770,0
DA:1772,0
DA:1776,0
DA:1781,0
DA:1783,0
DA:1784,0
DA:1776,12
DA:1781,12
DA:1783,12
DA:1784,12
DA:1776,155218
DA:1781,155218
DA:1783,155218
DA:1784,155218
DA:1776,0
DA:1781,0
DA:1783,0
DA:1784,0
DA:1776,0
DA:1781,0
DA:1783,0
DA:1784,0
DA:1776,4898
DA:1781,4898
DA:1783,4898
DA:1784,4898
DA:1776,1222
DA:1781,1222
DA:1783,1222
DA:1784,1222
DA:1776,1520
DA:1781,1520
DA:1783,1520
DA:1784,1520
DA:1776,2726
DA:1781,2726
DA:1783,2726
DA:1784,2726
DA:1776,0
DA:1781,0
DA:1783,0
DA:1784,0
DA:1776,0
DA:1781,0
DA:1783,0
DA:1784,0
DA:1776,0
DA:1781,0
DA:1783,0
DA:1784,0
DA:1776,8
DA:1781,8
DA:1783,8
DA:1784,8
DA:1776,0
DA:1781,0
DA:1783,0
DA:1784,0
DA:1792,0
DA:1794,0
DA:1796,0
DA:1797,0
DA:1798,0
DA:1801,0
DA:1792,0
DA:1794,0
DA:1796,0
DA:1797,0
DA:1798,0
DA:1801,0
DA:1792,1519
DA:1794,1519
DA:1796,1184
DA:1797,1184
DA:1798,1184
DA:1801,1519
DA:1792,0
DA:1794,0
DA:1796,0
DA:1797,0
DA:1798,0
DA:1801,0
DA:1815,0
DA:1817,0
DA:1818,0
DA:1819,0
DA:1820,0
DA:1821,0
DA:1844,620776
DA:1845,620776
LF:1145
LH:614
end_of_record
SF:/usr/lib/gcc/x86_64-pc-msys/10.2.0/include/c++/initializer_list
FN:71,_ZNKSt16initializer_listISsE4sizeEv
FNDA:0,_ZNKSt16initializer_listISsE4sizeEv
FN:75,_ZNKSt16initializer_listISsE5beginEv
FNDA:0,_ZNKSt16initializer_listISsE5beginEv
FN:79,_ZNKSt16initializer_listISsE3endEv
FNDA:0,_ZNKSt16initializer_listISsE3endEv
FNF:3
FNH:0
DA:71,0
DA:75,0
DA:79,0
LF:3
LH:0
end_of_record
SF:/usr/lib/gcc/x86_64-pc-msys/10.2.0/include/c++/bits/stl_uninitialized.h
FN:84,_ZNSt20__uninitialized_copyILb0EE13__uninit_copyIN9__gnu_cxx17__normal_iteratorIPKSt6vectorISsSaISsEES4_IS6_SaIS6_EEEEPS6_EET0_T_SE_SD_
FNDA:0,_ZNSt20__uninitialized_copyILb0EE13__uninit_copyIN9__gnu_cxx17__normal_iteratorIPKSt6vectorISsSaISsEES4_IS6_SaIS6_EEEEPS6_EET0_T_SE_SD_
FN:84,_ZNSt20__uninitialized_copyILb0EE13__uninit_copyIN9__gnu_cxx17__normal_iteratorIPKNSt12regex_traitsIcE10_RegexMaskESt6vectorIS6_SaIS6_EEEEPS6_EET0_T_SF_SE_
FNDA:937,_ZNSt20__uninitialized_copyILb0EE13__uninit_copyIN9__gnu_cxx17__normal_iteratorIPKNSt12regex_traitsIcE10_RegexMaskESt6vectorIS6_SaIS6_EEEEPS6_EET0_T_SF_SE_
FN:84,_ZNSt20__uninitialized_copyILb0EE13__uninit_copyIN9__gnu_cxx17__normal_iteratorIPKSt4pairISsSsESt6vectorIS5_SaIS5_EEEEPS5_EET0_T_SE_SD_
FNDA:0,_ZNSt20__uninitialized_copyILb0EE13__uninit_copyIN9__gnu_cxx17__normal_iteratorIPKSt4pairISsSsESt6vectorIS5_SaIS5_EEEEPS5_EET0_T_SE_SD_
FN:84,_ZNSt20__uninitialized_copyILb0EE13__uninit_copyIN9__gnu_cxx17__normal_iteratorIPKSt4pairIccESt6vectorIS5_SaIS5_EEEEPS5_EET0_T_SE_SD_
FNDA:937,_ZNSt20__uninitialized_copyILb0EE13__uninit_copyIN9__gnu_cxx17__normal_iteratorIPKSt4pairIccESt6vectorIS5_SaIS5_EEEEPS5_EET0_T_SE_SD_
FN:84,_ZNSt20__uninitialized_copyILb0EE13__uninit_copyIN9__gnu_cxx17__normal_iteratorIPKSsSt6vectorISsSaISsEEEEPSsEET0_T_SC_SB_
FNDA:0,_ZNSt20__uninitialized_copyILb0EE13__uninit_copyIN9__gnu_cxx17__normal_iteratorIPKSsSt6vectorISsSaISsEEEEPSsEET0_T_SC_SB_
FN:84,_ZNSt20__uninitialized_copyILb0EE13__uninit_copyIPKSsPSsEET0_T_S6_S5_
FNDA:0,_ZNSt20__uninitialized_copyILb0EE13__uninit_copyIPKSsPSsEET0_T_S6_S5_
FN:84,_ZNSt20__uninitialized_copyILb0EE13__uninit_copyIPSt9sub_matchIN9__gnu_cxx17__normal_iteratorIPKcSsEEES9_EET0_T_SB_SA_
FNDA:0,_ZNSt20__uninitialized_copyILb0EE13__uninit_copyIPSt9sub_matchIN9__gnu_cxx17__normal_iteratorIPKcSsEEES9_EET0_T_SB_SA_
FN:84,_ZNSt20__uninitialized_copyILb0EE13__uninit_copyIN9__gnu_cxx17__normal_iteratorIPKSt9sub_matchINS3_IPKcSsEEESt6vectorIS8_SaIS8_EEEEPS8_EET0_T_SH_SG_
FNDA:3020,_ZNSt20__uninitialized_copyILb0EE13__uninit_copyIN9__gnu_cxx17__normal_iteratorIPKSt9sub_matchINS3_IPKcSsEEESt6vectorIS8_SaIS8_EEEEPS8_EET0_T_SH_SG_
FN:84,_ZNSt20__uninitialized_copyILb0EE13__uninit_copyIPKNSt8__detail6_StateIcEEPS4_EET0_T_S9_S8_
FNDA:4898,_ZNSt20__uninitialized_copyILb0EE13__uninit_copyIPKNSt8__detail6_StateIcEEPS4_EET0_T_S9_S8_
FN:84,_ZNSt20__uninitialized_copyILb0EE13__uninit_copyISt13move_iteratorIPNSt12regex_traitsIcE10_RegexMaskEES6_EET0_T_S9_S8_
FNDA:0,_ZNSt20__uninitialized_copyILb0EE13__uninit_copyISt13move_iteratorIPNSt12regex_traitsIcE10_RegexMaskEES6_EET0_T_S9_S8_
FN:84,_ZNSt20__uninitialized_copyILb0EE13__uninit_copyISt13move_iteratorIPSsES3_EET0_T_S6_S5_
FNDA:0,_ZNSt20__uninitialized_copyILb0EE13__uninit_copyISt13move_iteratorIPSsES3_EET0_T_S6_S5_
FN:84,_ZNSt20__uninitialized_copyILb0EE13__uninit_copyISt13move_iteratorIPSt6vectorIdSaIdEEES6_EET0_T_S9_S8_
FNDA:0,_ZNSt20__uninitialized_copyILb0EE13__uninit_copyISt13move_iteratorIPSt6vectorIdSaIdEEES6_EET0_T_S9_S8_
FN:84,_ZNSt20__uninitialized_copyILb0EE13__uninit_copyISt13move_iteratorIPSt4pairIccEES5_EET0_T_S8_S7_
FNDA:0,_ZNSt20__uninitialized_copyILb0EE13__uninit_copyISt13move_iteratorIPSt4pairIccEES5_EET0_T_S8_S7_
FN:84,_ZNSt20__uninitialized_copyILb0EE13__uninit_copyISt13move_iteratorIPSt4pairIlSt6vectorISt9sub_matchIN9__gnu_cxx17__normal_iteratorIPKcSsEEESaISB_EEEESF_EET0_T_SI_SH_
FNDA:0,_ZNSt20__uninitialized_copyILb0EE13__uninit_copyISt13move_iteratorIPSt4pairIlSt6vectorISt9sub_matchIN9__gnu_cxx17__normal_iteratorIPKcSsEEESaISB_EEEESF_EET0_T_SI_SH_
FN:84,_ZNSt20__uninitialized_copyILb0EE13__uninit_copyISt13move_iteratorIPSt4pairISsSsEES5_EET0_T_S8_S7_
FNDA:0,_ZNSt20__uninitialized_copyILb0EE13__uninit_copyISt13move_iteratorIPSt4pairISsSsEES5_EET0_T_S8_S7_
FN:84,_ZNSt20__uninitialized_copyILb0EE13__uninit_copyIPSsS2_EET0_T_S4_S3_
FNDA:0,_ZNSt20__uninitialized_copyILb0EE13__uninit_copyIPSsS2_EET0_T_S4_S3_
FN:107,_ZNSt20__uninitialized_copyILb1EE13__uninit_copyISt13move_iteratorIPiES3_EET0_T_S6_S5_
FNDA:0,_ZNSt20__uninitialized_copyILb1EE13__uninit_copyISt13move_iteratorIPiES3_EET0_T_S6_S5_
FN:107,_ZNSt20__uninitialized_copyILb1EE13__uninit_copyISt13move_iteratorIPmES3_EET0_T_S6_S5_
FNDA:0,_ZNSt20__uninitialized_copyILb1EE13__uninit_copyISt13move_iteratorIPmES3_EET0_T_S6_S5_
FN:107,_ZNSt20__uninitialized_copyILb1EE13__uninit_copyIN9__gnu_cxx17__normal_iteratorIPKcSt6vectorIcSaIcEEEEPcEET0_T_SC_SB_
FNDA:937,_ZNSt20__uninitialized_copyILb1EE13__uninit_copyIN9__gnu_cxx17__normal_iteratorIPKcSt6vectorIcSaIcEEEEPcEET0_T_SC_SB_
FN:107,_ZNSt20__uninitialized_copyILb1EE13__uninit_copyIPKcPcEET0_T_S6_S5_
FNDA:155194,_ZNSt20__uninitialized_copyILb1EE13__uninit_copyIPKcPcEET0_T_S6_S5_
FN:107,_ZNSt20__uninitialized_copyILb1EE13__uninit_copyISt13move_iteratorIPcES3_EET0_T_S6_S5_
FNDA:0,_ZNSt20__uninitialized_copyILb1EE13__uninit_copyISt13move_iteratorIPcES3_EET0_T_S6_S5_
FN:107,_ZNSt20__uninitialized_copyILb1EE13__uninit_copyISt13move_iteratorIP8DataTypeES4_EET0_T_S7_S6_
FNDA:0,_ZNSt20__uninitialized_copyILb1EE13__uninit_copyISt13move_iteratorIP8DataTypeES4_EET0_T_S7_S6_
FN:107,_ZNSt20__uninitialized_copyILb1EE13__uninit_copyISt13move_iteratorIPdES3_EET0_T_S6_S5_
FNDA:0,_ZNSt20__uninitialized_copyILb1EE13__uninit_copyISt13move_iteratorIPdES3_EET0_T_S6_S5_
FN:125,_ZSt18uninitialized_copyIPSt9sub_matchIN9__gnu_cxx17__normal_iteratorIPKcSsEEES7_ET0_T_S9_S8_
FNDA:0,_ZSt18uninitialized_copyIPSt9sub_matchIN9__gnu_cxx17__normal_iteratorIPKcSsEEES7_ET0_T_S9_S8_
FN:125,_ZSt18uninitialized_copyISt13move_iteratorIP8DataTypeES2_ET0_T_S5_S4_
FNDA:0,_ZSt18uninitialized_copyISt13move_iteratorIP8DataTypeES2_ET0_T_S5_S4_
FN:125,_ZSt18uninitialized_copyISt13move_iteratorIPSt6vectorIdSaIdEEES4_ET0_T_S7_S6_
FNDA:0,_ZSt18uninitialized_copyISt13move_iteratorIPSt6vectorIdSaIdEEES4_ET0_T_S7_S6_
FN:125,_ZSt18uninitialized_copyISt13move_iteratorIPmES1_ET0_T_S4_S3_
FNDA:0,_ZSt18uninitialized_copyISt13move_iteratorIPmES1_ET0_T_S4_S3_
FN:125,_ZSt18uninitialized_copyIN9__gnu_cxx17__normal_iteratorIPKSt9sub_matchINS1_IPKcSsEEESt6vectorIS6_SaIS6_EEEEPS6_ET0_T_SF_SE_
FNDA:3020,_ZSt18uninitialized_copyIN9__gnu_cxx17__normal_iteratorIPKSt9sub_matchINS1_IPKcSsEEESt6vectorIS6_SaIS6_EEEEPS6_ET0_T_SF_SE_
FN:125,_ZSt18uninitialized_copyISt13move_iteratorIPiES1_ET0_T_S4_S3_
FNDA:0,_ZSt18uninitialized_copyISt13move_iteratorIPiES1_ET0_T_S4_S3_
FN:125,_ZSt18uninitialized_copyISt13move_iteratorIPdES1_ET0_T_S4_S3_
FNDA:0,_ZSt18uninitialized_copyISt13move_iteratorIPdES1_ET0_T_S4_S3_
FN:125,_ZSt18uninitialized_copyIPKNSt8__detail6_StateIcEEPS2_ET0_T_S7_S6_
FNDA:4898,_ZSt18uninitialized_copyIPKNSt8__detail6_StateIcEEPS2_ET0_T_S7_S6_
FN:125,_ZSt18uninitialized_copyISt13move_iteratorIPSsES1_ET0_T_S4_S3_
FNDA:0,_ZSt18uninitialized_copyISt13move_iteratorIPSsES1_ET0_T_S4_S3_
FN:125,_ZSt18uninitialized_copyISt13move_iteratorIPSt4pairIlSt6vectorISt9sub_matchIN9__gnu_cxx17__normal_iteratorIPKcSsEEESaIS9_EEEESD_ET0_T_SG_SF_
FNDA:0,_ZSt18uninitialized_copyISt13move_iteratorIPSt4pairIlSt6vectorISt9sub_matchIN9__gnu_cxx17__normal_iteratorIPKcSsEEESaIS9_EEEESD_ET0_T_SG_SF_
FN:125,_ZSt18uninitialized_copyISt13move_iteratorIPNSt12regex_traitsIcE10_RegexMaskEES4_ET0_T_S7_S6_
FNDA:0,_ZSt18uninitialized_copyISt13move_iteratorIPNSt12regex_traitsIcE10_RegexMaskEES4_ET0_T_S7_S6_
FN:125,_ZSt18uninitialized_copyIN9__gnu_cxx17__normal_iteratorIPKSsSt6vectorISsSaISsEEEEPSsET0_T_SA_S9_
FNDA:0,_ZSt18uninitialized_copyIN9__gnu_cxx17__normal_iteratorIPKSsSt6vectorISsSaISsEEEEPSsET0_T_SA_S9_
FN:125,_ZSt18uninitialized_copyIN9__gnu_cxx17__normal_iteratorIPKcSt6vectorIcSaIcEEEEPcET0_T_SA_S9_
FNDA:937,_ZSt18uninitialized_copyIN9__gnu_cxx17__normal_iteratorIPKcSt6vectorIcSaIcEEEEPcET0_T_SA_S9_
FN:125,_ZSt18uninitialized_copyIN9__gnu_cxx17__normal_iteratorIPKSt6vectorISsSaISsEES2_IS4_SaIS4_EEEEPS4_ET0_T_SC_SB_
FNDA:0,_ZSt18uninitialized_copyIN9__gnu_cxx17__normal_iteratorIPKSt6vectorISsSaISsEES2_IS4_SaIS4_EEEEPS4_ET0_T_SC_SB_
FN:125,_ZSt18uninitialized_copyIPKcPcET0_T_S4_S3_
FNDA:155194,_ZSt18uninitialized_copyIPKcPcET0_T_S4_S3_
FN:125,_ZSt18uninitialized_copyISt13move_iteratorIPcES1_ET0_T_S4_S3_
FNDA:0,_ZSt18uninitialized_copyISt13move_iteratorIPcES1_ET0_T_S4_S3_
FN:125,_ZSt18uninitialized_copyIN9__gnu_cxx17__normal_iteratorIPKSt4pairISsSsESt6vectorIS3_SaIS3_EEEEPS3_ET0_T_SC_SB_
FNDA:0,_ZSt18uninitialized_copyIN9__gnu_cxx17__normal_iteratorIPKSt4pairISsSsESt6vectorIS3_SaIS3_EEEEPS3_ET0_T_SC_SB_
FN:125,_ZSt18uninitialized_copyIN9__gnu_cxx17__normal_iteratorIPKNSt12regex_traitsIcE10_RegexMaskESt6vectorIS4_SaIS4_EEEEPS4_ET0_T_SD_SC_
FNDA:937,_ZSt18uninitialized_copyIN9__gnu_cxx17__normal_iteratorIPKNSt12regex_traitsIcE10_RegexMaskESt6vectorIS4_SaIS4_EEEEPS4_ET0_T_SD_SC_
FN:125,_ZSt18uninitialized_copyIN9__gnu_cxx17__normal_iteratorIPKSt4pairIccESt6vectorIS3_SaIS3_EEEEPS3_ET0_T_SC_SB_
FNDA:937,_ZSt18uninitialized_copyIN9__gnu_cxx17__normal_iteratorIPKSt4pairIccESt6vectorIS3_SaIS3_EEEEPS3_ET0_T_SC_SB_
FN:125,_ZSt18uninitialized_copyISt13move_iteratorIPSt4pairIccEES3_ET0_T_S6_S5_
FNDA:0,_ZSt18uninitialized_copyISt13move_iteratorIPSt4pairIccEES3_ET0_T_S6_S5_
FN:125,_ZSt18uninitialized_copyIPSsS0_ET0_T_S2_S1_
FNDA:0,_ZSt18uninitialized_copyIPSsS0_ET0_T_S2_S1_
FN:125,_ZSt18uninitialized_copyIPKSsPSsET0_T_S4_S3_
FNDA:0,_ZSt18uninitialized_copyIPKSsPSsET0_T_S4_S3_
FN:125,_ZSt18uninitialized_copyISt13move_iteratorIPSt4pairISsSsEES3_ET0_T_S6_S5_
FNDA:0,_ZSt18uninitialized_copyISt13move_iteratorIPSt4pairISsSsEES3_ET0_T_S6_S5_
FN:229,_ZNSt22__uninitialized_fill_nILb0EE15__uninit_fill_nIPSt9sub_matchIN9__gnu_cxx17__normal_iteratorIPKcSsEEEmS8_EET_SA_T0_RKT1_
FNDA:2391,_ZNSt22__uninitialized_fill_nILb0EE15__uninit_fill_nIPSt9sub_matchIN9__gnu_cxx17__normal_iteratorIPKcSsEEEmS8_EET_SA_T0_RKT1_
FN:272,_ZSt20uninitialized_fill_nIPSt9sub_matchIN9__gnu_cxx17__normal_iteratorIPKcSsEEEmS6_ET_S8_T0_RKT1_
FNDA:2391,_ZSt20uninitialized_fill_nIPSt9sub_matchIN9__gnu_cxx17__normal_iteratorIPKcSsEEEmS6_ET_S8_T0_RKT1_
FN:323,_ZSt22__uninitialized_copy_aISt13move_iteratorIPSt4pairISsSsEES3_S2_ET0_T_S6_S5_RSaIT1_E
FNDA:0,_ZSt22__uninitialized_copy_aISt13move_iteratorIPSt4pairISsSsEES3_S2_ET0_T_S6_S5_RSaIT1_E
FN:323,_ZSt22__uninitialized_copy_aISt13move_iteratorIPdES1_dET0_T_S4_S3_RSaIT1_E
FNDA:0,_ZSt22__uninitialized_copy_aISt13move_iteratorIPdES1_dET0_T_S4_S3_RSaIT1_E
FN:323,_ZSt22__uninitialized_copy_aIN9__gnu_cxx17__normal_iteratorIPKSsSt6vectorISsSaISsEEEEPSsSsET0_T_SA_S9_RSaIT1_E
FNDA:0,_ZSt22__uninitialized_copy_aIN9__gnu_cxx17__normal_iteratorIPKSsSt6vectorISsSaISsEEEEPSsSsET0_T_SA_S9_RSaIT1_E
FN:323,_ZSt22__uninitialized_copy_aIPKSsPSsSsET0_T_S4_S3_RSaIT1_E
FNDA:0,_ZSt22__uninitialized_copy_aIPKSsPSsSsET0_T_S4_S3_RSaIT1_E
FN:323,_ZSt22__uninitialized_copy_aIPSt9sub_matchIN9__gnu_cxx17__normal_iteratorIPKcSsEEES7_S6_ET0_T_S9_S8_RSaIT1_E
FNDA:0,_ZSt22__uninitialized_copy_aIPSt9sub_matchIN9__gnu_cxx17__normal_iteratorIPKcSsEEES7_S6_ET0_T_S9_S8_RSaIT1_E
FN:323,_ZSt22__uninitialized_copy_aISt13move_iteratorIPmES1_mET0_T_S4_S3_RSaIT1_E
FNDA:0,_ZSt22__uninitialized_copy_aISt13move_iteratorIPmES1_mET0_T_S4_S3_RSaIT1_E
FN:323,_ZSt22__uninitialized_copy_aIN9__gnu_cxx17__normal_iteratorIPKSt9sub_matchINS1_IPKcSsEEESt6vectorIS6_SaIS6_EEEEPS6_S6_ET0_T_SF_SE_RSaIT1_E
FNDA:3020,_ZSt22__uninitialized_copy_aIN9__gnu_cxx17__normal_iteratorIPKSt9sub_matchINS1_IPKcSsEEESt6vectorIS6_SaIS6_EEEEPS6_S6_ET0_T_SF_SE_RSaIT1_E
FN:323,_ZSt22__uninitialized_copy_aISt13move_iteratorIPSt4pairIccEES3_S2_ET0_T_S6_S5_RSaIT1_E
FNDA:0,_ZSt22__uninitialized_copy_aISt13move_iteratorIPSt4pairIccEES3_S2_ET0_T_S6_S5_RSaIT1_E
FN:323,_ZSt22__uninitialized_copy_aIN9__gnu_cxx17__normal_iteratorIPKSt6vectorISsSaISsEES2_IS4_SaIS4_EEEEPS4_S4_ET0_T_SC_SB_RSaIT1_E
FNDA:0,_ZSt22__uninitialized_copy_aIN9__gnu_cxx17__normal_iteratorIPKSt6vectorISsSaISsEES2_IS4_SaIS4_EEEEPS4_S4_ET0_T_SC_SB_RSaIT1_E
FN:323,_ZSt22__uninitialized_copy_aIPSsS0_SsET0_T_S2_S1_RSaIT1_E
FNDA:0,_ZSt22__uninitialized_copy_aIPSsS0_SsET0_T_S2_S1_RSaIT1_E
FN:323,_ZSt22__uninitialized_copy_aIPKcPccET0_T_S4_S3_RSaIT1_E
FNDA:155194,_ZSt22__uninitialized_copy_aIPKcPccET0_T_S4_S3_RSaIT1_E
FN:323,_ZSt22__uninitialized_copy_aIN9__gnu_cxx17__normal_iteratorIPKSt4pairIccESt6vectorIS3_SaIS3_EEEEPS3_S3_ET0_T_SC_SB_RSaIT1_E
FNDA:937,_ZSt22__uninitialized_copy_aIN9__gnu_cxx17__normal_iteratorIPKSt4pairIccESt6vectorIS3_SaIS3_EEEEPS3_S3_ET0_T_SC_SB_RSaIT1_E
FN:323,_ZSt22__uninitialized_copy_aIN9__gnu_cxx17__normal_iteratorIPKcSt6vectorIcSaIcEEEEPccET0_T_SA_S9_RSaIT1_E
FNDA:937,_ZSt22__uninitialized_copy_aIN9__gnu_cxx17__normal_iteratorIPKcSt6vectorIcSaIcEEEEPccET0_T_SA_S9_RSaIT1_E
FN:323,_ZSt22__uninitialized_copy_aIN9__gnu_cxx17__normal_iteratorIPKSt4pairISsSsESt6vectorIS3_SaIS3_EEEEPS3_S3_ET0_T_SC_SB_RSaIT1_E
FNDA:0,_ZSt22__uninitialized_copy_aIN9__gnu_cxx17__normal_iteratorIPKSt4pairISsSsESt6vectorIS3_SaIS3_EEEEPS3_S3_ET0_T_SC_SB_RSaIT1_E
FN:323,_ZSt22__uninitialized_copy_aISt13move_iteratorIPNSt12regex_traitsIcE10_RegexMaskEES4_S3_ET0_T_S7_S6_RSaIT1_E
FNDA:0,_ZSt22__uninitialized_copy_aISt13move_iteratorIPNSt12regex_traitsIcE10_RegexMaskEES4_S3_ET0_T_S7_S6_RSaIT1_E
FN:323,_ZSt22__uninitialized_copy_aISt13move_iteratorIP8DataTypeES2_S1_ET0_T_S5_S4_RSaIT1_E
FNDA:0,_ZSt22__uninitialized_copy_aISt13move_iteratorIP8DataTypeES2_S1_ET0_T_S5_S4_RSaIT1_E
FN:323,_ZSt22__uninitialized_copy_aISt13move_iteratorIPSt6vectorIdSaIdEEES4_S3_ET0_T_S7_S6_RSaIT1_E
FNDA:0,_ZSt22__uninitialized_copy_aISt13move_iteratorIPSt6vectorIdSaIdEEES4_S3_ET0_T_S7_S6_RSaIT1_E
FN:323,_ZSt22__uninitialized_copy_aISt13move_iteratorIPSsES1_SsET0_T_S4_S3_RSaIT1_E
FNDA:0,_ZSt22__uninitialized_copy_aISt13move_iteratorIPSsES1_SsET0_T_S4_S3_RSaIT1_E
FN:323,_ZSt22__uninitialized_copy_aISt13move_iteratorIPSt4pairIlSt6vectorISt9sub_matchIN9__gnu_cxx17__normal_iteratorIPKcSsEEESaIS9_EEEESD_SC_ET0_T_SG_SF_RSaIT1_E
FNDA:0,_ZSt22__uninitialized_copy_aISt13move_iteratorIPSt4pairIlSt6vectorISt9sub_matchIN9__gnu_cxx17__normal_iteratorIPKcSsEEESaIS9_EEEESD_SC_ET0_T_SG_SF_RSaIT1_E
FN:323,_ZSt22__uninitialized_copy_aIPKNSt8__detail6_StateIcEEPS2_S2_ET0_T_S7_S6_RSaIT1_E
FNDA:4898,_ZSt22__uninitialized_copy_aIPKNSt8__detail6_StateIcEEPS2_S2_ET0_T_S7_S6_RSaIT1_E
FN:323,_ZSt22__uninitialized_copy_aISt13move_iteratorIPiES1_iET0_T_S4_S3_RSaIT1_E
FNDA:0,_ZSt22__uninitialized_copy_aISt13move_iteratorIPiES1_iET0_T_S4_S3_RSaIT1_E
FN:323,_ZSt22__uninitialized_copy_aISt13move_iteratorIPcES1_cET0_T_S4_S3_RSaIT1_E
FNDA:0,_ZSt22__uninitialized_copy_aISt13move_iteratorIPcES1_cET0_T_S4_S3_RSaIT1_E
FN:323,_ZSt22__uninitialized_copy_aIN9__gnu_cxx17__normal_iteratorIPKNSt12regex_traitsIcE10_RegexMaskESt6vectorIS4_SaIS4_EEEEPS4_S4_ET0_T_SD_SC_RSaIT1_E
FNDA:937,_ZSt22__uninitialized_copy_aIN9__gnu_cxx17__normal_iteratorIPKNSt12regex_traitsIcE10_RegexMaskESt6vectorIS4_SaIS4_EEEEPS4_S4_ET0_T_SD_SC_RSaIT1_E
FN:341,_ZSt34__uninitialized_move_if_noexcept_aIPdS0_SaIdEET0_T_S3_S2_RT1_
FNDA:0,_ZSt34__uninitialized_move_if_noexcept_aIPdS0_SaIdEET0_T_S3_S2_RT1_
FN:341,_ZSt34__uninitialized_move_if_noexcept_aIP8DataTypeS1_SaIS0_EET0_T_S4_S3_RT1_
FNDA:0,_ZSt34__uninitialized_move_if_noexcept_aIP8DataTypeS1_SaIS0_EET0_T_S4_S3_RT1_
FN:341,_ZSt34__uninitialized_move_if_noexcept_aIPSsS0_SaISsEET0_T_S3_S2_RT1_
FNDA:0,_ZSt34__uninitialized_move_if_noexcept_aIPSsS0_SaISsEET0_T_S3_S2_RT1_
FN:341,_ZSt34__uninitialized_move_if_noexcept_aIPSt6vectorIdSaIdEES3_SaIS2_EET0_T_S6_S5_RT1_
FNDA:0,_ZSt34__uninitialized_move_if_noexcept_aIPSt6vectorIdSaIdEES3_SaIS2_EET0_T_S6_S5_RT1_
FN:341,_ZSt34__uninitialized_move_if_noexcept_aIPNSt8__detail6_StateIcEES3_SaIS2_EET0_T_S6_S5_RT1_
FNDA:4898,_ZSt34__uninitialized_move_if_noexcept_aIPNSt8__detail6_StateIcEES3_SaIS2_EET0_T_S6_S5_RT1_
FN:341,_ZSt34__uninitialized_move_if_noexcept_aIPiS0_SaIiEET0_T_S3_S2_RT1_
FNDA:0,_ZSt34__uninitialized_move_if_noexcept_aIPiS0_SaIiEET0_T_S3_S2_RT1_
FN:341,_ZSt34__uninitialized_move_if_noexcept_aIPSt4pairISsSsES2_SaIS1_EET0_T_S5_S4_RT1_
FNDA:0,_ZSt34__uninitialized_move_if_noexcept_aIPSt4pairISsSsES2_SaIS1_EET0_T_S5_S4_RT1_
FN:341,_ZSt34__uninitialized_move_if_noexcept_aIPSt4pairIccES2_SaIS1_EET0_T_S5_S4_RT1_
FNDA:0,_ZSt34__uninitialized_move_if_noexcept_aIPSt4pairIccES2_SaIS1_EET0_T_S5_S4_RT1_
FN:341,_ZSt34__uninitialized_move_if_noexcept_aIPcS0_SaIcEET0_T_S3_S2_RT1_
FNDA:0,_ZSt34__uninitialized_move_if_noexcept_aIPcS0_SaIcEET0_T_S3_S2_RT1_
FN:341,_ZSt34__uninitialized_move_if_noexcept_aIPNSt12regex_traitsIcE10_RegexMaskES3_SaIS2_EET0_T_S6_S5_RT1_
FNDA:0,_ZSt34__uninitialized_move_if_noexcept_aIPNSt12regex_traitsIcE10_RegexMaskES3_SaIS2_EET0_T_S6_S5_RT1_
FN:341,_ZSt34__uninitialized_move_if_noexcept_aIPSt4pairIlSt6vectorISt9sub_matchIN9__gnu_cxx17__normal_iteratorIPKcSsEEESaIS8_EEESC_SaISB_EET0_T_SF_SE_RT1_
FNDA:0,_ZSt34__uninitialized_move_if_noexcept_aIPSt4pairIlSt6vectorISt9sub_matchIN9__gnu_cxx17__normal_iteratorIPKcSsEEESaIS8_EEESC_SaISB_EET0_T_SF_SE_RT1_
FN:341,_ZSt34__uninitialized_move_if_noexcept_aIPmS0_SaImEET0_T_S3_S2_RT1_
FNDA:0,_ZSt34__uninitialized_move_if_noexcept_aIPmS0_SaImEET0_T_S3_S2_RT1_
FN:400,_ZSt24__uninitialized_fill_n_aIPSt9sub_matchIN9__gnu_cxx17__normal_iteratorIPKcSsEEEmS6_S6_ET_S8_T0_RKT1_RSaIT2_E
FNDA:2391,_ZSt24__uninitialized_fill_n_aIPSt9sub_matchIN9__gnu_cxx17__normal_iteratorIPKcSsEEEmS6_S6_ET_S8_T0_RKT1_RSaIT2_E
FN:561,_ZNSt27__uninitialized_default_n_1ILb0EE18__uninit_default_nIPSt4pairIN9__gnu_cxx17__normal_iteratorIPKcSsEEiEmEET_SA_T0_
FNDA:2726,_ZNSt27__uninitialized_default_n_1ILb0EE18__uninit_default_nIPSt4pairIN9__gnu_cxx17__normal_iteratorIPKcSsEEiEmEET_SA_T0_
FN:614,_ZSt25__uninitialized_default_nIPSt4pairIN9__gnu_cxx17__normal_iteratorIPKcSsEEiEmET_S8_T0_
FNDA:2726,_ZSt25__uninitialized_default_nIPSt4pairIN9__gnu_cxx17__normal_iteratorIPKcSsEEiEmET_S8_T0_
FN:683,_ZSt27__uninitialized_default_n_aIPSt4pairIN9__gnu_cxx17__normal_iteratorIPKcSsEEiEmS6_ET_S8_T0_RSaIT1_E
FNDA:2726,_ZSt27__uninitialized_default_n_aIPSt4pairIN9__gnu_cxx17__normal_iteratorIPKcSsEEiEmS6_ET_S8_T0_RSaIT1_E
FN:968,_ZSt19__relocate_object_aISt4pairIccES1_SaIS1_EEvPT_PT0_RT1_
FNDA:3,_ZSt19__relocate_object_aISt4pairIccES1_SaIS1_EEvPT_PT0_RT1_
FN:968,_ZSt19__relocate_object_aINSt12regex_traitsIcE10_RegexMaskES2_SaIS2_EEvPT_PT0_RT1_
FNDA:0,_ZSt19__relocate_object_aINSt12regex_traitsIcE10_RegexMaskES2_SaIS2_EEvPT_PT0_RT1_
FN:968,_ZSt19__relocate_object_aISt4pairIlSt6vectorISt9sub_matchIN9__gnu_cxx17__normal_iteratorIPKcSsEEESaIS8_EEESB_SaISB_EEvPT_PT0_RT1_
FNDA:0,_ZSt19__relocate_object_aISt4pairIlSt6vectorISt9sub_matchIN9__gnu_cxx17__normal_iteratorIPKcSsEEESaIS8_EEESB_SaISB_EEvPT_PT0_RT1_
FN:968,_ZSt19__relocate_object_aISt4pairISsSsES1_SaIS1_EEvPT_PT0_RT1_
FNDA:0,_ZSt19__relocate_object_aISt4pairISsSsES1_SaIS1_EEvPT_PT0_RT1_
FN:968,_ZSt19__relocate_object_aISt6vectorIdSaIdEES2_SaIS2_EEvPT_PT0_RT1_
FNDA:19,_ZSt19__relocate_object_aISt6vectorIdSaIdEES2_SaIS2_EEvPT_PT0_RT1_
FN:968,_ZSt19__relocate_object_aISsSsSaISsEEvPT_PT0_RT1_
FNDA:0,_ZSt19__relocate_object_aISsSsSaISsEEvPT_PT0_RT1_
FN:988,_ZSt14__relocate_a_1IddENSt9enable_ifIXsrSt24__is_bitwise_relocatableIT_vE5valueEPS2_E4typeES4_S4_S4_RSaIT0_E
FNDA:96129,_ZSt14__relocate_a_1IddENSt9enable_ifIXsrSt24__is_bitwise_relocatableIT_vE5valueEPS2_E4typeES4_S4_S4_RSaIT0_E
FN:988,_ZSt14__relocate_a_1IccENSt9enable_ifIXsrSt24__is_bitwise_relocatableIT_vE5valueEPS2_E4typeES4_S4_S4_RSaIT0_E
FNDA:24,_ZSt14__relocate_a_1IccENSt9enable_ifIXsrSt24__is_bitwise_relocatableIT_vE5valueEPS2_E4typeES4_S4_S4_RSaIT0_E
FN:988,_ZSt14__relocate_a_1IiiENSt9enable_ifIXsrSt24__is_bitwise_relocatableIT_vE5valueEPS2_E4typeES4_S4_S4_RSaIT0_E
FNDA:0,_ZSt14__relocate_a_1IiiENSt9enable_ifIXsrSt24__is_bitwise_relocatableIT_vE5valueEPS2_E4typeES4_S4_S4_RSaIT0_E
FN:988,_ZSt14__relocate_a_1I8DataTypeS0_ENSt9enable_ifIXsrSt24__is_bitwise_relocatableIT_vE5valueEPS3_E4typeES5_S5_S5_RSaIT0_E
FNDA:8,_ZSt14__relocate_a_1I8DataTypeS0_ENSt9enable_ifIXsrSt24__is_bitwise_relocatableIT_vE5valueEPS3_E4typeES5_S5_S5_RSaIT0_E
FN:988,_ZSt14__relocate_a_1ImmENSt9enable_ifIXsrSt24__is_bitwise_relocatableIT_vE5valueEPS2_E4typeES4_S4_S4_RSaIT0_E
FNDA:1222,_ZSt14__relocate_a_1ImmENSt9enable_ifIXsrSt24__is_bitwise_relocatableIT_vE5valueEPS2_E4typeES4_S4_S4_RSaIT0_E
FN:1000,_ZSt14__relocate_a_1IPSt4pairISsSsES2_SaIS1_EET0_T_S5_S4_RT1_
FNDA:0,_ZSt14__relocate_a_1IPSt4pairISsSsES2_SaIS1_EET0_T_S5_S4_RT1_
FN:1000,_ZSt14__relocate_a_1IPSt4pairIlSt6vectorISt9sub_matchIN9__gnu_cxx17__normal_iteratorIPKcSsEEESaIS8_EEESC_SaISB_EET0_T_SF_SE_RT1_
FNDA:0,_ZSt14__relocate_a_1IPSt4pairIlSt6vectorISt9sub_matchIN9__gnu_cxx17__normal_iteratorIPKcSsEEESaIS8_EEESC_SaISB_EET0_T_SF_SE_RT1_
FN:1000,_ZSt14__relocate_a_1IPSt4pairIccES2_SaIS1_EET0_T_S5_S4_RT1_
FNDA:12,_ZSt14__relocate_a_1IPSt4pairIccES2_SaIS1_EET0_T_S5_S4_RT1_
FN:1000,_ZSt14__relocate_a_1IPNSt12regex_traitsIcE10_RegexMaskES3_SaIS2_EET0_T_S6_S5_RT1_
FNDA:0,_ZSt14__relocate_a_1IPNSt12regex_traitsIcE10_RegexMaskES3_SaIS2_EET0_T_S6_S5_RT1_
FN:1000,_ZSt14__relocate_a_1IPSt6vectorIdSaIdEES3_SaIS2_EET0_T_S6_S5_RT1_
FNDA:32,_ZSt14__relocate_a_1IPSt6vectorIdSaIdEES3_SaIS2_EET0_T_S6_S5_RT1_
FN:1000,_ZSt14__relocate_a_1IPSsS0_SaISsEET0_T_S3_S2_RT1_
FNDA:0,_ZSt14__relocate_a_1IPSsS0_SaISsEET0_T_S3_S2_RT1_
FN:1022,_ZSt12__relocate_aIPSt6vectorIdSaIdEES3_SaIS2_EET0_T_S6_S5_RT1_
FNDA:32,_ZSt12__relocate_aIPSt6vectorIdSaIdEES3_SaIS2_EET0_T_S6_S5_RT1_
FN:1022,_ZSt12__relocate_aIPSt4pairISsSsES2_SaIS1_EET0_T_S5_S4_RT1_
FNDA:0,_ZSt12__relocate_aIPSt4pairISsSsES2_SaIS1_EET0_T_S5_S4_RT1_
FN:1022,_ZSt12__relocate_aIP8DataTypeS1_SaIS0_EET0_T_S4_S3_RT1_
FNDA:8,_ZSt12__relocate_aIP8DataTypeS1_SaIS0_EET0_T_S4_S3_RT1_
FN:1022,_ZSt12__relocate_aIPSt4pairIccES2_SaIS1_EET0_T_S5_S4_RT1_
FNDA:12,_ZSt12__relocate_aIPSt4pairIccES2_SaIS1_EET0_T_S5_S4_RT1_
FN:1022,_ZSt12__relocate_aIPcS0_SaIcEET0_T_S3_S2_RT1_
FNDA:24,_ZSt12__relocate_aIPcS0_SaIcEET0_T_S3_S2_RT1_
FN:1022,_ZSt12__relocate_aIPiS0_SaIiEET0_T_S3_S2_RT1_
FNDA:0,_ZSt12__relocate_aIPiS0_SaIiEET0_T_S3_S2_RT1_
FN:1022,_ZSt12__relocate_aIPmS0_SaImEET0_T_S3_S2_RT1_
FNDA:1222,_ZSt12__relocate_aIPmS0_SaImEET0_T_S3_S2_RT1_
FN:1022,_ZSt12__relocate_aIPNSt12regex_traitsIcE10_RegexMaskES3_SaIS2_EET0_T_S6_S5_RT1_
FNDA:0,_ZSt12__relocate_aIPNSt12regex_traitsIcE10_RegexMaskES3_SaIS2_EET0_T_S6_S5_RT1_
FN:1022,_ZSt12__relocate_aIPdS0_SaIdEET0_T_S3_S2_RT1_
FNDA:96129,_ZSt12__relocate_aIPdS0_SaIdEET0_T_S3_S2_RT1_
FN:1022,_ZSt12__relocate_aIPSsS0_SaISsEET0_T_S3_S2_RT1_
FNDA:0,_ZSt12__relocate_aIPSsS0_SaISsEET0_T_S3_S2_RT1_
FN:1022,_ZSt12__relocate_aIPSt4pairIlSt6vectorISt9sub_matchIN9__gnu_cxx17__normal_iteratorIPKcSsEEESaIS8_EEESC_SaISB_EET0_T_SF_SE_RT1_
FNDA:0,_ZSt12__relocate_aIPSt4pairIlSt6vectorISt9sub_matchIN9__gnu_cxx17__normal_iteratorIPKcSsEEESaIS8_EEESC_SaISB_EET0_T_SF_SE_RT1_
FNF:115
FNH:39
DA:84,0
DA:87,0
DA:90,0
DA:91,0
DA:92,0
DA:94,0
DA:96,0
DA:97,0
DA:84,0
DA:87,0
DA:90,0
DA:91,0
DA:92,0
DA:94,0
DA:96,0
DA:97,0
DA:84,0
DA:87,0
DA:90,0
DA:91,0
DA:92,0
DA:94,0
DA:96,0
DA:97,0
DA:84,937
DA:87,937
DA:90,937
DA:91,0
DA:92,937
DA:84,937
DA:87,937
DA:90,945
DA:91,8
DA:92,937
DA:84,0
DA:87,0
DA:90,0
DA:91,0
DA:92,0
DA:94,0
DA:96,0
DA:97,0
DA:84,0
DA:87,0
DA:90,0
DA:91,0
DA:92,0
DA:94,0
DA:96,0
DA:97,0
DA:84,4898
DA:87,4898
DA:90,9345
DA:91,4447
DA:92,4898
DA:94,0
DA:96,0
DA:97,0
DA:84,3020
DA:87,3020
DA:90,16828
DA:91,13808
DA:92,3020
DA:84,0
DA:87,0
DA:90,0
DA:91,0
DA:92,0
DA:84,0
DA:87,0
DA:90,0
DA:91,0
DA:92,0
DA:94,0
DA:96,0
DA:97,0
DA:84,0
DA:87,0
DA:90,0
DA:91,0
DA:92,0
DA:94,0
DA:96,0
DA:97,0
DA:84,0
DA:87,0
DA:90,0
DA:91,0
DA:92,0
DA:94,0
DA:96,0
DA:97,0
DA:84,0
DA:87,0
DA:90,0
DA:91,0
DA:92,0
DA:94,0
DA:96,0
DA:97,0
DA:84,0
DA:87,0
DA:90,0
DA:91,0
DA:92,0
DA:94,0
DA:96,0
DA:97,0
DA:84,0
DA:87,0
DA:90,0
DA:91,0
DA:92,0
DA:94,0
DA:96,0
DA:97,0
DA:107,0
DA:109,0
DA:107,155194
DA:109,155194
DA:107,937
DA:109,937
DA:107,0
DA:109,0
DA:107,0
DA:109,0
DA:107,0
DA:109,0
DA:107,0
DA:109,0
DA:125,3020
DA:144,3020
DA:150,3020
DA:125,0
DA:144,0
DA:150,0
DA:125,0
DA:144,0
DA:150,0
DA:125,0
DA:144,0
DA:150,0
DA:125,0
DA:144,0
DA:150,0
DA:125,0
DA:144,0
DA:150,0
DA:125,0
DA:144,0
DA:150,0
DA:125,0
DA:144,0
DA:150,0
DA:125,0
DA:144,0
DA:150,0
DA:125,0
DA:144,0
DA:150,0
DA:125,0
DA:144,0
DA:150,0
DA:125,0
DA:144,0
DA:150,0
DA:125,0
DA:144,0
DA:150,0
DA:125,4898
DA:144,4898
DA:150,4898
DA:125,0
DA:144,0
DA:150,0
DA:125,0
DA:144,0
DA:150,0
DA:125,937
DA:144,937
DA:150,937
DA:125,937
DA:144,937
DA:150,937
DA:125,937
DA:144,937
DA:150,937
DA:125,0
DA:144,0
DA:150,0
DA:125,155194
DA:144,155194
DA:150,155194
DA:125,0
DA:144,0
DA:150,0
DA:125,0
DA:144,0
DA:150,0
DA:229,2391
DA:232,2391
DA:235,11070
DA:236,8679
DA:237,2391
DA:272,2391
DA:286,2391
DA:289,2391
DA:323,3020
DA:325,3020
DA:323,0
DA:325,0
DA:323,0
DA:325,0
DA:323,0
DA:325,0
DA:323,0
DA:325,0
DA:323,0
DA:325,0
DA:323,0
DA:325,0
DA:323,0
DA:325,0
DA:323,0
DA:325,0
DA:323,0
DA:325,0
DA:323,0
DA:325,0
DA:323,0
DA:325,0
DA:323,0
DA:325,0
DA:323,4898
DA:325,4898
DA:323,0
DA:325,0
DA:323,0
DA:325,0
DA:323,937
DA:325,937
DA:323,937
DA:325,937
DA:323,937
DA:325,937
DA:323,0
DA:325,0
DA:323,155194
DA:325,155194
DA:323,0
DA:325,0
DA:323,0
DA:325,0
DA:341,0
DA:347,0
DA:348,0
DA:341,0
DA:347,0
DA:348,0
DA:341,0
DA:347,0
DA:348,0
DA:341,0
DA:347,0
DA:348,0
DA:341,0
DA:347,0
DA:348,0
DA:341,4898
DA:347,4898
DA:348,4898
DA:341,0
DA:347,0
DA:348,0
DA:341,0
DA:347,0
DA:348,0
DA:341,0
DA:347,0
DA:348,0
DA:341,0
DA:347,0
DA:348,0
DA:341,0
DA:347,0
DA:348,0
DA:341,0
DA:347,0
DA:348,0
DA:400,2391
DA:402,2391
DA:561,2726
DA:563,2726
DA:566,46888
DA:567,44162
DA:568,2726
DA:570,0
DA:572,0
DA:573,0
DA:614,2726
DA:619,2726
DA:623,2726
DA:683,2726
DA:685,2726
DA:968,0
DA:976,0
DA:977,0
DA:978,0
DA:968,3
DA:976,3
DA:977,3
DA:978,3
DA:968,0
DA:976,0
DA:977,0
DA:978,0
DA:968,0
DA:976,0
DA:977,0
DA:978,0
DA:968,0
DA:976,0
DA:977,0
DA:978,0
DA:968,19
DA:976,19
DA:977,19
DA:978,19
DA:988,24
DA:991,24
DA:992,24
DA:993,7
DA:994,24
DA:988,1222
DA:991,1222
DA:992,1222
DA:993,2
DA:994,1222
DA:988,96129
DA:991,96129
DA:992,96129
DA:993,36054
DA:994,96129
DA:988,0
DA:991,0
DA:992,0
DA:993,0
DA:994,0
DA:988,8
DA:991,8
DA:992,8
DA:993,3
DA:994,8
DA:1000,0
DA:1012,0
DA:1013,0
DA:1014,0
DA:1016,0
DA:1000,12
DA:1012,12
DA:1013,15
DA:1014,3
DA:1016,12
DA:1000,0
DA:1012,0
DA:1013,0
DA:1014,0
DA:1016,0
DA:1000,0
DA:1012,0
DA:1013,0
DA:1014,0
DA:1016,0
DA:1000,0
DA:1012,0
DA:1013,0
DA:1014,0
DA:1016,0
DA:1000,32
DA:1012,32
DA:1013,51
DA:1014,19
DA:1016,32
DA:1022,0
DA:1028,0
DA:1030,0
DA:1022,12
DA:1028,12
DA:1030,12
DA:1022,24
DA:1028,24
DA:1030,24
DA:1022,0
DA:1028,0
DA:1030,0
DA:1022,0
DA:1028,0
DA:1030,0
DA:1022,1222
DA:1028,1222
DA:1030,1222
DA:1022,0
DA:1028,0
DA:1030,0
DA:1022,96129
DA:1028,96129
DA:1030,96129
DA:1022,0
DA:1028,0
DA:1030,0
DA:1022,32
DA:1028,32
DA:1030,32
DA:1022,8
DA:1028,8
DA:1030,8
LF:416
LH:132
end_of_record
SF:/usr/lib/gcc/x86_64-pc-msys/10.2.0/include/c++/ext/new_allocator.h
FN:79,_ZN9__gnu_cxx13new_allocatorIcEC2Ev
FNDA:0,_ZN9__gnu_cxx13new_allocatorIcEC2Ev
FN:79,_ZN9__gnu_cxx13new_allocatorIPlEC2Ev
FNDA:12,_ZN9__gnu_cxx13new_allocatorIPlEC2Ev
FN:79,_ZN9__gnu_cxx13new_allocatorISt23_Sp_counted_ptr_inplaceINSt8__detail4_NFAISt12regex_traitsIcEEESaIS6_ELNS_12_Lock_policyE2EEEC2Ev
FNDA:1214,_ZN9__gnu_cxx13new_allocatorISt23_Sp_counted_ptr_inplaceINSt8__detail4_NFAISt12regex_traitsIcEEESaIS6_ELNS_12_Lock_policyE2EEEC2Ev
FN:79,_ZN9__gnu_cxx13new_allocatorISt4pairINS_17__normal_iteratorIPKcSsEEiEEC2Ev
FNDA:2726,_ZN9__gnu_cxx13new_allocatorISt4pairINS_17__normal_iteratorIPKcSsEEiEEC2Ev
FN:79,_ZN9__gnu_cxx13new_allocatorIiEC2Ev
FNDA:0,_ZN9__gnu_cxx13new_allocatorIiEC2Ev
FN:79,_ZN9__gnu_cxx13new_allocatorIdEC2Ev
FNDA:0,_ZN9__gnu_cxx13new_allocatorIdEC2Ev
FN:79,_ZN9__gnu_cxx13new_allocatorINSt8__detail6_StateIcEEEC2Ev
FNDA:609,_ZN9__gnu_cxx13new_allocatorINSt8__detail6_StateIcEEEC2Ev
FN:79,_ZN9__gnu_cxx13new_allocatorISt13_Rb_tree_nodeISsEEC2Ev
FNDA:6,_ZN9__gnu_cxx13new_allocatorISt13_Rb_tree_nodeISsEEC2Ev
FN:79,_ZN9__gnu_cxx13new_allocatorI8DataTypeEC2Ev
FNDA:1,_ZN9__gnu_cxx13new_allocatorI8DataTypeEC2Ev
FN:79,_ZN9__gnu_cxx13new_allocatorISt6vectorIdSaIdEEEC2Ev
FNDA:0,_ZN9__gnu_cxx13new_allocatorISt6vectorIdSaIdEEEC2Ev
FN:79,_ZN9__gnu_cxx13new_allocatorImEC2Ev
FNDA:610,_ZN9__gnu_cxx13new_allocatorImEC2Ev
FN:79,_ZN9__gnu_cxx13new_allocatorISt13_Rb_tree_nodeISt4pairIKllEEEC2Ev
FNDA:4,_ZN9__gnu_cxx13new_allocatorISt13_Rb_tree_nodeISt4pairIKllEEEC2Ev
FN:79,_ZN9__gnu_cxx13new_allocatorIPNSt8__detail9_StateSeqISt12regex_traitsIcEEEEC2Ev
FNDA:1218,_ZN9__gnu_cxx13new_allocatorIPNSt8__detail9_StateSeqISt12regex_traitsIcEEEEC2Ev
FN:79,_ZN9__gnu_cxx13new_allocatorINSt8__detail9_StateSeqISt12regex_traitsIcEEEEC2Ev
FNDA:609,_ZN9__gnu_cxx13new_allocatorINSt8__detail9_StateSeqISt12regex_traitsIcEEEEC2Ev
FN:79,_ZN9__gnu_cxx13new_allocatorISt4pairIlSt6vectorISt9sub_matchINS_17__normal_iteratorIPKcSsEEESaIS8_EEEEC2Ev
FNDA:0,_ZN9__gnu_cxx13new_allocatorISt4pairIlSt6vectorISt9sub_matchINS_17__normal_iteratorIPKcSsEEESaIS8_EEEEC2Ev
FN:79,_ZN9__gnu_cxx13new_allocatorISt9sub_matchINS_17__normal_iteratorIPKcSsEEEEC2Ev
FNDA:4860,_ZN9__gnu_cxx13new_allocatorISt9sub_matchINS_17__normal_iteratorIPKcSsEEEEC2Ev
FN:79,_ZN9__gnu_cxx13new_allocatorISt4pairIccEEC2Ev
FNDA:621,_ZN9__gnu_cxx13new_allocatorISt4pairIccEEC2Ev
FN:79,_ZN9__gnu_cxx13new_allocatorIlEC2Ev
FNDA:6,_ZN9__gnu_cxx13new_allocatorIlEC2Ev
FN:79,_ZN9__gnu_cxx13new_allocatorINSt8__detail4_NFAISt12regex_traitsIcEEEEC2Ev
FNDA:609,_ZN9__gnu_cxx13new_allocatorINSt8__detail4_NFAISt12regex_traitsIcEEEEC2Ev
FN:79,_ZN9__gnu_cxx13new_allocatorISsEC2Ev
FNDA:0,_ZN9__gnu_cxx13new_allocatorISsEC2Ev
FN:79,_ZN9__gnu_cxx13new_allocatorINSt12regex_traitsIcE10_RegexMaskEEC2Ev
FNDA:621,_ZN9__gnu_cxx13new_allocatorINSt12regex_traitsIcE10_RegexMaskEEC2Ev
FN:79,_ZN9__gnu_cxx13new_allocatorISt4pairISsSsEEC2Ev
FNDA:0,_ZN9__gnu_cxx13new_allocatorISt4pairISsSsEEC2Ev
FN:82,_ZN9__gnu_cxx13new_allocatorISt6vectorISsSaISsEEEC2ERKS4_
FNDA:0,_ZN9__gnu_cxx13new_allocatorISt6vectorISsSaISsEEEC2ERKS4_
FN:82,_ZN9__gnu_cxx13new_allocatorISt4pairISsSsEEC2ERKS3_
FNDA:0,_ZN9__gnu_cxx13new_allocatorISt4pairISsSsEEC2ERKS3_
FN:82,_ZN9__gnu_cxx13new_allocatorINSt12regex_traitsIcE10_RegexMaskEEC2ERKS4_
FNDA:3116,_ZN9__gnu_cxx13new_allocatorINSt12regex_traitsIcE10_RegexMaskEEC2ERKS4_
FN:82,_ZN9__gnu_cxx13new_allocatorISsEC2ERKS1_
FNDA:0,_ZN9__gnu_cxx13new_allocatorISsEC2ERKS1_
FN:82,_ZN9__gnu_cxx13new_allocatorISt4pairIccEEC2ERKS3_
FNDA:3116,_ZN9__gnu_cxx13new_allocatorISt4pairIccEEC2ERKS3_
FN:82,_ZN9__gnu_cxx13new_allocatorINSt8__detail4_NFAISt12regex_traitsIcEEEEC2ERKS6_
FNDA:1827,_ZN9__gnu_cxx13new_allocatorINSt8__detail4_NFAISt12regex_traitsIcEEEEC2ERKS6_
FN:82,_ZN9__gnu_cxx13new_allocatorIdEC2ERKS1_
FNDA:0,_ZN9__gnu_cxx13new_allocatorIdEC2ERKS1_
FN:82,_ZN9__gnu_cxx13new_allocatorISt9sub_matchINS_17__normal_iteratorIPKcSsEEEEC2ERKS7_
FNDA:5762,_ZN9__gnu_cxx13new_allocatorISt9sub_matchINS_17__normal_iteratorIPKcSsEEEEC2ERKS7_
FN:82,_ZN9__gnu_cxx13new_allocatorIcEC2ERKS1_
FNDA:0,_ZN9__gnu_cxx13new_allocatorIcEC2ERKS1_
FN:82,_ZN9__gnu_cxx13new_allocatorISt4pairINS_17__normal_iteratorIPKcSsEEiEEC2ERKS7_
FNDA:5452,_ZN9__gnu_cxx13new_allocatorISt4pairINS_17__normal_iteratorIPKcSsEEiEEC2ERKS7_
FN:82,_ZN9__gnu_cxx13new_allocatorISt4pairIlSt6vectorISt9sub_matchINS_17__normal_iteratorIPKcSsEEESaIS8_EEEEC2ERKSC_
FNDA:0,_ZN9__gnu_cxx13new_allocatorISt4pairIlSt6vectorISt9sub_matchINS_17__normal_iteratorIPKcSsEEESaIS8_EEEEC2ERKSC_
FN:89,_ZN9__gnu_cxx13new_allocatorIlED2Ev
FNDA:6,_ZN9__gnu_cxx13new_allocatorIlED2Ev
FN:89,_ZN9__gnu_cxx13new_allocatorINSt8__detail9_StateSeqISt12regex_traitsIcEEEED2Ev
FNDA:609,_ZN9__gnu_cxx13new_allocatorINSt8__detail9_StateSeqISt12regex_traitsIcEEEED2Ev
FN:89,_ZN9__gnu_cxx13new_allocatorINSt8__detail4_NFAISt12regex_traitsIcEEEED2Ev
FNDA:2432,_ZN9__gnu_cxx13new_allocatorINSt8__detail4_NFAISt12regex_traitsIcEEEED2Ev
FN:89,_ZN9__gnu_cxx13new_allocatorISt4pairIlSt6vectorISt9sub_matchINS_17__normal_iteratorIPKcSsEEESaIS8_EEEED2Ev
FNDA:0,_ZN9__gnu_cxx13new_allocatorISt4pairIlSt6vectorISt9sub_matchINS_17__normal_iteratorIPKcSsEEESaIS8_EEEED2Ev
FN:89,_ZN9__gnu_cxx13new_allocatorIPNSt8__detail9_StateSeqISt12regex_traitsIcEEEED2Ev
FNDA:1218,_ZN9__gnu_cxx13new_allocatorIPNSt8__detail9_StateSeqISt12regex_traitsIcEEEED2Ev
FN:89,_ZN9__gnu_cxx13new_allocatorISt9sub_matchINS_17__normal_iteratorIPKcSsEEEED2Ev
FNDA:10622,_ZN9__gnu_cxx13new_allocatorISt9sub_matchINS_17__normal_iteratorIPKcSsEEEED2Ev
FN:89,_ZN9__gnu_cxx13new_allocatorISt4pairIccEED2Ev
FNDA:3730,_ZN9__gnu_cxx13new_allocatorISt4pairIccEED2Ev
FN:89,_ZN9__gnu_cxx13new_allocatorISt4pairINS_17__normal_iteratorIPKcSsEEiEED2Ev
FNDA:8178,_ZN9__gnu_cxx13new_allocatorISt4pairINS_17__normal_iteratorIPKcSsEEiEED2Ev
FN:89,_ZN9__gnu_cxx13new_allocatorISt23_Sp_counted_ptr_inplaceINSt8__detail4_NFAISt12regex_traitsIcEEESaIS6_ELNS_12_Lock_policyE2EEED2Ev
FNDA:1214,_ZN9__gnu_cxx13new_allocatorISt23_Sp_counted_ptr_inplaceINSt8__detail4_NFAISt12regex_traitsIcEEESaIS6_ELNS_12_Lock_policyE2EEED2Ev
FN:89,_ZN9__gnu_cxx13new_allocatorISt13_Rb_tree_nodeISt4pairIKllEEED2Ev
FNDA:4,_ZN9__gnu_cxx13new_allocatorISt13_Rb_tree_nodeISt4pairIKllEEED2Ev
FN:89,_ZN9__gnu_cxx13new_allocatorISt4pairISsSsEED2Ev
FNDA:0,_ZN9__gnu_cxx13new_allocatorISt4pairISsSsEED2Ev
FN:89,_ZN9__gnu_cxx13new_allocatorINSt12regex_traitsIcE10_RegexMaskEED2Ev
FNDA:3730,_ZN9__gnu_cxx13new_allocatorINSt12regex_traitsIcE10_RegexMaskEED2Ev
FN:89,_ZN9__gnu_cxx13new_allocatorIcED2Ev
FNDA:0,_ZN9__gnu_cxx13new_allocatorIcED2Ev
FN:89,_ZN9__gnu_cxx13new_allocatorIPlED2Ev
FNDA:12,_ZN9__gnu_cxx13new_allocatorIPlED2Ev
FN:89,_ZN9__gnu_cxx13new_allocatorImED2Ev
FNDA:606,_ZN9__gnu_cxx13new_allocatorImED2Ev
FN:89,_ZN9__gnu_cxx13new_allocatorINSt8__detail6_StateIcEEED2Ev
FNDA:605,_ZN9__gnu_cxx13new_allocatorINSt8__detail6_StateIcEEED2Ev
FN:89,_ZN9__gnu_cxx13new_allocatorISsED2Ev
FNDA:0,_ZN9__gnu_cxx13new_allocatorISsED2Ev
FN:89,_ZN9__gnu_cxx13new_allocatorI8DataTypeED2Ev
FNDA:0,_ZN9__gnu_cxx13new_allocatorI8DataTypeED2Ev
FN:89,_ZN9__gnu_cxx13new_allocatorISt6vectorISsSaISsEEED2Ev
FNDA:0,_ZN9__gnu_cxx13new_allocatorISt6vectorISsSaISsEEED2Ev
FN:89,_ZN9__gnu_cxx13new_allocatorISt6vectorIdSaIdEEED2Ev
FNDA:0,_ZN9__gnu_cxx13new_allocatorISt6vectorIdSaIdEEED2Ev
FN:89,_ZN9__gnu_cxx13new_allocatorIiED2Ev
FNDA:0,_ZN9__gnu_cxx13new_allocatorIiED2Ev
FN:89,_ZN9__gnu_cxx13new_allocatorIdED2Ev
FNDA:0,_ZN9__gnu_cxx13new_allocatorIdED2Ev
FN:89,_ZN9__gnu_cxx13new_allocatorISt13_Rb_tree_nodeISsEED2Ev
FNDA:6,_ZN9__gnu_cxx13new_allocatorISt13_Rb_tree_nodeISsEED2Ev
FN:103,_ZN9__gnu_cxx13new_allocatorIdE8allocateEmPKv
FNDA:0,_ZN9__gnu_cxx13new_allocatorIdE8allocateEmPKv
FN:103,_ZN9__gnu_cxx13new_allocatorISt13_Rb_tree_nodeISsEE8allocateEmPKv
FNDA:29,_ZN9__gnu_cxx13new_allocatorISt13_Rb_tree_nodeISsEE8allocateEmPKv
FN:103,_ZN9__gnu_cxx13new_allocatorIcE8allocateEmPKv
FNDA:155213,_ZN9__gnu_cxx13new_allocatorIcE8allocateEmPKv
FN:103,_ZN9__gnu_cxx13new_allocatorINSt12regex_traitsIcE10_RegexMaskEE8allocateEmPKv
FNDA:0,_ZN9__gnu_cxx13new_allocatorINSt12regex_traitsIcE10_RegexMaskEE8allocateEmPKv
FN:103,_ZN9__gnu_cxx13new_allocatorINSt8__detail9_StateSeqISt12regex_traitsIcEEEE8allocateEmPKv
FNDA:609,_ZN9__gnu_cxx13new_allocatorINSt8__detail9_StateSeqISt12regex_traitsIcEEEE8allocateEmPKv
FN:103,_ZN9__gnu_cxx13new_allocatorIPNSt8__detail9_StateSeqISt12regex_traitsIcEEEE8allocateEmPKv
FNDA:609,_ZN9__gnu_cxx13new_allocatorIPNSt8__detail9_StateSeqISt12regex_traitsIcEEEE8allocateEmPKv
FN:103,_ZN9__gnu_cxx13new_allocatorISt6vectorISsSaISsEEE8allocateEmPKv
FNDA:0,_ZN9__gnu_cxx13new_allocatorISt6vectorISsSaISsEEE8allocateEmPKv
FN:103,_ZN9__gnu_cxx13new_allocatorISt4pairINS_17__normal_iteratorIPKcSsEEiEE8allocateEmPKv
FNDA:2726,_ZN9__gnu_cxx13new_allocatorISt4pairINS_17__normal_iteratorIPKcSsEEiEE8allocateEmPKv
FN:103,_ZN9__gnu_cxx13new_allocatorImE8allocateEmPKv
FNDA:612,_ZN9__gnu_cxx13new_allocatorImE8allocateEmPKv
FN:103,_ZN9__gnu_cxx13new_allocatorISt13_Rb_tree_nodeISt4pairIKllEEE8allocateEmPKv
FNDA:4,_ZN9__gnu_cxx13new_allocatorISt13_Rb_tree_nodeISt4pairIKllEEE8allocateEmPKv
FN:103,_ZN9__gnu_cxx13new_allocatorISt23_Sp_counted_ptr_inplaceINSt8__detail4_NFAISt12regex_traitsIcEEESaIS6_ELNS_12_Lock_policyE2EEE8allocateEmPKv
FNDA:609,_ZN9__gnu_cxx13new_allocatorISt23_Sp_counted_ptr_inplaceINSt8__detail4_NFAISt12regex_traitsIcEEESaIS6_ELNS_12_Lock_policyE2EEE8allocateEmPKv
FN:103,_ZN9__gnu_cxx13new_allocatorISsE8allocateEmPKv
FNDA:0,_ZN9__gnu_cxx13new_allocatorISsE8allocateEmPKv
FN:103,_ZN9__gnu_cxx13new_allocatorISt4pairIlSt6vectorISt9sub_matchINS_17__normal_iteratorIPKcSsEEESaIS8_EEEE8allocateEmPKv
FNDA:0,_ZN9__gnu_cxx13new_allocatorISt4pairIlSt6vectorISt9sub_matchINS_17__normal_iteratorIPKcSsEEESaIS8_EEEE8allocateEmPKv
FN:103,_ZN9__gnu_cxx13new_allocatorI8DataTypeE8allocateEmPKv
FNDA:4,_ZN9__gnu_cxx13new_allocatorI8DataTypeE8allocateEmPKv
FN:103,_ZN9__gnu_cxx13new_allocatorISt6vectorIdSaIdEEE8allocateEmPKv
FNDA:0,_ZN9__gnu_cxx13new_allocatorISt6vectorIdSaIdEEE8allocateEmPKv
FN:103,_ZN9__gnu_cxx13new_allocatorIPlE8allocateEmPKv
FNDA:6,_ZN9__gnu_cxx13new_allocatorIPlE8allocateEmPKv
FN:103,_ZN9__gnu_cxx13new_allocatorISt4pairISsSsEE8allocateEmPKv
FNDA:0,_ZN9__gnu_cxx13new_allocatorISt4pairISsSsEE8allocateEmPKv
FN:103,_ZN9__gnu_cxx13new_allocatorIlE8allocateEmPKv
FNDA:6,_ZN9__gnu_cxx13new_allocatorIlE8allocateEmPKv
FN:103,_ZN9__gnu_cxx13new_allocatorISt4pairIccEE8allocateEmPKv
FNDA:10,_ZN9__gnu_cxx13new_allocatorISt4pairIccEE8allocateEmPKv
FN:103,_ZN9__gnu_cxx13new_allocatorINSt8__detail6_StateIcEEE8allocateEmPKv
FNDA:2449,_ZN9__gnu_cxx13new_allocatorINSt8__detail6_StateIcEEE8allocateEmPKv
FN:103,_ZN9__gnu_cxx13new_allocatorIiE8allocateEmPKv
FNDA:0,_ZN9__gnu_cxx13new_allocatorIiE8allocateEmPKv
FN:103,_ZN9__gnu_cxx13new_allocatorISt9sub_matchINS_17__normal_iteratorIPKcSsEEEE8allocateEmPKv
FNDA:4540,_ZN9__gnu_cxx13new_allocatorISt9sub_matchINS_17__normal_iteratorIPKcSsEEEE8allocateEmPKv
FN:120,_ZN9__gnu_cxx13new_allocatorINSt8__detail9_StateSeqISt12regex_traitsIcEEEE10deallocateEPS5_m
FNDA:609,_ZN9__gnu_cxx13new_allocatorINSt8__detail9_StateSeqISt12regex_traitsIcEEEE10deallocateEPS5_m
FN:120,_ZN9__gnu_cxx13new_allocatorIPNSt8__detail9_StateSeqISt12regex_traitsIcEEEE10deallocateEPS6_m
FNDA:609,_ZN9__gnu_cxx13new_allocatorIPNSt8__detail9_StateSeqISt12regex_traitsIcEEEE10deallocateEPS6_m
FN:120,_ZN9__gnu_cxx13new_allocatorISt4pairIlSt6vectorISt9sub_matchINS_17__normal_iteratorIPKcSsEEESaIS8_EEEE10deallocateEPSB_m
FNDA:0,_ZN9__gnu_cxx13new_allocatorISt4pairIlSt6vectorISt9sub_matchINS_17__normal_iteratorIPKcSsEEESaIS8_EEEE10deallocateEPSB_m
FN:120,_ZN9__gnu_cxx13new_allocatorISt4pairINS_17__normal_iteratorIPKcSsEEiEE10deallocateEPS6_m
FNDA:2726,_ZN9__gnu_cxx13new_allocatorISt4pairINS_17__normal_iteratorIPKcSsEEiEE10deallocateEPS6_m
FN:120,_ZN9__gnu_cxx13new_allocatorINSt12regex_traitsIcE10_RegexMaskEE10deallocateEPS3_m
FNDA:0,_ZN9__gnu_cxx13new_allocatorINSt12regex_traitsIcE10_RegexMaskEE10deallocateEPS3_m
FN:120,_ZN9__gnu_cxx13new_allocatorISt13_Rb_tree_nodeISt4pairIKllEEE10deallocateEPS5_m
FNDA:4,_ZN9__gnu_cxx13new_allocatorISt13_Rb_tree_nodeISt4pairIKllEEE10deallocateEPS5_m
FN:120,_ZN9__gnu_cxx13new_allocatorISt4pairIccEE10deallocateEPS2_m
FNDA:10,_ZN9__gnu_cxx13new_allocatorISt4pairIccEE10deallocateEPS2_m
FN:120,_ZN9__gnu_cxx13new_allocatorISt4pairISsSsEE10deallocateEPS2_m
FNDA:0,_ZN9__gnu_cxx13new_allocatorISt4pairISsSsEE10deallocateEPS2_m
FN:120,_ZN9__gnu_cxx13new_allocatorIPlE10deallocateEPS1_m
FNDA:6,_ZN9__gnu_cxx13new_allocatorIPlE10deallocateEPS1_m
FN:120,_ZN9__gnu_cxx13new_allocatorIiE10deallocateEPim
FNDA:0,_ZN9__gnu_cxx13new_allocatorIiE10deallocateEPim
FN:120,_ZN9__gnu_cxx13new_allocatorIdE10deallocateEPdm
FNDA:0,_ZN9__gnu_cxx13new_allocatorIdE10deallocateEPdm
FN:120,_ZN9__gnu_cxx13new_allocatorI8DataTypeE10deallocateEPS1_m
FNDA:0,_ZN9__gnu_cxx13new_allocatorI8DataTypeE10deallocateEPS1_m
FN:120,_ZN9__gnu_cxx13new_allocatorIlE10deallocateEPlm
FNDA:6,_ZN9__gnu_cxx13new_allocatorIlE10deallocateEPlm
FN:120,_ZN9__gnu_cxx13new_allocatorINSt8__detail6_StateIcEEE10deallocateEPS3_m
FNDA:2445,_ZN9__gnu_cxx13new_allocatorINSt8__detail6_StateIcEEE10deallocateEPS3_m
FN:120,_ZN9__gnu_cxx13new_allocatorISt6vectorISsSaISsEEE10deallocateEPS3_m
FNDA:0,_ZN9__gnu_cxx13new_allocatorISt6vectorISsSaISsEEE10deallocateEPS3_m
FN:120,_ZN9__gnu_cxx13new_allocatorISt23_Sp_counted_ptr_inplaceINSt8__detail4_NFAISt12regex_traitsIcEEESaIS6_ELNS_12_Lock_policyE2EEE10deallocateEPS9_m
FNDA:605,_ZN9__gnu_cxx13new_allocatorISt23_Sp_counted_ptr_inplaceINSt8__detail4_NFAISt12regex_traitsIcEEESaIS6_ELNS_12_Lock_policyE2EEE10deallocateEPS9_m
FN:120,_ZN9__gnu_cxx13new_allocatorISt6vectorIdSaIdEEE10deallocateEPS3_m
FNDA:0,_ZN9__gnu_cxx13new_allocatorISt6vectorIdSaIdEEE10deallocateEPS3_m
FN:120,_ZN9__gnu_cxx13new_allocatorISsE10deallocateEPSsm
FNDA:0,_ZN9__gnu_cxx13new_allocatorISsE10deallocateEPSsm
FN:120,_ZN9__gnu_cxx13new_allocatorISt13_Rb_tree_nodeISsEE10deallocateEPS2_m
FNDA:29,_ZN9__gnu_cxx13new_allocatorISt13_Rb_tree_nodeISsEE10deallocateEPS2_m
FN:120,_ZN9__gnu_cxx13new_allocatorImE10deallocateEPmm
FNDA:608,_ZN9__gnu_cxx13new_allocatorImE10deallocateEPmm
FN:120,_ZN9__gnu_cxx13new_allocatorIcE10deallocateEPcm
FNDA:155208,_ZN9__gnu_cxx13new_allocatorIcE10deallocateEPcm
FN:120,_ZN9__gnu_cxx13new_allocatorISt9sub_matchINS_17__normal_iteratorIPKcSsEEEE10deallocateEPS6_m
FNDA:4540,_ZN9__gnu_cxx13new_allocatorISt9sub_matchINS_17__normal_iteratorIPKcSsEEEE10deallocateEPS6_m
FN:142,_ZNK9__gnu_cxx13new_allocatorIiE8max_sizeEv
FNDA:0,_ZNK9__gnu_cxx13new_allocatorIiE8max_sizeEv
FN:142,_ZNK9__gnu_cxx13new_allocatorISt6vectorIdSaIdEEE8max_sizeEv
FNDA:0,_ZNK9__gnu_cxx13new_allocatorISt6vectorIdSaIdEEE8max_sizeEv
FN:142,_ZNK9__gnu_cxx13new_allocatorIdE8max_sizeEv
FNDA:0,_ZNK9__gnu_cxx13new_allocatorIdE8max_sizeEv
FN:142,_ZNK9__gnu_cxx13new_allocatorISsE8max_sizeEv
FNDA:0,_ZNK9__gnu_cxx13new_allocatorISsE8max_sizeEv
FN:142,_ZNK9__gnu_cxx13new_allocatorImE8max_sizeEv
FNDA:1224,_ZNK9__gnu_cxx13new_allocatorImE8max_sizeEv
FN:142,_ZNK9__gnu_cxx13new_allocatorI8DataTypeE8max_sizeEv
FNDA:8,_ZNK9__gnu_cxx13new_allocatorI8DataTypeE8max_sizeEv
FN:142,_ZNK9__gnu_cxx13new_allocatorISt4pairISsSsEE8max_sizeEv
FNDA:0,_ZNK9__gnu_cxx13new_allocatorISt4pairISsSsEE8max_sizeEv
FN:142,_ZNK9__gnu_cxx13new_allocatorISt4pairIccEE8max_sizeEv
FNDA:12,_ZNK9__gnu_cxx13new_allocatorISt4pairIccEE8max_sizeEv
FN:142,_ZNK9__gnu_cxx13new_allocatorIcE8max_sizeEv
FNDA:155218,_ZNK9__gnu_cxx13new_allocatorIcE8max_sizeEv
FN:142,_ZNK9__gnu_cxx13new_allocatorINSt12regex_traitsIcE10_RegexMaskEE8max_sizeEv
FNDA:0,_ZNK9__gnu_cxx13new_allocatorINSt12regex_traitsIcE10_RegexMaskEE8max_sizeEv
FN:142,_ZNK9__gnu_cxx13new_allocatorINSt8__detail9_StateSeqISt12regex_traitsIcEEEE8max_sizeEv
FNDA:0,_ZNK9__gnu_cxx13new_allocatorINSt8__detail9_StateSeqISt12regex_traitsIcEEEE8max_sizeEv
FN:142,_ZNK9__gnu_cxx13new_allocatorISt9sub_matchINS_17__normal_iteratorIPKcSsEEEE8max_sizeEv
FNDA:1520,_ZNK9__gnu_cxx13new_allocatorISt9sub_matchINS_17__normal_iteratorIPKcSsEEEE8max_sizeEv
FN:142,_ZNK9__gnu_cxx13new_allocatorISt4pairINS_17__normal_iteratorIPKcSsEEiEE8max_sizeEv
FNDA:2726,_ZNK9__gnu_cxx13new_allocatorISt4pairINS_17__normal_iteratorIPKcSsEEiEE8max_sizeEv
FN:142,_ZNK9__gnu_cxx13new_allocatorINSt8__detail6_StateIcEEE8max_sizeEv
FNDA:4898,_ZNK9__gnu_cxx13new_allocatorINSt8__detail6_StateIcEEE8max_sizeEv
FN:142,_ZNK9__gnu_cxx13new_allocatorISt4pairIlSt6vectorISt9sub_matchINS_17__normal_iteratorIPKcSsEEESaIS8_EEEE8max_sizeEv
FNDA:0,_ZNK9__gnu_cxx13new_allocatorISt4pairIlSt6vectorISt9sub_matchINS_17__normal_iteratorIPKcSsEEESaIS8_EEEE8max_sizeEv
FN:142,_ZNK9__gnu_cxx13new_allocatorIlE8max_sizeEv
FNDA:0,_ZNK9__gnu_cxx13new_allocatorIlE8max_sizeEv
FN:148,_ZN9__gnu_cxx13new_allocatorIlE9constructIlJRKlEEEvPT_DpOT0_
FNDA:4,_ZN9__gnu_cxx13new_allocatorIlE9constructIlJRKlEEEvPT_DpOT0_
FN:148,_ZN9__gnu_cxx13new_allocatorImE9constructImJRKmEEEvPT_DpOT0_
FNDA:613,_ZN9__gnu_cxx13new_allocatorImE9constructImJRKmEEEvPT_DpOT0_
FN:148,_ZN9__gnu_cxx13new_allocatorINSt12regex_traitsIcE10_RegexMaskEE9constructIS3_JRKS3_EEEvPT_DpOT0_
FNDA:0,_ZN9__gnu_cxx13new_allocatorINSt12regex_traitsIcE10_RegexMaskEE9constructIS3_JRKS3_EEEvPT_DpOT0_
FN:148,_ZN9__gnu_cxx13new_allocatorISsE9constructISsJRKSsEEEvPT_DpOT0_
FNDA:0,_ZN9__gnu_cxx13new_allocatorISsE9constructISsJRKSsEEEvPT_DpOT0_
FN:148,_ZN9__gnu_cxx13new_allocatorIcE9constructIcJcEEEvPT_DpOT0_
FNDA:12,_ZN9__gnu_cxx13new_allocatorIcE9constructIcJcEEEvPT_DpOT0_
FN:148,_ZN9__gnu_cxx13new_allocatorIdE9constructIdJRdEEEvPT_DpOT0_
FNDA:6,_ZN9__gnu_cxx13new_allocatorIdE9constructIdJRdEEEvPT_DpOT0_
FN:148,_ZN9__gnu_cxx13new_allocatorIiE9constructIiJlEEEvPT_DpOT0_
FNDA:3,_ZN9__gnu_cxx13new_allocatorIiE9constructIiJlEEEvPT_DpOT0_
FN:148,_ZN9__gnu_cxx13new_allocatorISsE9constructISsJRSsEEEvPT_DpOT0_
FNDA:0,_ZN9__gnu_cxx13new_allocatorISsE9constructISsJRSsEEEvPT_DpOT0_
FN:148,_ZN9__gnu_cxx13new_allocatorIiE9constructIiJmEEEvPT_DpOT0_
FNDA:3,_ZN9__gnu_cxx13new_allocatorIiE9constructIiJmEEEvPT_DpOT0_
FN:148,_ZN9__gnu_cxx13new_allocatorISt13_Rb_tree_nodeISt4pairIKllEEE9constructIS4_JRKSt21piecewise_construct_tSt5tupleIJRS3_EESB_IJEEEEEvPT_DpOT0_
FNDA:4,_ZN9__gnu_cxx13new_allocatorISt13_Rb_tree_nodeISt4pairIKllEEE9constructIS4_JRKSt21piecewise_construct_tSt5tupleIJRS3_EESB_IJEEEEEvPT_DpOT0_
FN:148,_ZN9__gnu_cxx13new_allocatorIdE9constructIdJdEEEvPT_DpOT0_
FNDA:12030,_ZN9__gnu_cxx13new_allocatorIdE9constructIdJdEEEvPT_DpOT0_
FN:148,_ZN9__gnu_cxx13new_allocatorIiE9constructIiJRiEEEvPT_DpOT0_
FNDA:0,_ZN9__gnu_cxx13new_allocatorIiE9constructIiJRiEEEvPT_DpOT0_
FN:148,_ZN9__gnu_cxx13new_allocatorISt6vectorIdSaIdEEE9constructIS3_JS3_EEEvPT_DpOT0_
FNDA:37,_ZN9__gnu_cxx13new_allocatorISt6vectorIdSaIdEEE9constructIS3_JS3_EEEvPT_DpOT0_
FN:148,_ZN9__gnu_cxx13new_allocatorI8DataTypeE9constructIS1_JRS1_EEEvPT_DpOT0_
FNDA:6,_ZN9__gnu_cxx13new_allocatorI8DataTypeE9constructIS1_JRS1_EEEvPT_DpOT0_
FN:148,_ZN9__gnu_cxx13new_allocatorISt4pairIccEE9constructIS2_JS2_EEEvPT_DpOT0_
FNDA:9,_ZN9__gnu_cxx13new_allocatorISt4pairIccEE9constructIS2_JS2_EEEvPT_DpOT0_
FN:148,_ZN9__gnu_cxx13new_allocatorISt4pairISsSsEE9constructIS2_JS2_EEEvPT_DpOT0_
FNDA:0,_ZN9__gnu_cxx13new_allocatorISt4pairISsSsEE9constructIS2_JS2_EEEvPT_DpOT0_
FN:148,_ZN9__gnu_cxx13new_allocatorISt4pairIlSt6vectorISt9sub_matchINS_17__normal_iteratorIPKcSsEEESaIS8_EEEE9constructISB_JSB_EEEvPT_DpOT0_
FNDA:0,_ZN9__gnu_cxx13new_allocatorISt4pairIlSt6vectorISt9sub_matchINS_17__normal_iteratorIPKcSsEEESaIS8_EEEE9constructISB_JSB_EEEvPT_DpOT0_
FN:148,_ZN9__gnu_cxx13new_allocatorINSt12regex_traitsIcE10_RegexMaskEE9constructIS3_JS3_EEEvPT_DpOT0_
FNDA:0,_ZN9__gnu_cxx13new_allocatorINSt12regex_traitsIcE10_RegexMaskEE9constructIS3_JS3_EEEvPT_DpOT0_
FN:148,_ZN9__gnu_cxx13new_allocatorISt13_Rb_tree_nodeISsEE9constructISsJRKSsEEEvPT_DpOT0_
FNDA:29,_ZN9__gnu_cxx13new_allocatorISt13_Rb_tree_nodeISsEE9constructISsJRKSsEEEvPT_DpOT0_
FN:148,_ZN9__gnu_cxx13new_allocatorINSt8__detail4_NFAISt12regex_traitsIcEEEE9constructIS5_JRKSt6localeRNSt15regex_constants18syntax_option_typeEEEEvPT_DpOT0_
FNDA:609,_ZN9__gnu_cxx13new_allocatorINSt8__detail4_NFAISt12regex_traitsIcEEEE9constructIS5_JRKSt6localeRNSt15regex_constants18syntax_option_typeEEEEvPT_DpOT0_
FN:148,_ZN9__gnu_cxx13new_allocatorISsE9constructISsJSsEEEvPT_DpOT0_
FNDA:0,_ZN9__gnu_cxx13new_allocatorISsE9constructISsJSsEEEvPT_DpOT0_
FN:148,_ZN9__gnu_cxx13new_allocatorINSt8__detail6_StateIcEEE9constructIS3_JS3_EEEvPT_DpOT0_
FNDA:4359,_ZN9__gnu_cxx13new_allocatorINSt8__detail6_StateIcEEE9constructIS3_JS3_EEEvPT_DpOT0_
FN:148,_ZN9__gnu_cxx13new_allocatorINSt8__detail9_StateSeqISt12regex_traitsIcEEEE9constructIS5_JRKS5_EEEvPT_DpOT0_
FNDA:1889,_ZN9__gnu_cxx13new_allocatorINSt8__detail9_StateSeqISt12regex_traitsIcEEEE9constructIS5_JRKS5_EEEvPT_DpOT0_
FN:148,_ZN9__gnu_cxx13new_allocatorINSt8__detail9_StateSeqISt12regex_traitsIcEEEE9constructIS5_JS5_EEEvPT_DpOT0_
FNDA:1873,_ZN9__gnu_cxx13new_allocatorINSt8__detail9_StateSeqISt12regex_traitsIcEEEE9constructIS5_JS5_EEEvPT_DpOT0_
FN:148,_ZN9__gnu_cxx13new_allocatorISt4pairIlSt6vectorISt9sub_matchINS_17__normal_iteratorIPKcSsEEESaIS8_EEEE9constructISB_JRlRKSA_EEEvPT_DpOT0_
FNDA:0,_ZN9__gnu_cxx13new_allocatorISt4pairIlSt6vectorISt9sub_matchINS_17__normal_iteratorIPKcSsEEESaIS8_EEEE9constructISB_JRlRKSA_EEEvPT_DpOT0_
FN:154,_ZN9__gnu_cxx13new_allocatorIlE7destroyIlEEvPT_
FNDA:4,_ZN9__gnu_cxx13new_allocatorIlE7destroyIlEEvPT_
FN:154,_ZN9__gnu_cxx13new_allocatorINSt8__detail4_NFAISt12regex_traitsIcEEEE7destroyIS5_EEvPT_
FNDA:605,_ZN9__gnu_cxx13new_allocatorINSt8__detail4_NFAISt12regex_traitsIcEEEE7destroyIS5_EEvPT_
FN:154,_ZN9__gnu_cxx13new_allocatorImE7destroyImEEvPT_
FNDA:613,_ZN9__gnu_cxx13new_allocatorImE7destroyImEEvPT_
FN:154,_ZN9__gnu_cxx13new_allocatorISt4pairISsSsEE7destroyIS2_EEvPT_
FNDA:0,_ZN9__gnu_cxx13new_allocatorISt4pairISsSsEE7destroyIS2_EEvPT_
FN:154,_ZN9__gnu_cxx13new_allocatorISt4pairIccEE7destroyIS2_EEvPT_
FNDA:3,_ZN9__gnu_cxx13new_allocatorISt4pairIccEE7destroyIS2_EEvPT_
FN:154,_ZN9__gnu_cxx13new_allocatorIcE7destroyIcEEvPT_
FNDA:0,_ZN9__gnu_cxx13new_allocatorIcE7destroyIcEEvPT_
FN:154,_ZN9__gnu_cxx13new_allocatorINSt8__detail9_StateSeqISt12regex_traitsIcEEEE7destroyIS5_EEvPT_
FNDA:3762,_ZN9__gnu_cxx13new_allocatorINSt8__detail9_StateSeqISt12regex_traitsIcEEEE7destroyIS5_EEvPT_
FN:154,_ZN9__gnu_cxx13new_allocatorISt13_Rb_tree_nodeISt4pairIKllEEE7destroyIS4_EEvPT_
FNDA:4,_ZN9__gnu_cxx13new_allocatorISt13_Rb_tree_nodeISt4pairIKllEEE7destroyIS4_EEvPT_
FN:154,_ZN9__gnu_cxx13new_allocatorISt13_Rb_tree_nodeISsEE7destroyISsEEvPT_
FNDA:29,_ZN9__gnu_cxx13new_allocatorISt13_Rb_tree_nodeISsEE7destroyISsEEvPT_
FN:154,_ZN9__gnu_cxx13new_allocatorIiE7destroyIiEEvPT_
FNDA:0,_ZN9__gnu_cxx13new_allocatorIiE7destroyIiEEvPT_
FN:154,_ZN9__gnu_cxx13new_allocatorINSt12regex_traitsIcE10_RegexMaskEE7destroyIS3_EEvPT_
FNDA:0,_ZN9__gnu_cxx13new_allocatorINSt12regex_traitsIcE10_RegexMaskEE7destroyIS3_EEvPT_
FN:154,_ZN9__gnu_cxx13new_allocatorISt4pairIlSt6vectorISt9sub_matchINS_17__normal_iteratorIPKcSsEEESaIS8_EEEE7destroyISB_EEvPT_
FNDA:0,_ZN9__gnu_cxx13new_allocatorISt4pairIlSt6vectorISt9sub_matchINS_17__normal_iteratorIPKcSsEEESaIS8_EEEE7destroyISB_EEvPT_
FN:154,_ZN9__gnu_cxx13new_allocatorI8DataTypeE7destroyIS1_EEvPT_
FNDA:0,_ZN9__gnu_cxx13new_allocatorI8DataTypeE7destroyIS1_EEvPT_
FN:154,_ZN9__gnu_cxx13new_allocatorIdE7destroyIdEEvPT_
FNDA:0,_ZN9__gnu_cxx13new_allocatorIdE7destroyIdEEvPT_
FN:154,_ZN9__gnu_cxx13new_allocatorISt6vectorIdSaIdEEE7destroyIS3_EEvPT_
FNDA:19,_ZN9__gnu_cxx13new_allocatorISt6vectorIdSaIdEEE7destroyIS3_EEvPT_
FN:154,_ZN9__gnu_cxx13new_allocatorINSt8__detail6_StateIcEEE7destroyIS3_EEvPT_
FNDA:0,_ZN9__gnu_cxx13new_allocatorINSt8__detail6_StateIcEEE7destroyIS3_EEvPT_
FN:154,_ZN9__gnu_cxx13new_allocatorISsE7destroyISsEEvPT_
FNDA:0,_ZN9__gnu_cxx13new_allocatorISsE7destroyISsEEvPT_
FN:185,_ZNK9__gnu_cxx13new_allocatorINSt8__detail6_StateIcEEE11_M_max_sizeEv
FNDA:7347,_ZNK9__gnu_cxx13new_allocatorINSt8__detail6_StateIcEEE11_M_max_sizeEv
FN:185,_ZNK9__gnu_cxx13new_allocatorISt13_Rb_tree_nodeISt4pairIKllEEE11_M_max_sizeEv
FNDA:4,_ZNK9__gnu_cxx13new_allocatorISt13_Rb_tree_nodeISt4pairIKllEEE11_M_max_sizeEv
FN:185,_ZNK9__gnu_cxx13new_allocatorISt13_Rb_tree_nodeISsEE11_M_max_sizeEv
FNDA:29,_ZNK9__gnu_cxx13new_allocatorISt13_Rb_tree_nodeISsEE11_M_max_sizeEv
FN:185,_ZNK9__gnu_cxx13new_allocatorINSt12regex_traitsIcE10_RegexMaskEE11_M_max_sizeEv
FNDA:0,_ZNK9__gnu_cxx13new_allocatorINSt12regex_traitsIcE10_RegexMaskEE11_M_max_sizeEv
FN:185,_ZNK9__gnu_cxx13new_allocatorISt23_Sp_counted_ptr_inplaceINSt8__detail4_NFAISt12regex_traitsIcEEESaIS6_ELNS_12_Lock_policyE2EEE11_M_max_sizeEv
FNDA:609,_ZNK9__gnu_cxx13new_allocatorISt23_Sp_counted_ptr_inplaceINSt8__detail4_NFAISt12regex_traitsIcEEESaIS6_ELNS_12_Lock_policyE2EEE11_M_max_sizeEv
FN:185,_ZNK9__gnu_cxx13new_allocatorImE11_M_max_sizeEv
FNDA:1836,_ZNK9__gnu_cxx13new_allocatorImE11_M_max_sizeEv
FN:185,_ZNK9__gnu_cxx13new_allocatorISt4pairIccEE11_M_max_sizeEv
FNDA:22,_ZNK9__gnu_cxx13new_allocatorISt4pairIccEE11_M_max_sizeEv
FN:185,_ZNK9__gnu_cxx13new_allocatorISt4pairISsSsEE11_M_max_sizeEv
FNDA:0,_ZNK9__gnu_cxx13new_allocatorISt4pairISsSsEE11_M_max_sizeEv
FN:185,_ZNK9__gnu_cxx13new_allocatorISt9sub_matchINS_17__normal_iteratorIPKcSsEEEE11_M_max_sizeEv
FNDA:6060,_ZNK9__gnu_cxx13new_allocatorISt9sub_matchINS_17__normal_iteratorIPKcSsEEEE11_M_max_sizeEv
FN:185,_ZNK9__gnu_cxx13new_allocatorINSt8__detail9_StateSeqISt12regex_traitsIcEEEE11_M_max_sizeEv
FNDA:609,_ZNK9__gnu_cxx13new_allocatorINSt8__detail9_StateSeqISt12regex_traitsIcEEEE11_M_max_sizeEv
FN:185,_ZNK9__gnu_cxx13new_allocatorISt6vectorISsSaISsEEE11_M_max_sizeEv
FNDA:0,_ZNK9__gnu_cxx13new_allocatorISt6vectorISsSaISsEEE11_M_max_sizeEv
FN:185,_ZNK9__gnu_cxx13new_allocatorISsE11_M_max_sizeEv
FNDA:0,_ZNK9__gnu_cxx13new_allocatorISsE11_M_max_sizeEv
FN:185,_ZNK9__gnu_cxx13new_allocatorISt4pairIlSt6vectorISt9sub_matchINS_17__normal_iteratorIPKcSsEEESaIS8_EEEE11_M_max_sizeEv
FNDA:0,_ZNK9__gnu_cxx13new_allocatorISt4pairIlSt6vectorISt9sub_matchINS_17__normal_iteratorIPKcSsEEESaIS8_EEEE11_M_max_sizeEv
FN:185,_ZNK9__gnu_cxx13new_allocatorIlE11_M_max_sizeEv
FNDA:6,_ZNK9__gnu_cxx13new_allocatorIlE11_M_max_sizeEv
FN:185,_ZNK9__gnu_cxx13new_allocatorIPlE11_M_max_sizeEv
FNDA:6,_ZNK9__gnu_cxx13new_allocatorIPlE11_M_max_sizeEv
FN:185,_ZNK9__gnu_cxx13new_allocatorIcE11_M_max_sizeEv
FNDA:310431,_ZNK9__gnu_cxx13new_allocatorIcE11_M_max_sizeEv
FN:185,_ZNK9__gnu_cxx13new_allocatorISt4pairINS_17__normal_iteratorIPKcSsEEiEE11_M_max_sizeEv
FNDA:5452,_ZNK9__gnu_cxx13new_allocatorISt4pairINS_17__normal_iteratorIPKcSsEEiEE11_M_max_sizeEv
FN:185,_ZNK9__gnu_cxx13new_allocatorIdE11_M_max_sizeEv
FNDA:0,_ZNK9__gnu_cxx13new_allocatorIdE11_M_max_sizeEv
FN:185,_ZNK9__gnu_cxx13new_allocatorIiE11_M_max_sizeEv
FNDA:0,_ZNK9__gnu_cxx13new_allocatorIiE11_M_max_sizeEv
FN:185,_ZNK9__gnu_cxx13new_allocatorISt6vectorIdSaIdEEE11_M_max_sizeEv
FNDA:0,_ZNK9__gnu_cxx13new_allocatorISt6vectorIdSaIdEEE11_M_max_sizeEv
FN:185,_ZNK9__gnu_cxx13new_allocatorI8DataTypeE11_M_max_sizeEv
FNDA:12,_ZNK9__gnu_cxx13new_allocatorI8DataTypeE11_M_max_sizeEv
FN:185,_ZNK9__gnu_cxx13new_allocatorIPNSt8__detail9_StateSeqISt12regex_traitsIcEEEE11_M_max_sizeEv
FNDA:609,_ZNK9__gnu_cxx13new_allocatorIPNSt8__detail9_StateSeqISt12regex_traitsIcEEEE11_M_max_sizeEv
FNF:180
FNH:106
DA:79,609
DA:79,0
DA:79,0
DA:79,610
DA:79,0
DA:79,1
DA:79,6
DA:79,0
DA:79,0
DA:79,4860
DA:79,2726
DA:79,609
DA:79,0
DA:79,609
DA:79,1218
DA:79,1214
DA:79,4
DA:79,621
DA:79,621
DA:79,0
DA:79,6
DA:79,12
DA:82,0
DA:82,3116
DA:82,3116
DA:82,1827
DA:82,0
DA:82,5452
DA:82,5762
DA:82,0
DA:82,0
DA:82,0
DA:82,0
DA:89,2432
DA:89,0
DA:89,606
DA:89,0
DA:89,0
DA:89,0
DA:89,6
DA:89,0
DA:89,0
DA:89,0
DA:89,10622
DA:89,8178
DA:89,605
DA:89,609
DA:89,0
DA:89,1218
DA:89,1214
DA:89,3730
DA:89,3730
DA:89,0
DA:89,4
DA:89,6
DA:89,12
DA:103,2726
DA:105,2726
DA:106,0
DA:115,2726
DA:103,0
DA:105,0
DA:106,0
DA:115,0
DA:103,4
DA:105,4
DA:106,0
DA:115,4
DA:103,0
DA:105,0
DA:106,0
DA:115,0
DA:103,0
DA:105,0
DA:106,0
DA:115,0
DA:103,0
DA:105,0
DA:106,0
DA:115,0
DA:103,155213
DA:105,155213
DA:106,0
DA:115,155213
DA:103,0
DA:105,0
DA:106,0
DA:115,0
DA:103,612
DA:105,612
DA:106,0
DA:115,612
DA:103,29
DA:105,29
DA:106,0
DA:115,29
DA:103,609
DA:105,609
DA:106,0
DA:115,609
DA:103,0
DA:105,0
DA:106,0
DA:115,0
DA:103,609
DA:105,609
DA:106,0
DA:115,609
DA:103,4540
DA:105,4540
DA:106,0
DA:115,4540
DA:103,609
DA:105,609
DA:106,0
DA:115,609
DA:103,2449
DA:105,2449
DA:106,0
DA:115,2449
DA:103,0
DA:105,0
DA:106,0
DA:115,0
DA:103,6
DA:105,6
DA:106,0
DA:115,6
DA:103,6
DA:105,6
DA:106,0
DA:115,6
DA:103,0
DA:105,0
DA:106,0
DA:115,0
DA:103,4
DA:105,4
DA:106,0
DA:115,4
DA:103,10
DA:105,10
DA:106,0
DA:115,10
DA:120,609
DA:133,609
DA:138,609
DA:120,155208
DA:133,155208
DA:138,155208
DA:120,608
DA:133,608
DA:138,608
DA:120,0
DA:133,0
DA:138,0
DA:120,0
DA:133,0
DA:138,0
DA:120,0
DA:133,0
DA:138,0
DA:120,0
DA:133,0
DA:138,0
DA:120,0
DA:133,0
DA:138,0
DA:120,0
DA:133,0
DA:138,0
DA:120,29
DA:133,29
DA:138,29
DA:120,4540
DA:133,4540
DA:138,4540
DA:120,4
DA:133,4
DA:138,4
DA:120,2726
DA:133,2726
DA:138,2726
DA:120,0
DA:133,0
DA:138,0
DA:120,609
DA:133,609
DA:138,609
DA:120,605
DA:133,605
DA:138,605
DA:120,2445
DA:133,2445
DA:138,2445
DA:120,10
DA:133,10
DA:138,10
DA:120,0
DA:133,0
DA:138,0
DA:120,0
DA:133,0
DA:138,0
DA:120,6
DA:133,6
DA:138,6
DA:120,6
DA:133,6
DA:138,6
DA:142,0
DA:143,0
DA:142,12
DA:143,12
DA:142,155218
DA:143,155218
DA:142,0
DA:143,0
DA:142,0
DA:143,0
DA:142,0
DA:143,0
DA:142,4898
DA:143,4898
DA:142,0
DA:143,0
DA:142,1520
DA:143,1520
DA:142,2726
DA:143,2726
DA:142,1224
DA:143,1224
DA:142,0
DA:143,0
DA:142,0
DA:143,0
DA:142,0
DA:143,0
DA:142,8
DA:143,8
DA:142,0
DA:143,0
DA:148,1889
DA:150,1889
DA:148,6
DA:150,6
DA:148,37
DA:150,37
DA:148,0
DA:150,0
DA:148,12030
DA:150,12030
DA:148,3
DA:150,3
DA:148,0
DA:150,0
DA:148,3
DA:150,3
DA:148,6
DA:150,6
DA:148,29
DA:150,29
DA:148,613
DA:150,613
DA:148,0
DA:150,0
DA:148,4359
DA:150,4359
DA:148,0
DA:150,0
DA:148,1873
DA:150,1873
DA:148,0
DA:150,0
DA:148,609
DA:150,609
DA:148,4
DA:150,4
DA:148,0
DA:150,0
DA:148,0
DA:150,0
DA:148,12
DA:150,12
DA:148,4
DA:150,4
DA:148,9
DA:150,9
DA:148,0
DA:150,0
DA:148,0
DA:150,0
DA:154,0
DA:156,0
DA:154,0
DA:156,0
DA:154,19
DA:156,19
DA:154,0
DA:156,0
DA:154,0
DA:156,0
DA:154,0
DA:156,0
DA:154,29
DA:156,29
DA:154,613
DA:156,613
DA:154,3762
DA:156,3762
DA:154,605
DA:156,605
DA:154,0
DA:156,0
DA:154,4
DA:156,4
DA:154,0
DA:156,0
DA:154,4
DA:156,4
DA:154,0
DA:156,0
DA:154,3
DA:156,3
DA:154,0
DA:156,0
DA:185,609
DA:188,609
DA:185,0
DA:188,0
DA:185,12
DA:188,12
DA:185,0
DA:188,0
DA:185,0
DA:188,0
DA:185,0
DA:188,0
DA:185,310431
DA:188,310431
DA:185,0
DA:188,0
DA:185,1836
DA:188,1836
DA:185,29
DA:188,29
DA:185,5452
DA:188,5452
DA:185,0
DA:188,0
DA:185,609
DA:188,609
DA:185,6060
DA:188,6060
DA:185,609
DA:188,609
DA:185,7347
DA:188,7347
DA:185,0
DA:188,0
DA:185,6
DA:188,6
DA:185,6
DA:188,6
DA:185,0
DA:188,0
DA:185,4
DA:188,4
DA:185,22
DA:188,22
LF:370
LH:205
end_of_record
SF:/usr/lib/gcc/x86_64-pc-msys/10.2.0/include/c++/bits/stl_algo.h
FN:79,_ZSt22__move_median_to_firstIN9__gnu_cxx17__normal_iteratorIPcSt6vectorIcSaIcEEEENS0_5__ops15_Iter_less_iterEEvT_S9_S9_S9_T0_
FNDA:0,_ZSt22__move_median_to_firstIN9__gnu_cxx17__normal_iteratorIPcSt6vectorIcSaIcEEEENS0_5__ops15_Iter_less_iterEEvT_S9_S9_S9_T0_
FN:921,_ZSt15__adjacent_findIN9__gnu_cxx17__normal_iteratorIPcSt6vectorIcSaIcEEEENS0_5__ops19_Iter_equal_to_iterEET_S9_S9_T0_
FNDA:621,_ZSt15__adjacent_findIN9__gnu_cxx17__normal_iteratorIPcSt6vectorIcSaIcEEEENS0_5__ops19_Iter_equal_to_iterEET_S9_S9_T0_
FN:939,_ZSt8__uniqueIN9__gnu_cxx17__normal_iteratorIPcSt6vectorIcSaIcEEEENS0_5__ops19_Iter_equal_to_iterEET_S9_S9_T0_
FNDA:621,_ZSt8__uniqueIN9__gnu_cxx17__normal_iteratorIPcSt6vectorIcSaIcEEEENS0_5__ops19_Iter_equal_to_iterEET_S9_S9_T0_
FN:973,_ZSt6uniqueIN9__gnu_cxx17__normal_iteratorIPcSt6vectorIcSaIcEEEEET_S7_S7_
FNDA:621,_ZSt6uniqueIN9__gnu_cxx17__normal_iteratorIPcSt6vectorIcSaIcEEEEET_S7_S7_
FN:1662,_ZSt13__heap_selectIN9__gnu_cxx17__normal_iteratorIPcSt6vectorIcSaIcEEEENS0_5__ops15_Iter_less_iterEEvT_S9_S9_T0_
FNDA:0,_ZSt13__heap_selectIN9__gnu_cxx17__normal_iteratorIPcSt6vectorIcSaIcEEEENS0_5__ops15_Iter_less_iterEEvT_S9_S9_T0_
FN:1819,_ZSt25__unguarded_linear_insertIN9__gnu_cxx17__normal_iteratorIPcSt6vectorIcSaIcEEEENS0_5__ops14_Val_less_iterEEvT_T0_
FNDA:1,_ZSt25__unguarded_linear_insertIN9__gnu_cxx17__normal_iteratorIPcSt6vectorIcSaIcEEEENS0_5__ops14_Val_less_iterEEvT_T0_
FN:1839,_ZSt16__insertion_sortIN9__gnu_cxx17__normal_iteratorIPcSt6vectorIcSaIcEEEENS0_5__ops15_Iter_less_iterEEvT_S9_T0_
FNDA:5,_ZSt16__insertion_sortIN9__gnu_cxx17__normal_iteratorIPcSt6vectorIcSaIcEEEENS0_5__ops15_Iter_less_iterEEvT_S9_T0_
FN:1863,_ZSt26__unguarded_insertion_sortIN9__gnu_cxx17__normal_iteratorIPcSt6vectorIcSaIcEEEENS0_5__ops15_Iter_less_iterEEvT_S9_T0_
FNDA:0,_ZSt26__unguarded_insertion_sortIN9__gnu_cxx17__normal_iteratorIPcSt6vectorIcSaIcEEEENS0_5__ops15_Iter_less_iterEEvT_S9_T0_
FN:1881,_ZSt22__final_insertion_sortIN9__gnu_cxx17__normal_iteratorIPcSt6vectorIcSaIcEEEENS0_5__ops15_Iter_less_iterEEvT_S9_T0_
FNDA:5,_ZSt22__final_insertion_sortIN9__gnu_cxx17__normal_iteratorIPcSt6vectorIcSaIcEEEENS0_5__ops15_Iter_less_iterEEvT_S9_T0_
FN:1898,_ZSt21__unguarded_partitionIN9__gnu_cxx17__normal_iteratorIPcSt6vectorIcSaIcEEEENS0_5__ops15_Iter_less_iterEET_S9_S9_S9_T0_
FNDA:0,_ZSt21__unguarded_partitionIN9__gnu_cxx17__normal_iteratorIPcSt6vectorIcSaIcEEEENS0_5__ops15_Iter_less_iterEET_S9_S9_S9_T0_
FN:1920,_ZSt27__unguarded_partition_pivotIN9__gnu_cxx17__normal_iteratorIPcSt6vectorIcSaIcEEEENS0_5__ops15_Iter_less_iterEET_S9_S9_T0_
FNDA:0,_ZSt27__unguarded_partition_pivotIN9__gnu_cxx17__normal_iteratorIPcSt6vectorIcSaIcEEEENS0_5__ops15_Iter_less_iterEET_S9_S9_T0_
FN:1932,_ZSt14__partial_sortIN9__gnu_cxx17__normal_iteratorIPcSt6vectorIcSaIcEEEENS0_5__ops15_Iter_less_iterEEvT_S9_S9_T0_
FNDA:0,_ZSt14__partial_sortIN9__gnu_cxx17__normal_iteratorIPcSt6vectorIcSaIcEEEENS0_5__ops15_Iter_less_iterEEvT_S9_S9_T0_
FN:1945,_ZSt16__introsort_loopIN9__gnu_cxx17__normal_iteratorIPcSt6vectorIcSaIcEEEElNS0_5__ops15_Iter_less_iterEEvT_S9_T0_T1_
FNDA:5,_ZSt16__introsort_loopIN9__gnu_cxx17__normal_iteratorIPcSt6vectorIcSaIcEEEElNS0_5__ops15_Iter_less_iterEEvT_S9_T0_T1_
FN:1969,_ZSt6__sortIN9__gnu_cxx17__normal_iteratorIPcSt6vectorIcSaIcEEEENS0_5__ops15_Iter_less_iterEEvT_S9_T0_
FNDA:621,_ZSt6__sortIN9__gnu_cxx17__normal_iteratorIPcSt6vectorIcSaIcEEEENS0_5__ops15_Iter_less_iterEEvT_S9_T0_
FN:2262,_ZSt13binary_searchIN9__gnu_cxx17__normal_iteratorIPKcSt6vectorIcSaIcEEEEcEbT_S8_RKT0_
FNDA:158976,_ZSt13binary_searchIN9__gnu_cxx17__normal_iteratorIPKcSt6vectorIcSaIcEEEEcEbT_S8_RKT0_
FN:3894,_ZSt4findIN9__gnu_cxx17__normal_iteratorIPKSsSt6vectorISsSaISsEEEESsET_S8_S8_RKT0_
FNDA:155194,_ZSt4findIN9__gnu_cxx17__normal_iteratorIPKSsSt6vectorISsSaISsEEEESsET_S8_S8_RKT0_
FN:3894,_ZSt4findIN9__gnu_cxx17__normal_iteratorIPSsSt6vectorISsSaISsEEEESsET_S7_S7_RKT0_
FNDA:0,_ZSt4findIN9__gnu_cxx17__normal_iteratorIPSsSt6vectorISsSaISsEEEESsET_S7_S7_RKT0_
FN:4849,_ZSt4sortIN9__gnu_cxx17__normal_iteratorIPcSt6vectorIcSaIcEEEEEvT_S7_
FNDA:621,_ZSt4sortIN9__gnu_cxx17__normal_iteratorIPcSt6vectorIcSaIcEEEEEvT_S7_
FNF:18
FNH:11
DA:79,0
DA:82,0
DA:84,0
DA:85,0
DA:86,0
DA:87,0
DA:89,0
DA:91,0
DA:92,0
DA:93,0
DA:94,0
DA:96,0
DA:97,0
DA:921,621
DA:924,621
DA:925,616
DA:926,5
DA:927,12
DA:929,7
DA:930,0
DA:931,7
DA:933,5
DA:939,621
DA:943,621
DA:944,621
DA:945,621
DA:948,0
DA:949,0
DA:950,0
DA:951,0
DA:952,0
DA:953,0
DA:973,621
DA:982,621
DA:983,1242
DA:1662,0
DA:1666,0
DA:1667,0
DA:1668,0
DA:1669,0
DA:1670,0
DA:1819,1
DA:1823,1
DA:1824,1
DA:1825,1
DA:1826,1
DA:1828,0
DA:1829,0
DA:1830,0
DA:1832,1
DA:1833,1
DA:1839,5
DA:1842,5
DA:1844,12
DA:1846,7
DA:1849,6
DA:1850,6
DA:1851,6
DA:1854,1
DA:1855,1
DA:1863,0
DA:1866,0
DA:1867,0
DA:1868,0
DA:1869,0
DA:1881,5
DA:1884,5
DA:1886,0
DA:1887,0
DA:1891,5
DA:1892,5
DA:1898,0
DA:1904,0
DA:1905,0
DA:1906,0
DA:1907,0
DA:1908,0
DA:1909,0
DA:1910,0
DA:1911,0
DA:1912,0
DA:1920,0
DA:1923,0
DA:1924,0
DA:1926,0
DA:1932,0
DA:1937,0
DA:1938,0
DA:1939,0
DA:1945,5
DA:1949,5
DA:1951,0
DA:1953,0
DA:1954,0
DA:1956,0
DA:1958,0
DA:1959,0
DA:1960,0
DA:1969,621
DA:1972,621
DA:1974,5
DA:1975,5
DA:1977,5
DA:1979,621
DA:2262,158976
DA:2273,158976
DA:2274,158976
DA:2275,158976
DA:3894,155194
DA:3902,155194
DA:3903,155194
DA:3894,0
DA:3902,0
DA:3903,0
DA:4849,621
DA:4859,621
DA:4860,621
LF:117
LH:53
end_of_record
SF:/usr/lib/gcc/x86_64-pc-msys/10.2.0/include/c++/bits/vector.tcc
FN:109,_ZNSt6vectorIdSaIdEE12emplace_backIJRdEEEvDpOT_
FNDA:6,_ZNSt6vectorIdSaIdEE12emplace_backIJRdEEEvDpOT_
FN:109,_ZNSt6vectorISt4pairISsSsESaIS1_EE12emplace_backIJS1_EEEvDpOT_
FNDA:0,_ZNSt6vectorISt4pairISsSsESaIS1_EE12emplace_backIJS1_EEEvDpOT_
FN:109,_ZNSt6vectorI8DataTypeSaIS0_EE12emplace_backIJRS0_EEEvDpOT_
FNDA:6,_ZNSt6vectorI8DataTypeSaIS0_EE12emplace_backIJRS0_EEEvDpOT_
FN:109,_ZNSt6vectorISt4pairIccESaIS1_EE12emplace_backIJS1_EEEvDpOT_
FNDA:6,_ZNSt6vectorISt4pairIccESaIS1_EE12emplace_backIJS1_EEEvDpOT_
FN:109,_ZNSt6vectorIS_IdSaIdEESaIS1_EE12emplace_backIJS1_EEEvDpOT_
FNDA:18,_ZNSt6vectorIS_IdSaIdEESaIS1_EE12emplace_backIJS1_EEEvDpOT_
FN:109,_ZNSt6vectorIcSaIcEE12emplace_backIJcEEEvDpOT_
FNDA:12,_ZNSt6vectorIcSaIcEE12emplace_backIJcEEEvDpOT_
FN:109,_ZNSt6vectorIiSaIiEE12emplace_backIJRiEEEvDpOT_
FNDA:0,_ZNSt6vectorIiSaIiEE12emplace_backIJRiEEEvDpOT_
FN:109,_ZNSt6vectorIdSaIdEE12emplace_backIJdEEEvDpOT_
FNDA:12030,_ZNSt6vectorIdSaIdEE12emplace_backIJdEEEvDpOT_
FN:109,_ZNSt6vectorIiSaIiEE12emplace_backIJmEEEvDpOT_
FNDA:3,_ZNSt6vectorIiSaIiEE12emplace_backIJmEEEvDpOT_
FN:109,_ZNSt6vectorISt4pairIlS_ISt9sub_matchIN9__gnu_cxx17__normal_iteratorIPKcSsEEESaIS7_EEESaISA_EE12emplace_backIJRlRKS9_EEEvDpOT_
FNDA:0,_ZNSt6vectorISt4pairIlS_ISt9sub_matchIN9__gnu_cxx17__normal_iteratorIPKcSsEEESaIS7_EEESaISA_EE12emplace_backIJRlRKS9_EEEvDpOT_
FN:109,_ZNSt6vectorINSt8__detail6_StateIcEESaIS2_EE12emplace_backIJS2_EEEvDpOT_
FNDA:4359,_ZNSt6vectorINSt8__detail6_StateIcEESaIS2_EE12emplace_backIJS2_EEEvDpOT_
FN:109,_ZNSt6vectorIiSaIiEE12emplace_backIJlEEEvDpOT_
FNDA:3,_ZNSt6vectorIiSaIiEE12emplace_backIJlEEEvDpOT_
FN:109,_ZNSt6vectorISsSaISsEE12emplace_backIJRSsEEEvDpOT_
FNDA:0,_ZNSt6vectorISsSaISsEE12emplace_backIJRSsEEEvDpOT_
FN:184,_ZNSt6vectorIcSaIcEE8_M_eraseEN9__gnu_cxx17__normal_iteratorIPcS1_EES5_
FNDA:621,_ZNSt6vectorIcSaIcEE8_M_eraseEN9__gnu_cxx17__normal_iteratorIPcS1_EES5_
FN:198,_ZNSt6vectorISsSaISsEEaSERKS1_
FNDA:1,_ZNSt6vectorISsSaISsEEaSERKS1_
FN:198,_ZNSt6vectorISt9sub_matchIN9__gnu_cxx17__normal_iteratorIPKcSsEEESaIS6_EEaSERKS8_
FNDA:23282,_ZNSt6vectorISt9sub_matchIN9__gnu_cxx17__normal_iteratorIPKcSsEEESaIS6_EEaSERKS8_
FN:257,_ZNSt6vectorISt9sub_matchIN9__gnu_cxx17__normal_iteratorIPKcSsEEESaIS6_EE14_M_fill_assignEmRKS6_
FNDA:3910,_ZNSt6vectorISt9sub_matchIN9__gnu_cxx17__normal_iteratorIPKcSsEEESaIS6_EE14_M_fill_assignEmRKS6_
FN:426,_ZNSt6vectorIdSaIdEE17_M_realloc_insertIJRdEEEvN9__gnu_cxx17__normal_iteratorIPdS1_EEDpOT_
FNDA:4,_ZNSt6vectorIdSaIdEE17_M_realloc_insertIJRdEEEvN9__gnu_cxx17__normal_iteratorIPdS1_EEDpOT_
FN:426,_ZNSt6vectorI8DataTypeSaIS0_EE17_M_realloc_insertIJRS0_EEEvN9__gnu_cxx17__normal_iteratorIPS0_S2_EEDpOT_
FNDA:4,_ZNSt6vectorI8DataTypeSaIS0_EE17_M_realloc_insertIJRS0_EEEvN9__gnu_cxx17__normal_iteratorIPS0_S2_EEDpOT_
FN:426,_ZNSt6vectorIS_IdSaIdEESaIS1_EE17_M_realloc_insertIJS1_EEEvN9__gnu_cxx17__normal_iteratorIPS1_S3_EEDpOT_
FNDA:16,_ZNSt6vectorIS_IdSaIdEESaIS1_EE17_M_realloc_insertIJS1_EEEvN9__gnu_cxx17__normal_iteratorIPS1_S3_EEDpOT_
FN:426,_ZNSt6vectorIiSaIiEE17_M_realloc_insertIJRiEEEvN9__gnu_cxx17__normal_iteratorIPiS1_EEDpOT_
FNDA:0,_ZNSt6vectorIiSaIiEE17_M_realloc_insertIJRiEEEvN9__gnu_cxx17__normal_iteratorIPiS1_EEDpOT_
FN:426,_ZNSt6vectorIdSaIdEE17_M_realloc_insertIJdEEEvN9__gnu_cxx17__normal_iteratorIPdS1_EEDpOT_
FNDA:12020,_ZNSt6vectorIdSaIdEE17_M_realloc_insertIJdEEEvN9__gnu_cxx17__normal_iteratorIPdS1_EEDpOT_
FN:426,_ZNSt6vectorIiSaIiEE17_M_realloc_insertIJmEEEvN9__gnu_cxx17__normal_iteratorIPiS1_EEDpOT_
FNDA:3,_ZNSt6vectorIiSaIiEE17_M_realloc_insertIJmEEEvN9__gnu_cxx17__normal_iteratorIPiS1_EEDpOT_
FN:426,_ZNSt6vectorISsSaISsEE17_M_realloc_insertIJRSsEEEvN9__gnu_cxx17__normal_iteratorIPSsS1_EEDpOT_
FNDA:0,_ZNSt6vectorISsSaISsEE17_M_realloc_insertIJRSsEEEvN9__gnu_cxx17__normal_iteratorIPSsS1_EEDpOT_
FN:426,_ZNSt6vectorIiSaIiEE17_M_realloc_insertIJlEEEvN9__gnu_cxx17__normal_iteratorIPiS1_EEDpOT_
FNDA:1,_ZNSt6vectorIiSaIiEE17_M_realloc_insertIJlEEEvN9__gnu_cxx17__normal_iteratorIPiS1_EEDpOT_
FN:426,_ZNSt6vectorISt4pairISsSsESaIS1_EE17_M_realloc_insertIJS1_EEEvN9__gnu_cxx17__normal_iteratorIPS1_S3_EEDpOT_
FNDA:0,_ZNSt6vectorISt4pairISsSsESaIS1_EE17_M_realloc_insertIJS1_EEEvN9__gnu_cxx17__normal_iteratorIPS1_S3_EEDpOT_
FN:426,_ZNSt6vectorImSaImEE17_M_realloc_insertIJRKmEEEvN9__gnu_cxx17__normal_iteratorIPmS1_EEDpOT_
FNDA:611,_ZNSt6vectorImSaImEE17_M_realloc_insertIJRKmEEEvN9__gnu_cxx17__normal_iteratorIPmS1_EEDpOT_
FN:426,_ZNSt6vectorINSt8__detail6_StateIcEESaIS2_EE17_M_realloc_insertIJS2_EEEvN9__gnu_cxx17__normal_iteratorIPS2_S4_EEDpOT_
FNDA:2449,_ZNSt6vectorINSt8__detail6_StateIcEESaIS2_EE17_M_realloc_insertIJS2_EEEvN9__gnu_cxx17__normal_iteratorIPS2_S4_EEDpOT_
FN:426,_ZNSt6vectorISt4pairIlS_ISt9sub_matchIN9__gnu_cxx17__normal_iteratorIPKcSsEEESaIS7_EEESaISA_EE17_M_realloc_insertIJRlRKS9_EEEvNS3_IPSA_SC_EEDpOT_
FNDA:0,_ZNSt6vectorISt4pairIlS_ISt9sub_matchIN9__gnu_cxx17__normal_iteratorIPKcSsEEESaIS7_EEESaISA_EE17_M_realloc_insertIJRlRKS9_EEEvNS3_IPSA_SC_EEDpOT_
FN:426,_ZNSt6vectorINSt12regex_traitsIcE10_RegexMaskESaIS2_EE17_M_realloc_insertIJRKS2_EEEvN9__gnu_cxx17__normal_iteratorIPS2_S4_EEDpOT_
FNDA:0,_ZNSt6vectorINSt12regex_traitsIcE10_RegexMaskESaIS2_EE17_M_realloc_insertIJRKS2_EEEvN9__gnu_cxx17__normal_iteratorIPS2_S4_EEDpOT_
FN:426,_ZNSt6vectorISsSaISsEE17_M_realloc_insertIJRKSsEEEvN9__gnu_cxx17__normal_iteratorIPSsS1_EEDpOT_
FNDA:0,_ZNSt6vectorISsSaISsEE17_M_realloc_insertIJRKSsEEEvN9__gnu_cxx17__normal_iteratorIPSsS1_EEDpOT_
FN:426,_ZNSt6vectorIcSaIcEE17_M_realloc_insertIJcEEEvN9__gnu_cxx17__normal_iteratorIPcS1_EEDpOT_
FNDA:12,_ZNSt6vectorIcSaIcEE17_M_realloc_insertIJcEEEvN9__gnu_cxx17__normal_iteratorIPcS1_EEDpOT_
FN:426,_ZNSt6vectorISt4pairIccESaIS1_EE17_M_realloc_insertIJS1_EEEvN9__gnu_cxx17__normal_iteratorIPS1_S3_EEDpOT_
FNDA:6,_ZNSt6vectorISt4pairIccESaIS1_EE17_M_realloc_insertIJS1_EEEvN9__gnu_cxx17__normal_iteratorIPS1_S3_EEDpOT_
FN:890,_ZNSt6vectorIbSaIbEE13_M_insert_auxESt13_Bit_iteratorb
FNDA:1,_ZNSt6vectorIbSaIbEE13_M_insert_auxESt13_Bit_iteratorb
FNF:34
FNH:24
DA:109,0
DA:112,0
DA:115,0
DA:117,0
DA:121,0
DA:125,0
DA:109,6
DA:112,6
DA:115,0
DA:117,0
DA:121,6
DA:125,6
DA:109,12
DA:112,12
DA:115,0
DA:117,0
DA:121,12
DA:125,12
DA:109,0
DA:112,0
DA:115,0
DA:117,0
DA:121,0
DA:125,0
DA:109,4359
DA:112,4359
DA:115,1910
DA:117,1910
DA:121,2449
DA:125,4359
DA:109,6
DA:112,6
DA:115,2
DA:117,2
DA:121,4
DA:125,6
DA:109,3
DA:112,3
DA:115,2
DA:117,2
DA:121,1
DA:125,3
DA:109,0
DA:112,0
DA:115,0
DA:117,0
DA:121,0
DA:125,0
DA:109,3
DA:112,3
DA:115,0
DA:117,0
DA:121,3
DA:125,3
DA:109,12030
DA:112,12030
DA:115,10
DA:117,10
DA:121,12020
DA:125,12030
DA:109,0
DA:112,0
DA:115,0
DA:117,0
DA:121,0
DA:125,0
DA:109,18
DA:112,18
DA:115,2
DA:117,2
DA:121,16
DA:125,18
DA:109,6
DA:112,6
DA:115,2
DA:117,2
DA:121,4
DA:125,6
DA:184,621
DA:187,621
DA:189,0
DA:190,0
DA:191,0
DA:193,621
DA:198,23282
DA:201,23282
DA:205,23282
DA:207,0
DA:208,0
DA:211,0
DA:212,0
DA:213,0
DA:214,0
DA:215,0
DA:216,0
DA:217,0
DA:219,0
DA:220,0
DA:223,23282
DA:224,23282
DA:226,2726
DA:228,2726
DA:229,2726
DA:230,2726
DA:231,2726
DA:232,2726
DA:233,2726
DA:234,2726
DA:236,20556
DA:238,20556
DA:239,20556
DA:243,0
DA:245,0
DA:246,0
DA:248,0
DA:250,23282
DA:252,23282
DA:198,1
DA:201,1
DA:205,1
DA:207,0
DA:208,0
DA:211,0
DA:212,0
DA:213,0
DA:214,0
DA:215,0
DA:216,0
DA:217,0
DA:219,0
DA:220,0
DA:223,1
DA:224,1
DA:226,1
DA:228,1
DA:229,1
DA:230,1
DA:231,1
DA:232,1
DA:233,1
DA:234,1
DA:236,0
DA:238,0
DA:239,0
DA:243,0
DA:245,0
DA:246,0
DA:248,0
DA:250,1
DA:252,1
DA:257,3910
DA:260,3910
DA:262,3040
DA:263,1520
DA:265,2390
DA:267,871
DA:268,871
DA:270,871
DA:271,871
DA:272,871
DA:276,1519
DA:277,3910
DA:426,0
DA:436,0
DA:437,0
DA:438,0
DA:439,0
DA:440,0
DA:441,0
DA:449,0
DA:450,0
DA:456,0
DA:459,0
DA:461,0
DA:462,0
DA:464,0
DA:466,0
DA:467,0
DA:474,0
DA:475,0
DA:477,0
DA:481,0
DA:482,0
DA:485,0
DA:487,0
DA:488,0
DA:489,0
DA:491,0
DA:492,0
DA:493,0
DA:496,0
DA:498,0
DA:500,0
DA:501,0
DA:502,0
DA:503,0
DA:504,0
DA:505,0
DA:426,6
DA:436,6
DA:437,6
DA:438,6
DA:439,6
DA:440,6
DA:441,6
DA:449,6
DA:450,6
DA:456,6
DA:459,6
DA:461,6
DA:462,6
DA:464,6
DA:466,6
DA:467,6
DA:474,0
DA:475,0
DA:477,0
DA:481,0
DA:482,0
DA:485,0
DA:487,0
DA:488,0
DA:489,0
DA:491,0
DA:492,0
DA:493,0
DA:496,6
DA:498,0
DA:500,6
DA:501,6
DA:502,6
DA:503,6
DA:504,6
DA:505,6
DA:426,12
DA:436,12
DA:437,12
DA:438,12
DA:439,12
DA:440,12
DA:441,12
DA:449,12
DA:456,12
DA:459,12
DA:461,12
DA:462,12
DA:464,12
DA:466,12
DA:467,12
DA:474,0
DA:475,0
DA:477,0
DA:481,0
DA:482,0
DA:485,0
DA:487,0
DA:488,0
DA:491,0
DA:492,0
DA:493,0
DA:496,12
DA:498,0
DA:500,12
DA:501,12
DA:502,12
DA:503,12
DA:504,12
DA:505,12
DA:426,0
DA:436,0
DA:437,0
DA:438,0
DA:439,0
DA:440,0
DA:441,0
DA:449,0
DA:450,0
DA:456,0
DA:459,0
DA:461,0
DA:462,0
DA:464,0
DA:466,0
DA:467,0
DA:474,0
DA:475,0
DA:477,0
DA:481,0
DA:482,0
DA:485,0
DA:487,0
DA:488,0
DA:489,0
DA:491,0
DA:492,0
DA:493,0
DA:496,0
DA:498,0
DA:500,0
DA:501,0
DA:502,0
DA:503,0
DA:504,0
DA:505,0
DA:426,0
DA:436,0
DA:437,0
DA:438,0
DA:439,0
DA:440,0
DA:441,0
DA:449,0
DA:450,0
DA:456,0
DA:459,0
DA:461,0
DA:462,0
DA:464,0
DA:466,0
DA:467,0
DA:474,0
DA:475,0
DA:477,0
DA:481,0
DA:482,0
DA:485,0
DA:487,0
DA:488,0
DA:489,0
DA:491,0
DA:492,0
DA:493,0
DA:496,0
DA:498,0
DA:500,0
DA:501,0
DA:502,0
DA:503,0
DA:504,0
DA:505,0
DA:426,0
DA:436,0
DA:437,0
DA:438,0
DA:439,0
DA:440,0
DA:441,0
DA:449,0
DA:450,0
DA:456,0
DA:459,0
DA:461,0
DA:462,0
DA:464,0
DA:466,0
DA:467,0
DA:474,0
DA:475,0
DA:477,0
DA:481,0
DA:482,0
DA:485,0
DA:487,0
DA:488,0
DA:489,0
DA:491,0
DA:492,0
DA:493,0
DA:496,0
DA:498,0
DA:500,0
DA:501,0
DA:502,0
DA:503,0
DA:504,0
DA:505,0
DA:426,2449
DA:436,2449
DA:437,2449
DA:438,2449
DA:439,2449
DA:440,2449
DA:441,2449
DA:449,2449
DA:450,2449
DA:456,2449
DA:459,2449
DA:461,0
DA:462,0
DA:464,0
DA:466,0
DA:467,0
DA:474,2449
DA:475,2449
DA:477,2449
DA:481,2449
DA:482,2449
DA:485,0
DA:487,0
DA:488,0
DA:489,0
DA:491,0
DA:492,0
DA:493,0
DA:496,2449
DA:498,2449
DA:500,2449
DA:501,2449
DA:502,2449
DA:503,2449
DA:504,2449
DA:505,2449
DA:426,611
DA:436,611
DA:437,611
DA:438,611
DA:439,611
DA:440,611
DA:441,611
DA:449,611
DA:450,611
DA:456,611
DA:459,611
DA:461,611
DA:462,611
DA:464,611
DA:466,611
DA:467,611
DA:474,0
DA:475,0
DA:477,0
DA:481,0
DA:482,0
DA:485,0
DA:487,0
DA:488,0
DA:489,0
DA:491,0
DA:492,0
DA:493,0
DA:496,611
DA:498,0
DA:500,611
DA:501,611
DA:502,611
DA:503,611
DA:504,611
DA:505,611
DA:426,4
DA:436,4
DA:437,4
DA:438,4
DA:439,4
DA:440,4
DA:441,4
DA:449,4
DA:450,4
DA:456,4
DA:459,4
DA:461,4
DA:462,4
DA:464,4
DA:466,4
DA:467,4
DA:474,0
DA:475,0
DA:477,0
DA:481,0
DA:482,0
DA:485,0
DA:487,0
DA:488,0
DA:489,0
DA:491,0
DA:492,0
DA:493,0
DA:496,4
DA:498,0
DA:500,4
DA:501,4
DA:502,4
DA:503,4
DA:504,4
DA:505,4
DA:426,1
DA:436,1
DA:437,1
DA:438,1
DA:439,1
DA:440,1
DA:441,1
DA:449,1
DA:450,1
DA:456,1
DA:459,1
DA:461,1
DA:462,1
DA:464,1
DA:466,1
DA:467,1
DA:474,0
DA:475,0
DA:477,0
DA:481,0
DA:482,0
DA:485,0
DA:487,0
DA:488,0
DA:489,0
DA:491,0
DA:492,0
DA:493,0
DA:496,1
DA:498,0
DA:500,1
DA:501,1
DA:502,1
DA:503,1
DA:504,1
DA:505,1
DA:426,0
DA:436,0
DA:437,0
DA:438,0
DA:439,0
DA:440,0
DA:441,0
DA:449,0
DA:450,0
DA:456,0
DA:459,0
DA:461,0
DA:462,0
DA:464,0
DA:466,0
DA:467,0
DA:474,0
DA:475,0
DA:477,0
DA:481,0
DA:482,0
DA:485,0
DA:487,0
DA:488,0
DA:489,0
DA:491,0
DA:492,0
DA:493,0
DA:496,0
DA:498,0
DA:500,0
DA:501,0
DA:502,0
DA:503,0
DA:504,0
DA:505,0
DA:426,3
DA:436,3
DA:437,3
DA:438,3
DA:439,3
DA:440,3
DA:441,3
DA:449,3
DA:450,3
DA:456,3
DA:459,3
DA:461,3
DA:462,3
DA:464,3
DA:466,3
DA:467,3
DA:474,0
DA:475,0
DA:477,0
DA:481,0
DA:482,0
DA:485,0
DA:487,0
DA:488,0
DA:489,0
DA:491,0
DA:492,0
DA:493,0
DA:496,3
DA:498,0
DA:500,3
DA:501,3
DA:502,3
DA:503,3
DA:504,3
DA:505,3
DA:426,12020
DA:436,12020
DA:437,12020
DA:438,12020
DA:439,12020
DA:440,12020
DA:441,12020
DA:449,12020
DA:450,12020
DA:456,12020
DA:459,12020
DA:461,12020
DA:462,12020
DA:464,12020
DA:466,12020
DA:467,12020
DA:474,0
DA:475,0
DA:477,0
DA:481,0
DA:482,0
DA:485,0
DA:487,0
DA:488,0
DA:489,0
DA:491,0
DA:492,0
DA:493,0
DA:496,12020
DA:498,0
DA:500,12020
DA:501,12020
DA:502,12020
DA:503,12020
DA:504,12020
DA:505,12020
DA:426,0
DA:436,0
DA:437,0
DA:438,0
DA:439,0
DA:440,0
DA:441,0
DA:449,0
DA:450,0
DA:456,0
DA:459,0
DA:461,0
DA:462,0
DA:464,0
DA:466,0
DA:467,0
DA:474,0
DA:475,0
DA:477,0
DA:481,0
DA:482,0
DA:485,0
DA:487,0
DA:488,0
DA:489,0
DA:491,0
DA:492,0
DA:493,0
DA:496,0
DA:498,0
DA:500,0
DA:501,0
DA:502,0
DA:503,0
DA:504,0
DA:505,0
DA:426,16
DA:436,16
DA:437,16
DA:438,16
DA:439,16
DA:440,16
DA:441,16
DA:449,16
DA:450,16
DA:456,16
DA:459,16
DA:461,16
DA:462,16
DA:464,16
DA:466,16
DA:467,16
DA:474,0
DA:475,0
DA:477,0
DA:481,0
DA:482,0
DA:485,0
DA:487,0
DA:488,0
DA:489,0
DA:491,0
DA:492,0
DA:493,0
DA:496,16
DA:498,0
DA:500,16
DA:501,16
DA:502,16
DA:503,16
DA:504,16
DA:505,16
DA:426,4
DA:436,4
DA:437,4
DA:438,4
DA:439,4
DA:440,4
DA:441,4
DA:449,4
DA:450,4
DA:456,4
DA:459,4
DA:461,4
DA:462,4
DA:464,4
DA:466,4
DA:467,4
DA:474,0
DA:475,0
DA:477,0
DA:481,0
DA:482,0
DA:485,0
DA:487,0
DA:488,0
DA:489,0
DA:491,0
DA:492,0
DA:493,0
DA:496,4
DA:498,0
DA:500,4
DA:501,4
DA:502,4
DA:503,4
DA:504,4
DA:505,4
DA:890,1
DA:893,1
DA:895,0
DA:896,0
DA:897,0
DA:898,0
DA:903,1
DA:904,1
DA:905,1
DA:906,1
DA:907,1
DA:908,1
DA:909,1
DA:910,1
DA:911,1
DA:912,1
DA:914,1
LF:753
LH:339
end_of_record
SF:/usr/lib/gcc/x86_64-pc-msys/10.2.0/include/c++/bits/stl_deque.h
FN:96,_ZSt16__deque_buf_sizem
FNDA:3690,_ZSt16__deque_buf_sizem
FN:131,_ZNSt15_Deque_iteratorIlRlPlE14_S_buffer_sizeEv
FNDA:12,_ZNSt15_Deque_iteratorIlRlPlE14_S_buffer_sizeEv
FN:131,_ZNSt15_Deque_iteratorINSt8__detail9_StateSeqISt12regex_traitsIcEEERS4_PS4_E14_S_buffer_sizeEv
FNDA:1218,_ZNSt15_Deque_iteratorINSt8__detail9_StateSeqISt12regex_traitsIcEEERS4_PS4_E14_S_buffer_sizeEv
FN:151,_ZNSt15_Deque_iteratorIlRlPlEC1Ev
FNDA:12,_ZNSt15_Deque_iteratorIlRlPlEC1Ev
FN:151,_ZNSt15_Deque_iteratorINSt8__detail9_StateSeqISt12regex_traitsIcEEERS4_PS4_EC1Ev
FNDA:1218,_ZNSt15_Deque_iteratorINSt8__detail9_StateSeqISt12regex_traitsIcEEERS4_PS4_EC1Ev
FN:168,_ZNSt15_Deque_iteratorINSt8__detail9_StateSeqISt12regex_traitsIcEEERS4_PS4_EC1ERKS7_
FNDA:4980,_ZNSt15_Deque_iteratorINSt8__detail9_StateSeqISt12regex_traitsIcEEERS4_PS4_EC1ERKS7_
FN:168,_ZNSt15_Deque_iteratorIlRlPlEC1ERKS2_
FNDA:16,_ZNSt15_Deque_iteratorIlRlPlEC1ERKS2_
FN:180,_ZNKSt15_Deque_iteratorINSt8__detail9_StateSeqISt12regex_traitsIcEEERS4_PS4_EdeEv
FNDA:3762,_ZNKSt15_Deque_iteratorINSt8__detail9_StateSeqISt12regex_traitsIcEEERS4_PS4_EdeEv
FN:180,_ZNKSt15_Deque_iteratorIlRlPlEdeEv
FNDA:4,_ZNKSt15_Deque_iteratorIlRlPlEdeEv
FN:208,_ZNSt15_Deque_iteratorINSt8__detail9_StateSeqISt12regex_traitsIcEEERS4_PS4_EmmEv
FNDA:3762,_ZNSt15_Deque_iteratorINSt8__detail9_StateSeqISt12regex_traitsIcEEERS4_PS4_EmmEv
FN:208,_ZNSt15_Deque_iteratorIlRlPlEmmEv
FNDA:4,_ZNSt15_Deque_iteratorIlRlPlEmmEv
FN:260,_ZNSt15_Deque_iteratorINSt8__detail9_StateSeqISt12regex_traitsIcEEERS4_PS4_E11_M_set_nodeEPS6_
FNDA:1218,_ZNSt15_Deque_iteratorINSt8__detail9_StateSeqISt12regex_traitsIcEEERS4_PS4_E11_M_set_nodeEPS6_
FN:260,_ZNSt15_Deque_iteratorIlRlPlE11_M_set_nodeEPS1_
FNDA:12,_ZNSt15_Deque_iteratorIlRlPlE11_M_set_nodeEPS1_
FN:268,_ZSteqRKSt15_Deque_iteratorINSt8__detail9_StateSeqISt12regex_traitsIcEEERS4_PS4_ES9_
FNDA:631,_ZSteqRKSt15_Deque_iteratorINSt8__detail9_StateSeqISt12regex_traitsIcEEERS4_PS4_ES9_
FN:268,_ZSteqRKSt15_Deque_iteratorIlRlPlES4_
FNDA:10,_ZSteqRKSt15_Deque_iteratorIlRlPlES4_
FN:353,_ZStmiRKSt15_Deque_iteratorIlRlPlES4_
FNDA:0,_ZStmiRKSt15_Deque_iteratorIlRlPlES4_
FN:353,_ZStmiRKSt15_Deque_iteratorINSt8__detail9_StateSeqISt12regex_traitsIcEEERS4_PS4_ES9_
FNDA:0,_ZStmiRKSt15_Deque_iteratorINSt8__detail9_StateSeqISt12regex_traitsIcEEERS4_PS4_ES9_
FN:434,_ZNSt11_Deque_baseIlSaIlEEC2Ev
FNDA:6,_ZNSt11_Deque_baseIlSaIlEEC2Ev
FN:434,_ZNSt11_Deque_baseINSt8__detail9_StateSeqISt12regex_traitsIcEEESaIS4_EEC2Ev
FNDA:609,_ZNSt11_Deque_baseINSt8__detail9_StateSeqISt12regex_traitsIcEEESaIS4_EEC2Ev
FN:492,_ZNSt11_Deque_baseIlSaIlEE16_Deque_impl_dataC2Ev
FNDA:6,_ZNSt11_Deque_baseIlSaIlEE16_Deque_impl_dataC2Ev
FN:492,_ZNSt11_Deque_baseINSt8__detail9_StateSeqISt12regex_traitsIcEEESaIS4_EE16_Deque_impl_dataC2Ev
FNDA:609,_ZNSt11_Deque_baseINSt8__detail9_StateSeqISt12regex_traitsIcEEESaIS4_EE16_Deque_impl_dataC2Ev
FN:521,_ZNSt11_Deque_baseINSt8__detail9_StateSeqISt12regex_traitsIcEEESaIS4_EE11_Deque_implC1Ev
FNDA:609,_ZNSt11_Deque_baseINSt8__detail9_StateSeqISt12regex_traitsIcEEESaIS4_EE11_Deque_implC1Ev
FN:521,_ZNSt11_Deque_baseIlSaIlEE11_Deque_implC1Ev
FNDA:6,_ZNSt11_Deque_baseIlSaIlEE11_Deque_implC1Ev
FN:544,_ZNSt11_Deque_baseIlSaIlEE19_M_get_Tp_allocatorEv
FNDA:10,_ZNSt11_Deque_baseIlSaIlEE19_M_get_Tp_allocatorEv
FN:544,_ZNSt11_Deque_baseINSt8__detail9_StateSeqISt12regex_traitsIcEEESaIS4_EE19_M_get_Tp_allocatorEv
FNDA:4371,_ZNSt11_Deque_baseINSt8__detail9_StateSeqISt12regex_traitsIcEEESaIS4_EE19_M_get_Tp_allocatorEv
FN:548,_ZNKSt11_Deque_baseINSt8__detail9_StateSeqISt12regex_traitsIcEEESaIS4_EE19_M_get_Tp_allocatorEv
FNDA:1218,_ZNKSt11_Deque_baseINSt8__detail9_StateSeqISt12regex_traitsIcEEESaIS4_EE19_M_get_Tp_allocatorEv
FN:548,_ZNKSt11_Deque_baseIlSaIlEE19_M_get_Tp_allocatorEv
FNDA:12,_ZNKSt11_Deque_baseIlSaIlEE19_M_get_Tp_allocatorEv
FN:552,_ZNKSt11_Deque_baseINSt8__detail9_StateSeqISt12regex_traitsIcEEESaIS4_EE20_M_get_map_allocatorEv
FNDA:1218,_ZNKSt11_Deque_baseINSt8__detail9_StateSeqISt12regex_traitsIcEEESaIS4_EE20_M_get_map_allocatorEv
FN:552,_ZNKSt11_Deque_baseIlSaIlEE20_M_get_map_allocatorEv
FNDA:12,_ZNKSt11_Deque_baseIlSaIlEE20_M_get_map_allocatorEv
FN:556,_ZNSt11_Deque_baseINSt8__detail9_StateSeqISt12regex_traitsIcEEESaIS4_EE16_M_allocate_nodeEv
FNDA:609,_ZNSt11_Deque_baseINSt8__detail9_StateSeqISt12regex_traitsIcEEESaIS4_EE16_M_allocate_nodeEv
FN:556,_ZNSt11_Deque_baseIlSaIlEE16_M_allocate_nodeEv
FNDA:6,_ZNSt11_Deque_baseIlSaIlEE16_M_allocate_nodeEv
FN:563,_ZNSt11_Deque_baseINSt8__detail9_StateSeqISt12regex_traitsIcEEESaIS4_EE18_M_deallocate_nodeEPS4_
FNDA:609,_ZNSt11_Deque_baseINSt8__detail9_StateSeqISt12regex_traitsIcEEESaIS4_EE18_M_deallocate_nodeEPS4_
FN:563,_ZNSt11_Deque_baseIlSaIlEE18_M_deallocate_nodeEPl
FNDA:6,_ZNSt11_Deque_baseIlSaIlEE18_M_deallocate_nodeEPl
FN:570,_ZNSt11_Deque_baseIlSaIlEE15_M_allocate_mapEm
FNDA:6,_ZNSt11_Deque_baseIlSaIlEE15_M_allocate_mapEm
FN:570,_ZNSt11_Deque_baseINSt8__detail9_StateSeqISt12regex_traitsIcEEESaIS4_EE15_M_allocate_mapEm
FNDA:609,_ZNSt11_Deque_baseINSt8__detail9_StateSeqISt12regex_traitsIcEEESaIS4_EE15_M_allocate_mapEm
FN:577,_ZNSt11_Deque_baseINSt8__detail9_StateSeqISt12regex_traitsIcEEESaIS4_EE17_M_deallocate_mapEPPS4_m
FNDA:609,_ZNSt11_Deque_baseINSt8__detail9_StateSeqISt12regex_traitsIcEEESaIS4_EE17_M_deallocate_mapEPPS4_m
FN:577,_ZNSt11_Deque_baseIlSaIlEE17_M_deallocate_mapEPPlm
FNDA:6,_ZNSt11_Deque_baseIlSaIlEE17_M_deallocate_mapEPPlm
FN:593,_ZNSt11_Deque_baseINSt8__detail9_StateSeqISt12regex_traitsIcEEESaIS4_EED2Ev
FNDA:609,_ZNSt11_Deque_baseINSt8__detail9_StateSeqISt12regex_traitsIcEEESaIS4_EED2Ev
FN:593,_ZNSt11_Deque_baseIlSaIlEED2Ev
FNDA:6,_ZNSt11_Deque_baseIlSaIlEED2Ev
FN:614,_ZNSt11_Deque_baseIlSaIlEE17_M_initialize_mapEm
FNDA:6,_ZNSt11_Deque_baseIlSaIlEE17_M_initialize_mapEm
FN:614,_ZNSt11_Deque_baseINSt8__detail9_StateSeqISt12regex_traitsIcEEESaIS4_EE17_M_initialize_mapEm
FNDA:609,_ZNSt11_Deque_baseINSt8__detail9_StateSeqISt12regex_traitsIcEEESaIS4_EE17_M_initialize_mapEm
FN:653,_ZNSt11_Deque_baseIlSaIlEE15_M_create_nodesEPPlS3_
FNDA:6,_ZNSt11_Deque_baseIlSaIlEE15_M_create_nodesEPPlS3_
FN:653,_ZNSt11_Deque_baseINSt8__detail9_StateSeqISt12regex_traitsIcEEESaIS4_EE15_M_create_nodesEPPS4_S8_
FNDA:609,_ZNSt11_Deque_baseINSt8__detail9_StateSeqISt12regex_traitsIcEEESaIS4_EE15_M_create_nodesEPPS4_S8_
FN:671,_ZNSt11_Deque_baseIlSaIlEE16_M_destroy_nodesEPPlS3_
FNDA:6,_ZNSt11_Deque_baseIlSaIlEE16_M_destroy_nodesEPPlS3_
FN:671,_ZNSt11_Deque_baseINSt8__detail9_StateSeqISt12regex_traitsIcEEESaIS4_EE16_M_destroy_nodesEPPS4_S8_
FNDA:609,_ZNSt11_Deque_baseINSt8__detail9_StateSeqISt12regex_traitsIcEEESaIS4_EE16_M_destroy_nodesEPPS4_S8_
FN:831,_ZNSt5dequeIlSaIlEEC1Ev
FNDA:6,_ZNSt5dequeIlSaIlEEC1Ev
FN:831,_ZNSt5dequeINSt8__detail9_StateSeqISt12regex_traitsIcEEESaIS4_EEC1Ev
FNDA:609,_ZNSt5dequeINSt8__detail9_StateSeqISt12regex_traitsIcEEESaIS4_EEC1Ev
FN:1003,_ZNSt5dequeINSt8__detail9_StateSeqISt12regex_traitsIcEEESaIS4_EED1Ev
FNDA:609,_ZNSt5dequeINSt8__detail9_StateSeqISt12regex_traitsIcEEESaIS4_EED1Ev
FN:1003,_ZNSt5dequeIlSaIlEED1Ev
FNDA:6,_ZNSt5dequeIlSaIlEED1Ev
FN:1125,_ZNSt5dequeINSt8__detail9_StateSeqISt12regex_traitsIcEEESaIS4_EE5beginEv
FNDA:609,_ZNSt5dequeINSt8__detail9_StateSeqISt12regex_traitsIcEEESaIS4_EE5beginEv
FN:1125,_ZNSt5dequeIlSaIlEE5beginEv
FNDA:6,_ZNSt5dequeIlSaIlEE5beginEv
FN:1142,_ZNSt5dequeINSt8__detail9_StateSeqISt12regex_traitsIcEEESaIS4_EE3endEv
FNDA:4371,_ZNSt5dequeINSt8__detail9_StateSeqISt12regex_traitsIcEEESaIS4_EE3endEv
FN:1142,_ZNSt5dequeIlSaIlEE3endEv
FNDA:10,_ZNSt5dequeIlSaIlEE3endEv
FN:1230,_ZNKSt5dequeIlSaIlEE4sizeEv
FNDA:0,_ZNKSt5dequeIlSaIlEE4sizeEv
FN:1230,_ZNKSt5dequeINSt8__detail9_StateSeqISt12regex_traitsIcEEESaIS4_EE4sizeEv
FNDA:0,_ZNKSt5dequeINSt8__detail9_StateSeqISt12regex_traitsIcEEESaIS4_EE4sizeEv
FN:1235,_ZNKSt5dequeINSt8__detail9_StateSeqISt12regex_traitsIcEEESaIS4_EE8max_sizeEv
FNDA:0,_ZNKSt5dequeINSt8__detail9_StateSeqISt12regex_traitsIcEEESaIS4_EE8max_sizeEv
FN:1235,_ZNKSt5dequeIlSaIlEE8max_sizeEv
FNDA:0,_ZNKSt5dequeIlSaIlEE8max_sizeEv
FN:1308,_ZNKSt5dequeIlSaIlEE5emptyEv
FNDA:10,_ZNKSt5dequeIlSaIlEE5emptyEv
FN:1308,_ZNKSt5dequeINSt8__detail9_StateSeqISt12regex_traitsIcEEESaIS4_EE5emptyEv
FNDA:631,_ZNKSt5dequeINSt8__detail9_StateSeqISt12regex_traitsIcEEESaIS4_EE5emptyEv
FN:1424,_ZNSt5dequeINSt8__detail9_StateSeqISt12regex_traitsIcEEESaIS4_EE4backEv
FNDA:3762,_ZNSt5dequeINSt8__detail9_StateSeqISt12regex_traitsIcEEESaIS4_EE4backEv
FN:1424,_ZNSt5dequeIlSaIlEE4backEv
FNDA:4,_ZNSt5dequeIlSaIlEE4backEv
FN:1493,_ZNSt5dequeIlSaIlEE9push_backERKl
FNDA:4,_ZNSt5dequeIlSaIlEE9push_backERKl
FN:1493,_ZNSt5dequeINSt8__detail9_StateSeqISt12regex_traitsIcEEESaIS4_EE9push_backERKS4_
FNDA:1889,_ZNSt5dequeINSt8__detail9_StateSeqISt12regex_traitsIcEEESaIS4_EE9push_backERKS4_
FN:1508,_ZNSt5dequeINSt8__detail9_StateSeqISt12regex_traitsIcEEESaIS4_EE9push_backEOS4_
FNDA:1873,_ZNSt5dequeINSt8__detail9_StateSeqISt12regex_traitsIcEEESaIS4_EE9push_backEOS4_
FN:1552,_ZNSt5dequeINSt8__detail9_StateSeqISt12regex_traitsIcEEESaIS4_EE8pop_backEv
FNDA:3762,_ZNSt5dequeINSt8__detail9_StateSeqISt12regex_traitsIcEEESaIS4_EE8pop_backEv
FN:1552,_ZNSt5dequeIlSaIlEE8pop_backEv
FNDA:4,_ZNSt5dequeIlSaIlEE8pop_backEv
FN:1831,_ZNSt5dequeIlSaIlEE11_S_max_sizeERKS0_
FNDA:0,_ZNSt5dequeIlSaIlEE11_S_max_sizeERKS0_
FN:1831,_ZNSt5dequeINSt8__detail9_StateSeqISt12regex_traitsIcEEESaIS4_EE11_S_max_sizeERKS5_
FNDA:0,_ZNSt5dequeINSt8__detail9_StateSeqISt12regex_traitsIcEEESaIS4_EE11_S_max_sizeERKS5_
FN:2042,_ZNSt5dequeINSt8__detail9_StateSeqISt12regex_traitsIcEEESaIS4_EE15_M_destroy_dataESt15_Deque_iteratorIS4_RS4_PS4_ESA_RKS5_
FNDA:609,_ZNSt5dequeINSt8__detail9_StateSeqISt12regex_traitsIcEEESaIS4_EE15_M_destroy_dataESt15_Deque_iteratorIS4_RS4_PS4_ESA_RKS5_
FN:2042,_ZNSt5dequeIlSaIlEE15_M_destroy_dataESt15_Deque_iteratorIlRlPlES5_RKS0_
FNDA:6,_ZNSt5dequeIlSaIlEE15_M_destroy_dataESt15_Deque_iteratorIlRlPlES5_RKS0_
FN:2123,_ZNSt5dequeIlSaIlEE22_M_reserve_map_at_backEm
FNDA:0,_ZNSt5dequeIlSaIlEE22_M_reserve_map_at_backEm
FN:2123,_ZNSt5dequeINSt8__detail9_StateSeqISt12regex_traitsIcEEESaIS4_EE22_M_reserve_map_at_backEm
FNDA:0,_ZNSt5dequeINSt8__detail9_StateSeqISt12regex_traitsIcEEESaIS4_EE22_M_reserve_map_at_backEm
FNF:72
FNH:62
DA:96,3690
DA:98,3690
DA:131,12
DA:132,12
DA:131,1218
DA:132,1218
DA:151,12
DA:152,12
DA:151,1218
DA:152,1218
DA:168,16
DA:169,16
DA:170,16
DA:168,4980
DA:169,4980
DA:170,4980
DA:180,4
DA:181,4
DA:180,3762
DA:181,3762
DA:208,4
DA:210,4
DA:212,0
DA:213,0
DA:215,4
DA:216,4
DA:208,3762
DA:210,3762
DA:212,0
DA:213,0
DA:215,3762
DA:216,3762
DA:260,12
DA:262,12
DA:263,12
DA:264,12
DA:265,12
DA:260,1218
DA:262,1218
DA:263,1218
DA:264,1218
DA:265,1218
DA:268,10
DA:269,10
DA:268,631
DA:269,631
DA:353,0
DA:355,0
DA:356,0
DA:357,0
DA:353,0
DA:355,0
DA:356,0
DA:357,0
DA:434,6
DA:435,6
DA:436,6
DA:434,609
DA:435,609
DA:436,609
DA:492,6
DA:493,6
DA:494,6
DA:492,609
DA:493,609
DA:494,609
DA:521,6
DA:523,6
DA:524,6
DA:521,609
DA:523,609
DA:524,609
DA:544,10
DA:545,10
DA:544,4371
DA:545,4371
DA:548,12
DA:549,12
DA:548,1218
DA:549,1218
DA:552,12
DA:553,12
DA:552,1218
DA:553,1218
DA:556,6
DA:559,6
DA:556,609
DA:559,609
DA:563,6
DA:566,6
DA:567,6
DA:563,609
DA:566,609
DA:567,609
DA:570,6
DA:572,12
DA:573,12
DA:570,609
DA:572,1218
DA:573,1218
DA:577,6
DA:579,12
DA:580,6
DA:581,6
DA:577,609
DA:579,1218
DA:580,609
DA:581,609
DA:593,6
DA:596,6
DA:598,6
DA:599,6
DA:600,6
DA:602,6
DA:593,609
DA:596,609
DA:598,609
DA:599,609
DA:600,609
DA:602,609
DA:614,6
DA:617,6
DA:620,12
DA:621,6
DA:622,6
DA:629,6
DA:630,6
DA:631,6
DA:634,6
DA:635,0
DA:637,0
DA:638,0
DA:639,0
DA:640,0
DA:643,6
DA:644,6
DA:645,6
DA:646,12
DA:647,6
DA:648,6
DA:649,6
DA:614,609
DA:617,609
DA:620,1218
DA:621,609
DA:622,609
DA:629,609
DA:630,609
DA:631,609
DA:634,609
DA:635,0
DA:637,0
DA:638,0
DA:639,0
DA:640,0
DA:643,609
DA:644,609
DA:645,609
DA:646,1218
DA:647,609
DA:648,609
DA:649,609
DA:653,6
DA:659,12
DA:660,6
DA:662,0
DA:664,0
DA:665,0
DA:667,6
DA:653,609
DA:659,1218
DA:660,609
DA:662,0
DA:664,0
DA:665,0
DA:667,609
DA:671,6
DA:675,12
DA:676,6
DA:677,6
DA:671,609
DA:675,1218
DA:676,609
DA:677,609
DA:831,6
DA:831,609
DA:1003,6
DA:1004,6
DA:1003,609
DA:1004,609
DA:1125,6
DA:1126,6
DA:1125,609
DA:1126,609
DA:1142,10
DA:1143,10
DA:1142,4371
DA:1143,4371
DA:1230,0
DA:1231,0
DA:1230,0
DA:1231,0
DA:1235,0
DA:1236,0
DA:1235,0
DA:1236,0
DA:1308,10
DA:1309,10
DA:1308,631
DA:1309,631
DA:1424,4
DA:1427,4
DA:1428,4
DA:1429,4
DA:1424,3762
DA:1427,3762
DA:1428,3762
DA:1429,3762
DA:1493,4
DA:1495,4
DA:1496,4
DA:1498,4
DA:1500,4
DA:1503,0
DA:1504,4
DA:1493,1889
DA:1495,1889
DA:1496,1889
DA:1498,1889
DA:1500,1889
DA:1503,0
DA:1504,1889
DA:1508,1873
DA:1509,1873
DA:1552,4
DA:1555,4
DA:1556,4
DA:1558,4
DA:1559,4
DA:1563,0
DA:1564,4
DA:1552,3762
DA:1555,3762
DA:1556,3762
DA:1558,3762
DA:1559,3762
DA:1563,0
DA:1564,3762
DA:1831,0
DA:1833,0
DA:1834,0
DA:1835,0
DA:1831,0
DA:1833,0
DA:1834,0
DA:1835,0
DA:2042,6
DA:2047,6
DA:2042,609
DA:2047,609
DA:2123,0
DA:2125,0
DA:2126,0
DA:2127,0
DA:2128,0
DA:2123,0
DA:2125,0
DA:2126,0
DA:2127,0
DA:2128,0
LF:270
LH:212
end_of_record
SF:/usr/lib/gcc/x86_64-pc-msys/10.2.0/include/c++/ext/atomicity.h
DA:50,1210
DA:68,0
DA:69,0
DA:70,0
DA:83,1210
DA:84,1210
DA:86,0
LF:7
LH:3
end_of_record
SF:/usr/lib/gcc/x86_64-pc-msys/10.2.0/include/c++/ext/string_conversions.h
FN:54,_ZN9__gnu_cxx6__stoaIddcJEEET0_PFT_PKT1_PPS3_DpT2_EPKcS5_PmS9_
FNDA:6,_ZN9__gnu_cxx6__stoaIddcJEEET0_PFT_PKT1_PPS3_DpT2_EPKcS5_PmS9_
FN:54,_ZN9__gnu_cxx6__stoaIlicJiEEET0_PFT_PKT1_PPS3_DpT2_EPKcS5_PmS9_
FNDA:12,_ZN9__gnu_cxx6__stoaIlicJiEEET0_PFT_PKT1_PPS3_DpT2_EPKcS5_PmS9_
FN:63,_ZZN9__gnu_cxx6__stoaIddcJEEET0_PFT_PKT1_PPS3_DpT2_EPKcS5_PmS9_EN11_Save_errnoC1Ev
FNDA:6,_ZZN9__gnu_cxx6__stoaIddcJEEET0_PFT_PKT1_PPS3_DpT2_EPKcS5_PmS9_EN11_Save_errnoC1Ev
FN:63,_ZZN9__gnu_cxx6__stoaIlicJiEEET0_PFT_PKT1_PPS3_DpT2_EPKcS5_PmS9_EN11_Save_errnoC1Ev
FNDA:12,_ZZN9__gnu_cxx6__stoaIlicJiEEET0_PFT_PKT1_PPS3_DpT2_EPKcS5_PmS9_EN11_Save_errnoC1Ev
FN:64,_ZZN9__gnu_cxx6__stoaIddcJEEET0_PFT_PKT1_PPS3_DpT2_EPKcS5_PmS9_EN11_Save_errnoD1Ev
FNDA:6,_ZZN9__gnu_cxx6__stoaIddcJEEET0_PFT_PKT1_PPS3_DpT2_EPKcS5_PmS9_EN11_Save_errnoD1Ev
FN:64,_ZZN9__gnu_cxx6__stoaIlicJiEEET0_PFT_PKT1_PPS3_DpT2_EPKcS5_PmS9_EN11_Save_errnoD1Ev
FNDA:12,_ZZN9__gnu_cxx6__stoaIlicJiEEET0_PFT_PKT1_PPS3_DpT2_EPKcS5_PmS9_EN11_Save_errnoD1Ev
FN:70,_ZZN9__gnu_cxx6__stoaIddcJEEET0_PFT_PKT1_PPS3_DpT2_EPKcS5_PmS9_EN10_Range_chk6_S_chkEdSt17integral_constantIbLb0EE
FNDA:6,_ZZN9__gnu_cxx6__stoaIddcJEEET0_PFT_PKT1_PPS3_DpT2_EPKcS5_PmS9_EN10_Range_chk6_S_chkEdSt17integral_constantIbLb0EE
FN:73,_ZZN9__gnu_cxx6__stoaIlicJiEEET0_PFT_PKT1_PPS3_DpT2_EPKcS5_PmS9_EN10_Range_chk6_S_chkElSt17integral_constantIbLb1EE
FNDA:12,_ZZN9__gnu_cxx6__stoaIlicJiEEET0_PFT_PKT1_PPS3_DpT2_EPKcS5_PmS9_EN10_Range_chk6_S_chkElSt17integral_constantIbLb1EE
FNF:8
FNH:8
DA:54,6
DA:66,6
DA:80,6
DA:82,6
DA:83,0
DA:84,6
DA:85,6
DA:86,0
DA:88,6
DA:90,6
DA:91,0
DA:93,12
DA:54,12
DA:66,12
DA:80,12
DA:82,12
DA:83,0
DA:84,12
DA:85,12
DA:86,0
DA:88,12
DA:90,12
DA:91,0
DA:93,24
DA:63,6
DA:63,12
DA:64,6
DA:64,12
DA:70,6
DA:73,12
DA:76,12
LF:31
LH:25
end_of_record
SF:/usr/lib/gcc/x86_64-pc-msys/10.2.0/include/c++/bits/char_traits.h
FN:337,_ZNSt11char_traitsIcE7compareEPKcS2_m
FNDA:0,_ZNSt11char_traitsIcE7compareEPKcS2_m
FN:351,_ZNSt11char_traitsIcE6lengthEPKc
FNDA:0,_ZNSt11char_traitsIcE6lengthEPKc
FNF:2
FNH:0
DA:337,0
DA:339,0
DA:340,0
DA:347,0
DA:351,0
DA:357,0
LF:6
LH:0
end_of_record
SF:/usr/lib/gcc/x86_64-pc-msys/10.2.0/include/c++/bits/stl_pair.h
FN:232,_ZNSt4pairIN9__gnu_cxx17__normal_iteratorIPKcSsEES4_EC2IS4_S4_Lb1EEEv
FNDA:2726,_ZNSt4pairIN9__gnu_cxx17__normal_iteratorIPKcSsEES4_EC2IS4_S4_Lb1EEEv
FN:232,_ZNSt4pairIN9__gnu_cxx17__normal_iteratorIPKcSsEEiEC1IS4_iLb1EEEv
FNDA:44162,_ZNSt4pairIN9__gnu_cxx17__normal_iteratorIPKcSsEEiEC1IS4_iLb1EEEv
FN:314,_ZNSt4pairISsSsEC1ERKS0_
FNDA:0,_ZNSt4pairISsSsEC1ERKS0_
FN:315,_ZNSt4pairIlSt6vectorISt9sub_matchIN9__gnu_cxx17__normal_iteratorIPKcSsEEESaIS7_EEEC1EOSA_
FNDA:0,_ZNSt4pairIlSt6vectorISt9sub_matchIN9__gnu_cxx17__normal_iteratorIPKcSsEEESaIS7_EEEC1EOSA_
FN:315,_ZNSt4pairISsSsEC1EOS0_
FNDA:0,_ZNSt4pairISsSsEC1EOS0_
FN:322,_ZNSt4pairIlSt6vectorISt9sub_matchIN9__gnu_cxx17__normal_iteratorIPKcSsEEESaIS7_EEEC1IRlLb1EEEOT_RKS9_
FNDA:0,_ZNSt4pairIlSt6vectorISt9sub_matchIN9__gnu_cxx17__normal_iteratorIPKcSsEEESaIS7_EEEC1IRlLb1EEEOT_RKS9_
FN:322,_ZNSt4pairIPSt18_Rb_tree_node_baseS1_EC1IRS1_Lb1EEEOT_RKS1_
FNDA:0,_ZNSt4pairIPSt18_Rb_tree_node_baseS1_EC1IRS1_Lb1EEEOT_RKS1_
FN:336,_ZNSt4pairIPSt18_Rb_tree_node_baseS1_EC1IRS1_Lb1EEERKS1_OT_
FNDA:0,_ZNSt4pairIPSt18_Rb_tree_node_baseS1_EC1IRS1_Lb1EEERKS1_OT_
FN:352,_ZNSt4pairIPSt18_Rb_tree_node_baseS1_EC1IRS1_S4_Lb1EEEOT_OT0_
FNDA:0,_ZNSt4pairIPSt18_Rb_tree_node_baseS1_EC1IRS1_S4_Lb1EEEOT_OT0_
FN:352,_ZNSt4pairISsSsEC1ISsSsLb1EEEOT_OT0_
FNDA:0,_ZNSt4pairISsSsEC1ISsSsLb1EEEOT_OT0_
FN:352,_ZNSt4pairIPSt18_Rb_tree_node_baseS1_EC1IRPSt13_Rb_tree_nodeIS_IKllEERS1_Lb1EEEOT_OT0_
FNDA:4,_ZNSt4pairIPSt18_Rb_tree_node_baseS1_EC1IRPSt13_Rb_tree_nodeIS_IKllEERS1_Lb1EEEOT_OT0_
FN:352,_ZNSt4pairIPSt18_Rb_tree_node_baseS1_EC1IRPSt13_Rb_tree_nodeISsERS1_Lb1EEEOT_OT0_
FNDA:29,_ZNSt4pairIPSt18_Rb_tree_node_baseS1_EC1IRPSt13_Rb_tree_nodeISsERS1_Lb1EEEOT_OT0_
FN:352,_ZNSt4pairISt17_Rb_tree_iteratorISsEbEC1IS1_bLb1EEEOT_OT0_
FNDA:36,_ZNSt4pairISt17_Rb_tree_iteratorISsEbEC1IS1_bLb1EEEOT_OT0_
FN:352,_ZNSt4pairISt23_Rb_tree_const_iteratorISsEbEC1IRSt17_Rb_tree_iteratorISsERbLb1EEEOT_OT0_
FNDA:36,_ZNSt4pairISt23_Rb_tree_const_iteratorISsEbEC1IRSt17_Rb_tree_iteratorISsERbLb1EEEOT_OT0_
FN:352,_ZNSt4pairIccEC1IccLb1EEEOT_OT0_
FNDA:6,_ZNSt4pairIccEC1IccLb1EEEOT_OT0_
FN:390,_ZNSt4pairIN9__gnu_cxx17__normal_iteratorIPKcSsEEiEaSERKS5_
FNDA:9416,_ZNSt4pairIN9__gnu_cxx17__normal_iteratorIPKcSsEEiEaSERKS5_
FN:390,_ZNSt4pairIN9__gnu_cxx17__normal_iteratorIPKcSsEES4_EaSERKS5_
FNDA:100365,_ZNSt4pairIN9__gnu_cxx17__normal_iteratorIPKcSsEES4_EaSERKS5_
FN:567,_ZSt9make_pairISsSsESt4pairINSt25__strip_reference_wrapperINSt5decayIT_E4typeEE6__typeENS1_INS2_IT0_E4typeEE6__typeEEOS3_OS8_
FNDA:0,_ZSt9make_pairISsSsESt4pairINSt25__strip_reference_wrapperINSt5decayIT_E4typeEE6__typeENS1_INS2_IT0_E4typeEE6__typeEEOS3_OS8_
FN:567,_ZSt9make_pairIccESt4pairINSt25__strip_reference_wrapperINSt5decayIT_E4typeEE6__typeENS1_INS2_IT0_E4typeEE6__typeEEOS3_OS8_
FNDA:6,_ZSt9make_pairIccESt4pairINSt25__strip_reference_wrapperINSt5decayIT_E4typeEE6__typeENS1_INS2_IT0_E4typeEE6__typeEEOS3_OS8_
FNF:19
FNH:10
DA:232,44162
DA:233,44162
DA:232,2726
DA:233,2726
DA:314,0
DA:315,0
DA:315,0
DA:322,0
DA:323,0
DA:322,0
DA:323,0
DA:336,0
DA:337,0
DA:352,4
DA:353,4
DA:352,0
DA:353,0
DA:352,0
DA:353,0
DA:352,29
DA:353,29
DA:352,36
DA:353,36
DA:352,36
DA:353,36
DA:352,6
DA:353,6
DA:390,9416
DA:395,9416
DA:396,9416
DA:397,9416
DA:390,100365
DA:395,100365
DA:396,100365
DA:397,100365
DA:567,0
DA:572,0
DA:567,6
DA:572,6
LF:39
LH:24
end_of_record
SF:/home/VICTOROS/source/cerebro/src/dataset/normalized-dataset.cpp
FN:22,_ZN17NormalizedDatasetC2ESt6vectorISsSaISsEES0_IS2_SaIS2_EE
FNDA:1,_ZN17NormalizedDatasetC2ESt6vectorISsSaISsEES0_IS2_SaIS2_EE
FN:92,_ZN17NormalizedDataset8colIndexESs
FNDA:24,_ZN17NormalizedDataset8colIndexESs
FN:105,_ZN17NormalizedDataset4cellEii
FNDA:24,_ZN17NormalizedDataset4cellEii
FN:118,_ZN17NormalizedDataset4cellEiSs
FNDA:24,_ZN17NormalizedDataset4cellEiSs
FN:132,_ZN17NormalizedDataset4typeEi
FNDA:12,_ZN17NormalizedDataset4typeEi
FN:137,_ZN17NormalizedDataset4typeESs
FNDA:6,_ZN17NormalizedDataset4typeESs
FN:150,_ZN17NormalizedDataset16normalizeIntegerESt6vectorIS0_ISsSaISsEESaIS2_EEi
FNDA:2,_ZN17NormalizedDataset16normalizeIntegerESt6vectorIS0_ISsSaISsEESaIS2_EEi
FN:182,_ZN17NormalizedDataset13normalizeEnumESt6vectorIS0_ISsSaISsEESaIS2_EEi
FNDA:1,_ZN17NormalizedDataset13normalizeEnumESt6vectorIS0_ISsSaISsEESaIS2_EEi
FN:208,_ZN17NormalizedDataset22normalizeFloatingPointESt6vectorIS0_ISsSaISsEESaIS2_EEi
FNDA:1,_ZN17NormalizedDataset22normalizeFloatingPointESt6vectorIS0_ISsSaISsEESaIS2_EEi
FN:239,_ZN17NormalizedDataset16normalizeBooleanESt6vectorIS0_ISsSaISsEESaIS2_EEi
FNDA:1,_ZN17NormalizedDataset16normalizeBooleanESt6vectorIS0_ISsSaISsEESaIS2_EEi
FNF:10
FNH:10
DA:22,1
DA:23,1
DA:25,1
DA:26,2
DA:27,2
DA:28,2
DA:30,7
DA:32,6
DA:33,12
DA:34,42
DA:36,36
DA:38,36
DA:39,53
DA:40,17
DA:42,13
DA:44,65
DA:45,31
DA:46,8
DA:47,5
DA:49,5
DA:51,18
DA:53,18
DA:57,6
DA:59,1
DA:61,5
DA:63,1
DA:66,6
DA:68,6
DA:70,1
DA:71,1
DA:72,1
DA:73,2
DA:74,2
DA:75,2
DA:76,1
DA:77,1
DA:78,1
DA:79,1
DA:80,1
DA:81,1
DA:82,1
DA:83,1
DA:84,1
DA:85,0
DA:86,0
DA:87,0
DA:90,1
DA:92,24
DA:94,24
DA:95,24
DA:97,24
DA:101,0
DA:105,24
DA:108,24
DA:110,24
DA:114,0
DA:118,24
DA:121,24
DA:122,24
DA:124,24
DA:128,0
DA:132,12
DA:134,12
DA:137,6
DA:139,6
DA:140,6
DA:142,6
DA:146,0
DA:150,2
DA:153,2
DA:154,2
DA:155,4
DA:156,14
DA:158,12
DA:160,12
DA:162,12
DA:164,9
DA:167,12
DA:169,4
DA:173,2
DA:174,14
DA:176,24
DA:177,12
DA:179,4
DA:182,1
DA:184,2
DA:185,2
DA:186,7
DA:188,6
DA:189,6
DA:191,3
DA:192,3
DA:196,3
DA:199,1
DA:200,7
DA:202,12
DA:203,6
DA:205,2
DA:208,1
DA:210,1
DA:211,1
DA:212,2
DA:213,7
DA:215,6
DA:217,6
DA:219,6
DA:221,1
DA:224,6
DA:226,4
DA:230,1
DA:231,7
DA:233,12
DA:234,6
DA:236,2
DA:239,1
DA:241,2
DA:242,2
DA:244,2
DA:245,7
DA:247,12
DA:248,6
DA:250,3
DA:252,3
DA:254,1
DA:256,2
DA:258,0
DA:259,0
DA:261,2
DA:263,0
DA:264,0
DA:266,2
DA:268,1
DA:269,1
DA:273,1
DA:274,1
DA:277,1
DA:278,7
DA:280,6
DA:282,2
LF:139
LH:128
end_of_record
SF:/usr/lib/gcc/x86_64-pc-msys/10.2.0/include/c++/bits/stl_bvector.h
FN:77,_ZNSt14_Bit_referenceC1EPmm
FNDA:12,_ZNSt14_Bit_referenceC1EPmm
FN:86,_ZNKSt14_Bit_referencecvbEv
FNDA:6,_ZNKSt14_Bit_referencecvbEv
FN:90,_ZNSt14_Bit_referenceaSEb
FNDA:6,_ZNSt14_Bit_referenceaSEb
FN:100,_ZNSt14_Bit_referenceaSERKS_
FNDA:0,_ZNSt14_Bit_referenceaSERKS_
FN:148,_ZNSt18_Bit_iterator_baseC2EPmj
FNDA:23,_ZNSt18_Bit_iterator_baseC2EPmj
FN:152,_ZNSt18_Bit_iterator_base10_M_bump_upEv
FNDA:6,_ZNSt18_Bit_iterator_base10_M_bump_upEv
FN:162,_ZNSt18_Bit_iterator_base12_M_bump_downEv
FNDA:0,_ZNSt18_Bit_iterator_base12_M_bump_downEv
FN:172,_ZNSt18_Bit_iterator_base7_M_incrEl
FNDA:0,_ZNSt18_Bit_iterator_base7_M_incrEl
FN:224,_ZStmiRKSt18_Bit_iterator_baseS1_
FNDA:6,_ZStmiRKSt18_Bit_iterator_baseS1_
FN:241,_ZNSt13_Bit_iteratorC1Ev
FNDA:3,_ZNSt13_Bit_iteratorC1Ev
FN:243,_ZNSt13_Bit_iteratorC1EPmj
FNDA:9,_ZNSt13_Bit_iteratorC1EPmj
FN:251,_ZNKSt13_Bit_iteratordeEv
FNDA:12,_ZNKSt13_Bit_iteratordeEv
FN:255,_ZNSt13_Bit_iteratorppEv
FNDA:0,_ZNSt13_Bit_iteratorppEv
FN:262,_ZNSt13_Bit_iteratorppEi
FNDA:6,_ZNSt13_Bit_iteratorppEi
FN:270,_ZNSt13_Bit_iteratormmEv
FNDA:0,_ZNSt13_Bit_iteratormmEv
FN:285,_ZNSt13_Bit_iteratorpLEl
FNDA:0,_ZNSt13_Bit_iteratorpLEl
FN:303,_ZStplRKSt13_Bit_iteratorl
FNDA:0,_ZStplRKSt13_Bit_iteratorl
FN:336,_ZNSt19_Bit_const_iteratorC1EPmj
FNDA:5,_ZNSt19_Bit_const_iteratorC1EPmj
FN:339,_ZNSt19_Bit_const_iteratorC1ERKSt13_Bit_iterator
FNDA:6,_ZNSt19_Bit_const_iteratorC1ERKSt13_Bit_iterator
FN:347,_ZNKSt19_Bit_const_iteratordeEv
FNDA:0,_ZNKSt19_Bit_const_iteratordeEv
FN:351,_ZNSt19_Bit_const_iteratorppEv
FNDA:0,_ZNSt19_Bit_const_iteratorppEv
FN:467,_ZNSt13_Bvector_baseISaIbEE18_Bvector_impl_dataC2Ev
FNDA:1,_ZNSt13_Bvector_baseISaIbEE18_Bvector_impl_dataC2Ev
FN:488,_ZNSt13_Bvector_baseISaIbEE18_Bvector_impl_data8_M_resetEv
FNDA:1,_ZNSt13_Bvector_baseISaIbEE18_Bvector_impl_data8_M_resetEv
FN:499,_ZNSt13_Bvector_baseISaIbEE13_Bvector_implC1Ev
FNDA:1,_ZNSt13_Bvector_baseISaIbEE13_Bvector_implC1Ev
FN:513,_ZNKSt13_Bvector_baseISaIbEE13_Bvector_impl11_M_end_addrEv
FNDA:8,_ZNKSt13_Bvector_baseISaIbEE13_Bvector_impl11_M_end_addrEv
FN:529,_ZNKSt13_Bvector_baseISaIbEE20_M_get_Bit_allocatorEv
FNDA:2,_ZNKSt13_Bvector_baseISaIbEE20_M_get_Bit_allocatorEv
FN:537,_ZNSt13_Bvector_baseISaIbEEC2Ev
FNDA:1,_ZNSt13_Bvector_baseISaIbEEC2Ev
FN:549,_ZNSt13_Bvector_baseISaIbEED2Ev
FNDA:1,_ZNSt13_Bvector_baseISaIbEED2Ev
FN:556,_ZNSt13_Bvector_baseISaIbEE11_M_allocateEm
FNDA:1,_ZNSt13_Bvector_baseISaIbEE11_M_allocateEm
FN:560,_ZNSt13_Bvector_baseISaIbEE13_M_deallocateEv
FNDA:2,_ZNSt13_Bvector_baseISaIbEE13_M_deallocateEv
FN:579,_ZNSt13_Bvector_baseISaIbEE8_S_nwordEm
FNDA:2,_ZNSt13_Bvector_baseISaIbEE8_S_nwordEm
FN:651,_ZNSt6vectorIbSaIbEEC1Ev
FNDA:1,_ZNSt6vectorIbSaIbEEC1Ev
FN:737,_ZNSt6vectorIbSaIbEED1Ev
FNDA:1,_ZNSt6vectorIbSaIbEED1Ev
FN:834,_ZNSt6vectorIbSaIbEE5beginEv
FNDA:1,_ZNSt6vectorIbSaIbEE5beginEv
FN:838,_ZNKSt6vectorIbSaIbEE5beginEv
FNDA:4,_ZNKSt6vectorIbSaIbEE5beginEv
FN:842,_ZNSt6vectorIbSaIbEE3endEv
FNDA:2,_ZNSt6vectorIbSaIbEE3endEv
FN:846,_ZNKSt6vectorIbSaIbEE3endEv
FNDA:4,_ZNKSt6vectorIbSaIbEE3endEv
FN:884,_ZNKSt6vectorIbSaIbEE4sizeEv
FNDA:4,_ZNKSt6vectorIbSaIbEE4sizeEv
FN:888,_ZNKSt6vectorIbSaIbEE8max_sizeEv
FNDA:2,_ZNKSt6vectorIbSaIbEE8max_sizeEv
FN:909,_ZNSt6vectorIbSaIbEEixEm
FNDA:6,_ZNSt6vectorIbSaIbEEixEm
FN:976,_ZNSt6vectorIbSaIbEE9push_backEb
FNDA:6,_ZNSt6vectorIbSaIbEE9push_backEb
FN:1117,_ZNSt6vectorIbSaIbEE12emplace_backIJbEEEvDpOT_
FNDA:6,_ZNSt6vectorIbSaIbEE12emplace_backIJbEEEvDpOT_
FN:1134,_ZNSt6vectorIbSaIbEE15_M_copy_alignedESt19_Bit_const_iteratorS2_St13_Bit_iterator
FNDA:1,_ZNSt6vectorIbSaIbEE15_M_copy_alignedESt19_Bit_const_iteratorS2_St13_Bit_iterator
FN:1318,_ZNKSt6vectorIbSaIbEE12_M_check_lenEmPKc
FNDA:1,_ZNKSt6vectorIbSaIbEE12_M_check_lenEmPKc
FNF:44
FNH:35
DA:77,12
DA:78,12
DA:86,6
DA:87,6
DA:90,6
DA:92,6
DA:93,4
DA:95,2
DA:96,6
DA:100,0
DA:101,0
DA:148,23
DA:149,23
DA:152,6
DA:154,6
DA:156,0
DA:157,0
DA:159,6
DA:162,0
DA:164,0
DA:166,0
DA:167,0
DA:169,0
DA:172,0
DA:174,0
DA:175,0
DA:176,0
DA:177,0
DA:179,0
DA:180,0
DA:182,0
DA:183,0
DA:224,6
DA:226,6
DA:227,6
DA:241,3
DA:243,9
DA:244,9
DA:251,12
DA:252,12
DA:255,0
DA:257,0
DA:258,0
DA:262,6
DA:264,6
DA:265,6
DA:266,6
DA:270,0
DA:272,0
DA:273,0
DA:285,0
DA:287,0
DA:288,0
DA:303,0
DA:305,0
DA:306,0
DA:307,0
DA:336,5
DA:337,5
DA:339,6
DA:340,6
DA:347,0
DA:348,0
DA:351,0
DA:353,0
DA:354,0
DA:467,1
DA:468,1
DA:469,1
DA:488,1
DA:490,1
DA:491,1
DA:492,1
DA:499,1
DA:501,1
DA:502,1
DA:513,8
DA:515,8
DA:516,6
DA:517,2
DA:529,2
DA:530,2
DA:537,1
DA:549,1
DA:550,1
DA:556,1
DA:557,1
DA:560,2
DA:562,2
DA:564,1
DA:565,1
DA:566,1
DA:568,1
DA:570,2
DA:579,2
DA:580,2
DA:651,1
DA:737,1
DA:834,1
DA:835,1
DA:838,4
DA:839,4
DA:842,2
DA:843,2
DA:846,4
DA:847,4
DA:884,4
DA:885,4
DA:888,2
DA:890,2
DA:894,2
DA:896,2
DA:909,6
DA:911,12
DA:912,12
DA:976,6
DA:978,6
DA:979,5
DA:981,1
DA:982,6
DA:1117,6
DA:1119,6
DA:1123,6
DA:1134,1
DA:1137,1
DA:1138,2
DA:1139,3
DA:1318,1
DA:1320,1
DA:1321,0
DA:1323,1
DA:1324,1
LF:132
LH:95
end_of_record
SF:/usr/lib/gcc/x86_64-pc-msys/10.2.0/include/c++/bits/locale_classes.tcc
FN:132,_ZSt9use_facetIKSt5ctypeIcEERKT_RKSt6locale
FNDA:609,_ZSt9use_facetIKSt5ctypeIcEERKT_RKSt6locale
FNF:1
FNH:1
DA:132,609
DA:134,609
DA:135,609
DA:136,609
DA:137,0
DA:139,609
LF:6
LH:5
end_of_record
SF:/usr/lib/gcc/x86_64-pc-msys/10.2.0/include/c++/iostream
LF:0
LH:0
end_of_record
SF:/usr/lib/gcc/x86_64-pc-msys/10.2.0/include/c++/bits/shared_ptr_base.h
FN:120,_ZNSt16_Sp_counted_baseILN9__gnu_cxx12_Lock_policyE2EEC2Ev
FNDA:609,_ZNSt16_Sp_counted_baseILN9__gnu_cxx12_Lock_policyE2EEC2Ev
FN:124,_ZNSt16_Sp_counted_baseILN9__gnu_cxx12_Lock_policyE2EED2Ev
FNDA:605,_ZNSt16_Sp_counted_baseILN9__gnu_cxx12_Lock_policyE2EED2Ev
FN:134,_ZNSt16_Sp_counted_baseILN9__gnu_cxx12_Lock_policyE2EE10_M_destroyEv
FNDA:0,_ZNSt16_Sp_counted_baseILN9__gnu_cxx12_Lock_policyE2EE10_M_destroyEv
FN:151,_ZNSt16_Sp_counted_baseILN9__gnu_cxx12_Lock_policyE2EE10_M_releaseEv
FNDA:605,_ZNSt16_Sp_counted_baseILN9__gnu_cxx12_Lock_policyE2EE10_M_releaseEv
FN:417,_ZNSt14_Sp_ebo_helperILi0ESaINSt8__detail4_NFAISt12regex_traitsIcEEEELb1EEC2ERKS5_
FNDA:609,_ZNSt14_Sp_ebo_helperILi0ESaINSt8__detail4_NFAISt12regex_traitsIcEEEELb1EEC2ERKS5_
FN:421,_ZNSt14_Sp_ebo_helperILi0ESaINSt8__detail4_NFAISt12regex_traitsIcEEEELb1EE6_S_getERS6_
FNDA:1210,_ZNSt14_Sp_ebo_helperILi0ESaINSt8__detail4_NFAISt12regex_traitsIcEEEELb1EE6_S_getERS6_
FN:511,_ZNSt19_Sp_make_shared_tag5_S_tiEv
FNDA:0,_ZNSt19_Sp_make_shared_tag5_S_tiEv
FN:534,_ZNSt23_Sp_counted_ptr_inplaceINSt8__detail4_NFAISt12regex_traitsIcEEESaIS4_ELN9__gnu_cxx12_Lock_policyE2EE5_ImplC1ES5_
FNDA:609,_ZNSt23_Sp_counted_ptr_inplaceINSt8__detail4_NFAISt12regex_traitsIcEEESaIS4_ELN9__gnu_cxx12_Lock_policyE2EE5_ImplC1ES5_
FN:536,_ZNSt23_Sp_counted_ptr_inplaceINSt8__detail4_NFAISt12regex_traitsIcEEESaIS4_ELN9__gnu_cxx12_Lock_policyE2EE5_Impl8_M_allocEv
FNDA:1210,_ZNSt23_Sp_counted_ptr_inplaceINSt8__detail4_NFAISt12regex_traitsIcEEESaIS4_ELN9__gnu_cxx12_Lock_policyE2EE5_Impl8_M_allocEv
FN:546,_ZNSt23_Sp_counted_ptr_inplaceINSt8__detail4_NFAISt12regex_traitsIcEEESaIS4_ELN9__gnu_cxx12_Lock_policyE2EEC1IJRKSt6localeRNSt15regex_constants18syntax_option_typeEEEES5_DpOT_
FNDA:609,_ZNSt23_Sp_counted_ptr_inplaceINSt8__detail4_NFAISt12regex_traitsIcEEESaIS4_ELN9__gnu_cxx12_Lock_policyE2EEC1IJRKSt6localeRNSt15regex_constants18syntax_option_typeEEEES5_DpOT_
FN:555,_ZNSt23_Sp_counted_ptr_inplaceINSt8__detail4_NFAISt12regex_traitsIcEEESaIS4_ELN9__gnu_cxx12_Lock_policyE2EED1Ev
FNDA:605,_ZNSt23_Sp_counted_ptr_inplaceINSt8__detail4_NFAISt12regex_traitsIcEEESaIS4_ELN9__gnu_cxx12_Lock_policyE2EED1Ev
FN:555,_ZNSt23_Sp_counted_ptr_inplaceINSt8__detail4_NFAISt12regex_traitsIcEEESaIS4_ELN9__gnu_cxx12_Lock_policyE2EED0Ev
FNDA:0,_ZNSt23_Sp_counted_ptr_inplaceINSt8__detail4_NFAISt12regex_traitsIcEEESaIS4_ELN9__gnu_cxx12_Lock_policyE2EED0Ev
FN:558,_ZNSt23_Sp_counted_ptr_inplaceINSt8__detail4_NFAISt12regex_traitsIcEEESaIS4_ELN9__gnu_cxx12_Lock_policyE2EE10_M_disposeEv
FNDA:605,_ZNSt23_Sp_counted_ptr_inplaceINSt8__detail4_NFAISt12regex_traitsIcEEESaIS4_ELN9__gnu_cxx12_Lock_policyE2EE10_M_disposeEv
FN:565,_ZNSt23_Sp_counted_ptr_inplaceINSt8__detail4_NFAISt12regex_traitsIcEEESaIS4_ELN9__gnu_cxx12_Lock_policyE2EE10_M_destroyEv
FNDA:605,_ZNSt23_Sp_counted_ptr_inplaceINSt8__detail4_NFAISt12regex_traitsIcEEESaIS4_ELN9__gnu_cxx12_Lock_policyE2EE10_M_destroyEv
FN:578,_ZNSt23_Sp_counted_ptr_inplaceINSt8__detail4_NFAISt12regex_traitsIcEEESaIS4_ELN9__gnu_cxx12_Lock_policyE2EE14_M_get_deleterERKSt9type_info
FNDA:0,_ZNSt23_Sp_counted_ptr_inplaceINSt8__detail4_NFAISt12regex_traitsIcEEESaIS4_ELN9__gnu_cxx12_Lock_policyE2EE14_M_get_deleterERKSt9type_info
FN:597,_ZNSt23_Sp_counted_ptr_inplaceINSt8__detail4_NFAISt12regex_traitsIcEEESaIS4_ELN9__gnu_cxx12_Lock_policyE2EE6_M_ptrEv
FNDA:1823,_ZNSt23_Sp_counted_ptr_inplaceINSt8__detail4_NFAISt12regex_traitsIcEEESaIS4_ELN9__gnu_cxx12_Lock_policyE2EE6_M_ptrEv
FN:619,_ZNSt14__shared_countILN9__gnu_cxx12_Lock_policyE2EEC1Ev
FNDA:609,_ZNSt14__shared_countILN9__gnu_cxx12_Lock_policyE2EEC1Ev
FN:675,_ZNSt14__shared_countILN9__gnu_cxx12_Lock_policyE2EEC1INSt8__detail4_NFAISt12regex_traitsIcEEESaIS8_EJRKSt6localeRNSt15regex_constants18syntax_option_typeEEEERPT_St20_Sp_alloc_shared_tagIT0_EDpOT1_
FNDA:609,_ZNSt14__shared_countILN9__gnu_cxx12_Lock_policyE2EEC1INSt8__detail4_NFAISt12regex_traitsIcEEESaIS8_EJRKSt6localeRNSt15regex_constants18syntax_option_typeEEEERPT_St20_Sp_alloc_shared_tagIT0_EDpOT1_
FN:730,_ZNSt14__shared_countILN9__gnu_cxx12_Lock_policyE2EED1Ev
FNDA:1214,_ZNSt14__shared_countILN9__gnu_cxx12_Lock_policyE2EED1Ev
FN:759,_ZNSt14__shared_countILN9__gnu_cxx12_Lock_policyE2EE7_M_swapERS2_
FNDA:609,_ZNSt14__shared_countILN9__gnu_cxx12_Lock_policyE2EE7_M_swapERS2_
FN:1008,_ZNKSt19__shared_ptr_accessIKNSt8__detail4_NFAISt12regex_traitsIcEEELN9__gnu_cxx12_Lock_policyE2ELb0ELb0EEdeEv
FNDA:0,_ZNKSt19__shared_ptr_accessIKNSt8__detail4_NFAISt12regex_traitsIcEEELN9__gnu_cxx12_Lock_policyE2ELb0ELb0EEdeEv
FN:1008,_ZNKSt19__shared_ptr_accessINSt8__detail4_NFAISt12regex_traitsIcEEELN9__gnu_cxx12_Lock_policyE2ELb0ELb0EEdeEv
FNDA:3117,_ZNKSt19__shared_ptr_accessINSt8__detail4_NFAISt12regex_traitsIcEEELN9__gnu_cxx12_Lock_policyE2ELb0ELb0EEdeEv
FN:1015,_ZNKSt19__shared_ptr_accessINSt8__detail4_NFAISt12regex_traitsIcEEELN9__gnu_cxx12_Lock_policyE2ELb0ELb0EEptEv
FNDA:6182,_ZNKSt19__shared_ptr_accessINSt8__detail4_NFAISt12regex_traitsIcEEELN9__gnu_cxx12_Lock_policyE2ELb0ELb0EEptEv
FN:1015,_ZNKSt19__shared_ptr_accessIKNSt8__detail4_NFAISt12regex_traitsIcEEELN9__gnu_cxx12_Lock_policyE2ELb0ELb0EEptEv
FNDA:0,_ZNKSt19__shared_ptr_accessIKNSt8__detail4_NFAISt12regex_traitsIcEEELN9__gnu_cxx12_Lock_policyE2ELb0ELb0EEptEv
FN:1023,_ZNKSt19__shared_ptr_accessINSt8__detail4_NFAISt12regex_traitsIcEEELN9__gnu_cxx12_Lock_policyE2ELb0ELb0EE6_M_getEv
FNDA:9299,_ZNKSt19__shared_ptr_accessINSt8__detail4_NFAISt12regex_traitsIcEEELN9__gnu_cxx12_Lock_policyE2ELb0ELb0EE6_M_getEv
FN:1023,_ZNKSt19__shared_ptr_accessIKNSt8__detail4_NFAISt12regex_traitsIcEEELN9__gnu_cxx12_Lock_policyE2ELb0ELb0EE6_M_getEv
FNDA:0,_ZNKSt19__shared_ptr_accessIKNSt8__detail4_NFAISt12regex_traitsIcEEELN9__gnu_cxx12_Lock_policyE2ELb0ELb0EE6_M_getEv
FN:1183,_ZNSt12__shared_ptrIKNSt8__detail4_NFAISt12regex_traitsIcEEELN9__gnu_cxx12_Lock_policyE2EED2Ev
FNDA:605,_ZNSt12__shared_ptrIKNSt8__detail4_NFAISt12regex_traitsIcEEELN9__gnu_cxx12_Lock_policyE2EED2Ev
FN:1183,_ZNSt12__shared_ptrINSt8__detail4_NFAISt12regex_traitsIcEEELN9__gnu_cxx12_Lock_policyE2EED2Ev
FNDA:609,_ZNSt12__shared_ptrINSt8__detail4_NFAISt12regex_traitsIcEEELN9__gnu_cxx12_Lock_policyE2EED2Ev
FN:1198,_ZNSt12__shared_ptrIKNSt8__detail4_NFAISt12regex_traitsIcEEELN9__gnu_cxx12_Lock_policyE2EEC2IS4_vEEOS_IT_LS7_2EE
FNDA:609,_ZNSt12__shared_ptrIKNSt8__detail4_NFAISt12regex_traitsIcEEELN9__gnu_cxx12_Lock_policyE2EEC2IS4_vEEOS_IT_LS7_2EE
FN:1324,_ZNKSt12__shared_ptrINSt8__detail4_NFAISt12regex_traitsIcEEELN9__gnu_cxx12_Lock_policyE2EE3getEv
FNDA:9299,_ZNKSt12__shared_ptrINSt8__detail4_NFAISt12regex_traitsIcEEELN9__gnu_cxx12_Lock_policyE2EE3getEv
FN:1324,_ZNKSt12__shared_ptrIKNSt8__detail4_NFAISt12regex_traitsIcEEELN9__gnu_cxx12_Lock_policyE2EE3getEv
FNDA:0,_ZNKSt12__shared_ptrIKNSt8__detail4_NFAISt12regex_traitsIcEEELN9__gnu_cxx12_Lock_policyE2EE3getEv
FN:1328,_ZNKSt12__shared_ptrIKNSt8__detail4_NFAISt12regex_traitsIcEEELN9__gnu_cxx12_Lock_policyE2EEcvbEv
FNDA:0,_ZNKSt12__shared_ptrIKNSt8__detail4_NFAISt12regex_traitsIcEEELN9__gnu_cxx12_Lock_policyE2EEcvbEv
FN:1370,_ZNSt12__shared_ptrINSt8__detail4_NFAISt12regex_traitsIcEEELN9__gnu_cxx12_Lock_policyE2EEC2ISaIS4_EJRKSt6localeRNSt15regex_constants18syntax_option_typeEEEESt20_Sp_alloc_shared_tagIT_EDpOT0_
FNDA:609,_ZNSt12__shared_ptrINSt8__detail4_NFAISt12regex_traitsIcEEELN9__gnu_cxx12_Lock_policyE2EEC2ISaIS4_EJRKSt6localeRNSt15regex_constants18syntax_option_typeEEEESt20_Sp_alloc_shared_tagIT_EDpOT0_
FN:1415,_ZNSt12__shared_ptrINSt8__detail4_NFAISt12regex_traitsIcEEELN9__gnu_cxx12_Lock_policyE2EE31_M_enable_shared_from_this_withIS4_S4_EENSt9enable_ifIXntsrNS7_15__has_esft_baseIT0_vEE5valueEvE4typeEPT_
FNDA:609,_ZNSt12__shared_ptrINSt8__detail4_NFAISt12regex_traitsIcEEELN9__gnu_cxx12_Lock_policyE2EE31_M_enable_shared_from_this_withIS4_S4_EENSt9enable_ifIXntsrNS7_15__has_esft_baseIT0_vEE5valueEvE4typeEPT_
FNF:34
FNH:25
DA:120,609
DA:121,609
DA:124,605
DA:125,605
DA:134,0
DA:135,0
DA:151,605
DA:155,1210
DA:158,605
DA:170,605
DA:171,605
DA:174,605
DA:177,605
DA:417,609
DA:421,1210
DA:511,0
DA:514,0
DA:534,609
DA:536,1210
DA:546,609
DA:547,609
DA:551,609
DA:553,609
DA:555,0
DA:555,605
DA:558,605
DA:560,605
DA:561,605
DA:565,605
DA:567,1210
DA:568,1210
DA:569,605
DA:570,605
DA:578,0
DA:580,0
DA:585,0
DA:586,0
DA:588,0
DA:593,0
DA:594,0
DA:597,1823
DA:619,609
DA:620,609
DA:675,609
DA:679,1218
DA:680,609
DA:681,609
DA:682,1218
DA:683,609
DA:684,609
DA:685,609
DA:686,609
DA:687,609
DA:730,1214
DA:732,1214
DA:733,605
DA:734,1214
DA:759,609
DA:761,609
DA:762,609
DA:763,609
DA:764,609
DA:1008,0
DA:1011,0
DA:1008,3117
DA:1011,3117
DA:1015,6182
DA:1018,6182
DA:1015,0
DA:1018,0
DA:1023,9299
DA:1024,9299
DA:1023,0
DA:1024,0
DA:1183,609
DA:1183,605
DA:1198,609
DA:1199,609
DA:1201,609
DA:1202,609
DA:1203,609
DA:1324,9299
DA:1325,9299
DA:1324,0
DA:1325,0
DA:1328,0
DA:1329,0
DA:1370,609
DA:1371,609
DA:1372,609
DA:1415,609
DA:1416,609
LF:92
LH:70
end_of_record
SF:/usr/lib/gcc/x86_64-pc-msys/10.2.0/include/c++/bits/stl_construct.h
FN:108,_ZSt10_ConstructISt4pairIccEJS1_EEvPT_DpOT0_
FNDA:0,_ZSt10_ConstructISt4pairIccEJS1_EEvPT_DpOT0_
FN:108,_ZSt10_ConstructISsJRSsEEvPT_DpOT0_
FNDA:0,_ZSt10_ConstructISsJRSsEEvPT_DpOT0_
FN:108,_ZSt10_ConstructISt6vectorISsSaISsEEJRKS2_EEvPT_DpOT0_
FNDA:0,_ZSt10_ConstructISt6vectorISsSaISsEEJRKS2_EEvPT_DpOT0_
FN:108,_ZSt10_ConstructISsJRKSsEEvPT_DpOT0_
FNDA:0,_ZSt10_ConstructISsJRKSsEEvPT_DpOT0_
FN:108,_ZSt10_ConstructISt6vectorIdSaIdEEJS2_EEvPT_DpOT0_
FNDA:0,_ZSt10_ConstructISt6vectorIdSaIdEEJS2_EEvPT_DpOT0_
FN:108,_ZSt10_ConstructISsJSsEEvPT_DpOT0_
FNDA:0,_ZSt10_ConstructISsJSsEEvPT_DpOT0_
FN:108,_ZSt10_ConstructISt9sub_matchIN9__gnu_cxx17__normal_iteratorIPKcSsEEEJRKS6_EEvPT_DpOT0_
FNDA:22487,_ZSt10_ConstructISt9sub_matchIN9__gnu_cxx17__normal_iteratorIPKcSsEEEJRKS6_EEvPT_DpOT0_
FN:108,_ZSt10_ConstructISt4pairIN9__gnu_cxx17__normal_iteratorIPKcSsEEiEJEEvPT_DpOT0_
FNDA:44162,_ZSt10_ConstructISt4pairIN9__gnu_cxx17__normal_iteratorIPKcSsEEiEJEEvPT_DpOT0_
FN:108,_ZSt10_ConstructISt9sub_matchIN9__gnu_cxx17__normal_iteratorIPKcSsEEEJRS6_EEvPT_DpOT0_
FNDA:0,_ZSt10_ConstructISt9sub_matchIN9__gnu_cxx17__normal_iteratorIPKcSsEEEJRS6_EEvPT_DpOT0_
FN:108,_ZSt10_ConstructINSt12regex_traitsIcE10_RegexMaskEJRKS2_EEvPT_DpOT0_
FNDA:0,_ZSt10_ConstructINSt12regex_traitsIcE10_RegexMaskEJRKS2_EEvPT_DpOT0_
FN:108,_ZSt10_ConstructISt4pairISsSsEJRKS1_EEvPT_DpOT0_
FNDA:0,_ZSt10_ConstructISt4pairISsSsEJRKS1_EEvPT_DpOT0_
FN:108,_ZSt10_ConstructISt4pairISsSsEJS1_EEvPT_DpOT0_
FNDA:0,_ZSt10_ConstructISt4pairISsSsEJS1_EEvPT_DpOT0_
FN:108,_ZSt10_ConstructISt4pairIccEJRKS1_EEvPT_DpOT0_
FNDA:8,_ZSt10_ConstructISt4pairIccEJRKS1_EEvPT_DpOT0_
FN:108,_ZSt10_ConstructINSt12regex_traitsIcE10_RegexMaskEJS2_EEvPT_DpOT0_
FNDA:0,_ZSt10_ConstructINSt12regex_traitsIcE10_RegexMaskEJS2_EEvPT_DpOT0_
FN:108,_ZSt10_ConstructINSt8__detail6_StateIcEEJRKS2_EEvPT_DpOT0_
FNDA:4447,_ZSt10_ConstructINSt8__detail6_StateIcEEJRKS2_EEvPT_DpOT0_
FN:108,_ZSt10_ConstructISt4pairIlSt6vectorISt9sub_matchIN9__gnu_cxx17__normal_iteratorIPKcSsEEESaIS8_EEEJSB_EEvPT_DpOT0_
FNDA:0,_ZSt10_ConstructISt4pairIlSt6vectorISt9sub_matchIN9__gnu_cxx17__normal_iteratorIPKcSsEEESaIS8_EEEJSB_EEvPT_DpOT0_
FN:135,_ZSt8_DestroyISt6vectorISsSaISsEEEvPT_
FNDA:0,_ZSt8_DestroyISt6vectorISsSaISsEEEvPT_
FN:135,_ZSt8_DestroyINSt8__detail6_StateIcEEEvPT_
FNDA:8704,_ZSt8_DestroyINSt8__detail6_StateIcEEEvPT_
FN:135,_ZSt8_DestroyISt6vectorIdSaIdEEEvPT_
FNDA:0,_ZSt8_DestroyISt6vectorIdSaIdEEEvPT_
FN:135,_ZSt8_DestroyISt4pairIlSt6vectorISt9sub_matchIN9__gnu_cxx17__normal_iteratorIPKcSsEEESaIS8_EEEEvPT_
FNDA:0,_ZSt8_DestroyISt4pairIlSt6vectorISt9sub_matchIN9__gnu_cxx17__normal_iteratorIPKcSsEEESaIS8_EEEEvPT_
FN:135,_ZSt8_DestroyISsEvPT_
FNDA:0,_ZSt8_DestroyISsEvPT_
FN:135,_ZSt8_DestroyISt4pairISsSsEEvPT_
FNDA:0,_ZSt8_DestroyISt4pairISsSsEEvPT_
FN:149,_ZNSt12_Destroy_auxILb0EE9__destroyIPSt4pairISsSsEEEvT_S5_
FNDA:0,_ZNSt12_Destroy_auxILb0EE9__destroyIPSt4pairISsSsEEEvT_S5_
FN:149,_ZNSt12_Destroy_auxILb0EE9__destroyIPSt4pairIlSt6vectorISt9sub_matchIN9__gnu_cxx17__normal_iteratorIPKcSsEEESaISA_EEEEEvT_SF_
FNDA:0,_ZNSt12_Destroy_auxILb0EE9__destroyIPSt4pairIlSt6vectorISt9sub_matchIN9__gnu_cxx17__normal_iteratorIPKcSsEEESaISA_EEEEEvT_SF_
FN:149,_ZNSt12_Destroy_auxILb0EE9__destroyIPSt6vectorISsSaISsEEEEvT_S6_
FNDA:0,_ZNSt12_Destroy_auxILb0EE9__destroyIPSt6vectorISsSaISsEEEEvT_S6_
FN:149,_ZNSt12_Destroy_auxILb0EE9__destroyIPNSt8__detail6_StateIcEEEEvT_S6_
FNDA:3054,_ZNSt12_Destroy_auxILb0EE9__destroyIPNSt8__detail6_StateIcEEEEvT_S6_
FN:149,_ZNSt12_Destroy_auxILb0EE9__destroyIN9__gnu_cxx17__normal_iteratorIPSsSt6vectorISsSaISsEEEEEEvT_S9_
FNDA:0,_ZNSt12_Destroy_auxILb0EE9__destroyIN9__gnu_cxx17__normal_iteratorIPSsSt6vectorISsSaISsEEEEEEvT_S9_
FN:149,_ZNSt12_Destroy_auxILb0EE9__destroyIPSt6vectorIdSaIdEEEEvT_S6_
FNDA:0,_ZNSt12_Destroy_auxILb0EE9__destroyIPSt6vectorIdSaIdEEEEvT_S6_
FN:149,_ZNSt12_Destroy_auxILb0EE9__destroyIPSsEEvT_S3_
FNDA:0,_ZNSt12_Destroy_auxILb0EE9__destroyIPSsEEvT_S3_
FN:161,_ZNSt12_Destroy_auxILb1EE9__destroyIPiEEvT_S3_
FNDA:0,_ZNSt12_Destroy_auxILb1EE9__destroyIPiEEvT_S3_
FN:161,_ZNSt12_Destroy_auxILb1EE9__destroyIPdEEvT_S3_
FNDA:0,_ZNSt12_Destroy_auxILb1EE9__destroyIPdEEvT_S3_
FN:161,_ZNSt12_Destroy_auxILb1EE9__destroyIP8DataTypeEEvT_S4_
FNDA:0,_ZNSt12_Destroy_auxILb1EE9__destroyIP8DataTypeEEvT_S4_
FN:161,_ZNSt12_Destroy_auxILb1EE9__destroyIPmEEvT_S3_
FNDA:605,_ZNSt12_Destroy_auxILb1EE9__destroyIPmEEvT_S3_
FN:161,_ZNSt12_Destroy_auxILb1EE9__destroyIPNSt12regex_traitsIcE10_RegexMaskEEEvT_S6_
FNDA:2793,_ZNSt12_Destroy_auxILb1EE9__destroyIPNSt12regex_traitsIcE10_RegexMaskEEEvT_S6_
FN:161,_ZNSt12_Destroy_auxILb1EE9__destroyIPSt4pairIN9__gnu_cxx17__normal_iteratorIPKcSsEEiEEEvT_SA_
FNDA:2726,_ZNSt12_Destroy_auxILb1EE9__destroyIPSt4pairIN9__gnu_cxx17__normal_iteratorIPKcSsEEiEEEvT_SA_
FN:161,_ZNSt12_Destroy_auxILb1EE9__destroyIN9__gnu_cxx17__normal_iteratorIPSt9sub_matchINS3_IPKcSsEEESt6vectorIS8_SaIS8_EEEEEEvT_SE_
FNDA:20556,_ZNSt12_Destroy_auxILb1EE9__destroyIN9__gnu_cxx17__normal_iteratorIPSt9sub_matchINS3_IPKcSsEEESt6vectorIS8_SaIS8_EEEEEEvT_SE_
FN:161,_ZNSt12_Destroy_auxILb1EE9__destroyIPSt9sub_matchIN9__gnu_cxx17__normal_iteratorIPKcSsEEEEEvT_SA_
FNDA:10584,_ZNSt12_Destroy_auxILb1EE9__destroyIPSt9sub_matchIN9__gnu_cxx17__normal_iteratorIPKcSsEEEEEvT_SA_
FN:161,_ZNSt12_Destroy_auxILb1EE9__destroyIPcEEvT_S3_
FNDA:157987,_ZNSt12_Destroy_auxILb1EE9__destroyIPcEEvT_S3_
FN:161,_ZNSt12_Destroy_auxILb1EE9__destroyIPSt4pairIccEEEvT_S5_
FNDA:2793,_ZNSt12_Destroy_auxILb1EE9__destroyIPSt4pairIccEEEvT_S5_
FN:171,_ZSt8_DestroyIPSt4pairISsSsEEvT_S3_
FNDA:0,_ZSt8_DestroyIPSt4pairISsSsEEvT_S3_
FN:171,_ZSt8_DestroyIPmEvT_S1_
FNDA:605,_ZSt8_DestroyIPmEvT_S1_
FN:171,_ZSt8_DestroyIPSsEvT_S1_
FNDA:0,_ZSt8_DestroyIPSsEvT_S1_
FN:171,_ZSt8_DestroyIPSt6vectorIdSaIdEEEvT_S4_
FNDA:0,_ZSt8_DestroyIPSt6vectorIdSaIdEEEvT_S4_
FN:171,_ZSt8_DestroyIP8DataTypeEvT_S2_
FNDA:0,_ZSt8_DestroyIP8DataTypeEvT_S2_
FN:171,_ZSt8_DestroyIN9__gnu_cxx17__normal_iteratorIPSsSt6vectorISsSaISsEEEEEvT_S7_
FNDA:0,_ZSt8_DestroyIN9__gnu_cxx17__normal_iteratorIPSsSt6vectorISsSaISsEEEEEvT_S7_
FN:171,_ZSt8_DestroyIPdEvT_S1_
FNDA:0,_ZSt8_DestroyIPdEvT_S1_
FN:171,_ZSt8_DestroyIPSt6vectorISsSaISsEEEvT_S4_
FNDA:0,_ZSt8_DestroyIPSt6vectorISsSaISsEEEvT_S4_
FN:171,_ZSt8_DestroyIPiEvT_S1_
FNDA:0,_ZSt8_DestroyIPiEvT_S1_
FN:171,_ZSt8_DestroyIPNSt12regex_traitsIcE10_RegexMaskEEvT_S4_
FNDA:2793,_ZSt8_DestroyIPNSt12regex_traitsIcE10_RegexMaskEEvT_S4_
FN:171,_ZSt8_DestroyIPSt4pairIccEEvT_S3_
FNDA:2793,_ZSt8_DestroyIPSt4pairIccEEvT_S3_
FN:171,_ZSt8_DestroyIPcEvT_S1_
FNDA:157987,_ZSt8_DestroyIPcEvT_S1_
FN:171,_ZSt8_DestroyIPNSt8__detail6_StateIcEEEvT_S4_
FNDA:3054,_ZSt8_DestroyIPNSt8__detail6_StateIcEEEvT_S4_
FN:171,_ZSt8_DestroyIN9__gnu_cxx17__normal_iteratorIPSt9sub_matchINS1_IPKcSsEEESt6vectorIS6_SaIS6_EEEEEvT_SC_
FNDA:20556,_ZSt8_DestroyIN9__gnu_cxx17__normal_iteratorIPSt9sub_matchINS1_IPKcSsEEESt6vectorIS6_SaIS6_EEEEEvT_SC_
FN:171,_ZSt8_DestroyIPSt4pairIlSt6vectorISt9sub_matchIN9__gnu_cxx17__normal_iteratorIPKcSsEEESaIS8_EEEEvT_SD_
FNDA:0,_ZSt8_DestroyIPSt4pairIlSt6vectorISt9sub_matchIN9__gnu_cxx17__normal_iteratorIPKcSsEEESaIS8_EEEEvT_SD_
FN:171,_ZSt8_DestroyIPSt9sub_matchIN9__gnu_cxx17__normal_iteratorIPKcSsEEEEvT_S8_
FNDA:10584,_ZSt8_DestroyIPSt9sub_matchIN9__gnu_cxx17__normal_iteratorIPKcSsEEEEvT_S8_
FN:171,_ZSt8_DestroyIPSt4pairIN9__gnu_cxx17__normal_iteratorIPKcSsEEiEEvT_S8_
FNDA:2726,_ZSt8_DestroyIPSt4pairIN9__gnu_cxx17__normal_iteratorIPKcSsEEiEEvT_S8_
FNF:56
FNH:21
DA:108,0
DA:109,0
DA:108,0
DA:109,0
DA:108,0
DA:109,0
DA:108,0
DA:109,0
DA:108,8
DA:109,8
DA:108,0
DA:109,0
DA:108,0
DA:109,0
DA:108,4447
DA:109,4447
DA:108,0
DA:109,0
DA:108,44162
DA:109,44162
DA:108,22487
DA:109,22487
DA:108,0
DA:109,0
DA:108,0
DA:109,0
DA:108,0
DA:109,0
DA:108,0
DA:109,0
DA:108,0
DA:109,0
DA:135,0
DA:140,0
DA:142,0
DA:135,8704
DA:140,8704
DA:142,8704
DA:135,0
DA:140,0
DA:142,0
DA:135,0
DA:140,0
DA:142,0
DA:135,0
DA:140,0
DA:142,0
DA:135,0
DA:140,0
DA:142,0
DA:149,0
DA:151,0
DA:152,0
DA:153,0
DA:149,11758
DA:151,11758
DA:152,8704
DA:153,3054
DA:149,0
DA:151,0
DA:152,0
DA:153,0
DA:149,0
DA:151,0
DA:152,0
DA:153,0
DA:149,0
DA:151,0
DA:152,0
DA:153,0
DA:149,0
DA:151,0
DA:152,0
DA:153,0
DA:149,0
DA:151,0
DA:152,0
DA:153,0
DA:161,2793
DA:161,2793
DA:161,157987
DA:161,20556
DA:161,2726
DA:161,10584
DA:161,0
DA:161,0
DA:161,0
DA:161,605
DA:171,10584
DA:185,10584
DA:186,10584
DA:171,605
DA:185,605
DA:186,605
DA:171,0
DA:185,0
DA:186,0
DA:171,0
DA:185,0
DA:186,0
DA:171,0
DA:185,0
DA:186,0
DA:171,0
DA:185,0
DA:186,0
DA:171,0
DA:185,0
DA:186,0
DA:171,0
DA:185,0
DA:186,0
DA:171,0
DA:185,0
DA:186,0
DA:171,0
DA:185,0
DA:186,0
DA:171,2726
DA:185,2726
DA:186,2726
DA:171,0
DA:185,0
DA:186,0
DA:171,20556
DA:185,20556
DA:186,20556
DA:171,3054
DA:185,3054
DA:186,3054
DA:171,157987
DA:185,157987
DA:186,157987
DA:171,2793
DA:185,2793
DA:186,2793
DA:171,2793
DA:185,2793
DA:186,2793
LF:139
LH:46
end_of_record
SF:/usr/lib/gcc/x86_64-pc-msys/10.2.0/include/c++/bits/std_function.h
FN:87,_ZNSt9_Any_data9_M_accessEv
FNDA:3219,_ZNSt9_Any_data9_M_accessEv
FN:88,_ZNKSt9_Any_data9_M_accessEv
FNDA:11622,_ZNKSt9_Any_data9_M_accessEv
FN:92,_ZNSt9_Any_data9_M_accessIPNSt8__detail15_BracketMatcherISt12regex_traitsIcELb1ELb1EEEEERT_v
FNDA:0,_ZNSt9_Any_data9_M_accessIPNSt8__detail15_BracketMatcherISt12regex_traitsIcELb1ELb1EEEEERT_v
FN:92,_ZNSt9_Any_data9_M_accessIPNSt8__detail11_AnyMatcherISt12regex_traitsIcELb1ELb0ELb0EEEEERT_v
FNDA:0,_ZNSt9_Any_data9_M_accessIPNSt8__detail11_AnyMatcherISt12regex_traitsIcELb1ELb0ELb0EEEEERT_v
FN:92,_ZNSt9_Any_data9_M_accessIPNSt8__detail15_BracketMatcherISt12regex_traitsIcELb1ELb0EEEEERT_v
FNDA:0,_ZNSt9_Any_data9_M_accessIPNSt8__detail15_BracketMatcherISt12regex_traitsIcELb1ELb0EEEEERT_v
FN:92,_ZNSt9_Any_data9_M_accessIPNSt8__detail15_BracketMatcherISt12regex_traitsIcELb0ELb1EEEEERT_v
FNDA:0,_ZNSt9_Any_data9_M_accessIPNSt8__detail15_BracketMatcherISt12regex_traitsIcELb0ELb1EEEEERT_v
FN:92,_ZNSt9_Any_data9_M_accessIPNSt8__detail15_BracketMatcherISt12regex_traitsIcELb0ELb0EEEEERT_v
FNDA:3109,_ZNSt9_Any_data9_M_accessIPNSt8__detail15_BracketMatcherISt12regex_traitsIcELb0ELb0EEEEERT_v
FN:92,_ZNSt9_Any_data9_M_accessIPNSt8__detail12_CharMatcherISt12regex_traitsIcELb1ELb1EEEEERT_v
FNDA:0,_ZNSt9_Any_data9_M_accessIPNSt8__detail12_CharMatcherISt12regex_traitsIcELb1ELb1EEEEERT_v
FN:92,_ZNSt9_Any_data9_M_accessIPNSt8__detail12_CharMatcherISt12regex_traitsIcELb1ELb0EEEEERT_v
FNDA:0,_ZNSt9_Any_data9_M_accessIPNSt8__detail12_CharMatcherISt12regex_traitsIcELb1ELb0EEEEERT_v
FN:92,_ZNSt9_Any_data9_M_accessIPNSt8__detail12_CharMatcherISt12regex_traitsIcELb0ELb1EEEEERT_v
FNDA:0,_ZNSt9_Any_data9_M_accessIPNSt8__detail12_CharMatcherISt12regex_traitsIcELb0ELb1EEEEERT_v
FN:92,_ZNSt9_Any_data9_M_accessIPNSt8__detail12_CharMatcherISt12regex_traitsIcELb0ELb0EEEEERT_v
FNDA:0,_ZNSt9_Any_data9_M_accessIPNSt8__detail12_CharMatcherISt12regex_traitsIcELb0ELb0EEEEERT_v
FN:92,_ZNSt9_Any_data9_M_accessIPNSt8__detail11_AnyMatcherISt12regex_traitsIcELb1ELb1ELb1EEEEERT_v
FNDA:0,_ZNSt9_Any_data9_M_accessIPNSt8__detail11_AnyMatcherISt12regex_traitsIcELb1ELb1ELb1EEEEERT_v
FN:92,_ZNSt9_Any_data9_M_accessIPNSt8__detail11_AnyMatcherISt12regex_traitsIcELb1ELb1ELb0EEEEERT_v
FNDA:0,_ZNSt9_Any_data9_M_accessIPNSt8__detail11_AnyMatcherISt12regex_traitsIcELb1ELb1ELb0EEEEERT_v
FN:92,_ZNSt9_Any_data9_M_accessIPNSt8__detail11_AnyMatcherISt12regex_traitsIcELb1ELb0ELb1EEEEERT_v
FNDA:0,_ZNSt9_Any_data9_M_accessIPNSt8__detail11_AnyMatcherISt12regex_traitsIcELb1ELb0ELb1EEEEERT_v
FN:92,_ZNSt9_Any_data9_M_accessIPNSt8__detail11_AnyMatcherISt12regex_traitsIcELb0ELb1ELb1EEEEERT_v
FNDA:0,_ZNSt9_Any_data9_M_accessIPNSt8__detail11_AnyMatcherISt12regex_traitsIcELb0ELb1ELb1EEEEERT_v
FN:92,_ZNSt9_Any_data9_M_accessIPNSt8__detail11_AnyMatcherISt12regex_traitsIcELb0ELb1ELb0EEEEERT_v
FNDA:0,_ZNSt9_Any_data9_M_accessIPNSt8__detail11_AnyMatcherISt12regex_traitsIcELb0ELb1ELb0EEEEERT_v
FN:92,_ZNSt9_Any_data9_M_accessIPNSt8__detail11_AnyMatcherISt12regex_traitsIcELb0ELb0ELb1EEEEERT_v
FNDA:0,_ZNSt9_Any_data9_M_accessIPNSt8__detail11_AnyMatcherISt12regex_traitsIcELb0ELb0ELb1EEEEERT_v
FN:92,_ZNSt9_Any_data9_M_accessIPNSt8__detail11_AnyMatcherISt12regex_traitsIcELb0ELb0ELb0EEEEERT_v
FNDA:0,_ZNSt9_Any_data9_M_accessIPNSt8__detail11_AnyMatcherISt12regex_traitsIcELb0ELb0ELb0EEEEERT_v
FN:92,_ZNSt9_Any_data9_M_accessIPKSt9type_infoEERT_v
FNDA:0,_ZNSt9_Any_data9_M_accessIPKSt9type_infoEERT_v
FN:92,_ZNSt9_Any_data9_M_accessINSt8__detail11_AnyMatcherISt12regex_traitsIcELb0ELb0ELb0EEEEERT_v
FNDA:0,_ZNSt9_Any_data9_M_accessINSt8__detail11_AnyMatcherISt12regex_traitsIcELb0ELb0ELb0EEEEERT_v
FN:92,_ZNSt9_Any_data9_M_accessINSt8__detail12_CharMatcherISt12regex_traitsIcELb0ELb1EEEEERT_v
FNDA:0,_ZNSt9_Any_data9_M_accessINSt8__detail12_CharMatcherISt12regex_traitsIcELb0ELb1EEEEERT_v
FN:92,_ZNSt9_Any_data9_M_accessINSt8__detail11_AnyMatcherISt12regex_traitsIcELb1ELb1ELb1EEEEERT_v
FNDA:0,_ZNSt9_Any_data9_M_accessINSt8__detail11_AnyMatcherISt12regex_traitsIcELb1ELb1ELb1EEEEERT_v
FN:92,_ZNSt9_Any_data9_M_accessINSt8__detail12_CharMatcherISt12regex_traitsIcELb1ELb0EEEEERT_v
FNDA:0,_ZNSt9_Any_data9_M_accessINSt8__detail12_CharMatcherISt12regex_traitsIcELb1ELb0EEEEERT_v
FN:92,_ZNSt9_Any_data9_M_accessINSt8__detail11_AnyMatcherISt12regex_traitsIcELb1ELb1ELb0EEEEERT_v
FNDA:0,_ZNSt9_Any_data9_M_accessINSt8__detail11_AnyMatcherISt12regex_traitsIcELb1ELb1ELb0EEEEERT_v
FN:92,_ZNSt9_Any_data9_M_accessINSt8__detail12_CharMatcherISt12regex_traitsIcELb0ELb0EEEEERT_v
FNDA:38,_ZNSt9_Any_data9_M_accessINSt8__detail12_CharMatcherISt12regex_traitsIcELb0ELb0EEEEERT_v
FN:92,_ZNSt9_Any_data9_M_accessINSt8__detail11_AnyMatcherISt12regex_traitsIcELb1ELb0ELb1EEEEERT_v
FNDA:0,_ZNSt9_Any_data9_M_accessINSt8__detail11_AnyMatcherISt12regex_traitsIcELb1ELb0ELb1EEEEERT_v
FN:92,_ZNSt9_Any_data9_M_accessINSt8__detail12_CharMatcherISt12regex_traitsIcELb1ELb1EEEEERT_v
FNDA:0,_ZNSt9_Any_data9_M_accessINSt8__detail12_CharMatcherISt12regex_traitsIcELb1ELb1EEEEERT_v
FN:92,_ZNSt9_Any_data9_M_accessINSt8__detail11_AnyMatcherISt12regex_traitsIcELb1ELb0ELb0EEEEERT_v
FNDA:7,_ZNSt9_Any_data9_M_accessINSt8__detail11_AnyMatcherISt12regex_traitsIcELb1ELb0ELb0EEEEERT_v
FN:92,_ZNSt9_Any_data9_M_accessINSt8__detail11_AnyMatcherISt12regex_traitsIcELb0ELb1ELb1EEEEERT_v
FNDA:0,_ZNSt9_Any_data9_M_accessINSt8__detail11_AnyMatcherISt12regex_traitsIcELb0ELb1ELb1EEEEERT_v
FN:92,_ZNSt9_Any_data9_M_accessINSt8__detail11_AnyMatcherISt12regex_traitsIcELb0ELb1ELb0EEEEERT_v
FNDA:0,_ZNSt9_Any_data9_M_accessINSt8__detail11_AnyMatcherISt12regex_traitsIcELb0ELb1ELb0EEEEERT_v
FN:92,_ZNSt9_Any_data9_M_accessINSt8__detail11_AnyMatcherISt12regex_traitsIcELb0ELb0ELb1EEEEERT_v
FNDA:0,_ZNSt9_Any_data9_M_accessINSt8__detail11_AnyMatcherISt12regex_traitsIcELb0ELb0ELb1EEEEERT_v
FN:97,_ZNKSt9_Any_data9_M_accessIPKNSt8__detail15_BracketMatcherISt12regex_traitsIcELb1ELb0EEEEERKT_v
FNDA:0,_ZNKSt9_Any_data9_M_accessIPKNSt8__detail15_BracketMatcherISt12regex_traitsIcELb1ELb0EEEEERKT_v
FN:97,_ZNKSt9_Any_data9_M_accessINSt8__detail11_AnyMatcherISt12regex_traitsIcELb1ELb1ELb0EEEEERKT_v
FNDA:0,_ZNKSt9_Any_data9_M_accessINSt8__detail11_AnyMatcherISt12regex_traitsIcELb1ELb1ELb0EEEEERKT_v
FN:97,_ZNKSt9_Any_data9_M_accessINSt8__detail11_AnyMatcherISt12regex_traitsIcELb1ELb0ELb1EEEEERKT_v
FNDA:0,_ZNKSt9_Any_data9_M_accessINSt8__detail11_AnyMatcherISt12regex_traitsIcELb1ELb0ELb1EEEEERKT_v
FN:97,_ZNKSt9_Any_data9_M_accessINSt8__detail11_AnyMatcherISt12regex_traitsIcELb1ELb1ELb1EEEEERKT_v
FNDA:0,_ZNKSt9_Any_data9_M_accessINSt8__detail11_AnyMatcherISt12regex_traitsIcELb1ELb1ELb1EEEEERKT_v
FN:97,_ZNKSt9_Any_data9_M_accessIPKNSt8__detail15_BracketMatcherISt12regex_traitsIcELb1ELb1EEEEERKT_v
FNDA:0,_ZNKSt9_Any_data9_M_accessIPKNSt8__detail15_BracketMatcherISt12regex_traitsIcELb1ELb1EEEEERKT_v
FN:97,_ZNKSt9_Any_data9_M_accessINSt8__detail11_AnyMatcherISt12regex_traitsIcELb1ELb0ELb0EEEEERKT_v
FNDA:3239,_ZNKSt9_Any_data9_M_accessINSt8__detail11_AnyMatcherISt12regex_traitsIcELb1ELb0ELb0EEEEERKT_v
FN:97,_ZNKSt9_Any_data9_M_accessINSt8__detail11_AnyMatcherISt12regex_traitsIcELb0ELb1ELb1EEEEERKT_v
FNDA:0,_ZNKSt9_Any_data9_M_accessINSt8__detail11_AnyMatcherISt12regex_traitsIcELb0ELb1ELb1EEEEERKT_v
FN:97,_ZNKSt9_Any_data9_M_accessINSt8__detail11_AnyMatcherISt12regex_traitsIcELb0ELb1ELb0EEEEERKT_v
FNDA:0,_ZNKSt9_Any_data9_M_accessINSt8__detail11_AnyMatcherISt12regex_traitsIcELb0ELb1ELb0EEEEERKT_v
FN:97,_ZNKSt9_Any_data9_M_accessINSt8__detail11_AnyMatcherISt12regex_traitsIcELb0ELb0ELb1EEEEERKT_v
FNDA:0,_ZNKSt9_Any_data9_M_accessINSt8__detail11_AnyMatcherISt12regex_traitsIcELb0ELb0ELb1EEEEERKT_v
FN:97,_ZNKSt9_Any_data9_M_accessINSt8__detail11_AnyMatcherISt12regex_traitsIcELb0ELb0ELb0EEEEERKT_v
FNDA:0,_ZNKSt9_Any_data9_M_accessINSt8__detail11_AnyMatcherISt12regex_traitsIcELb0ELb0ELb0EEEEERKT_v
FN:97,_ZNKSt9_Any_data9_M_accessIPNSt8__detail15_BracketMatcherISt12regex_traitsIcELb1ELb1EEEEERKT_v
FNDA:0,_ZNKSt9_Any_data9_M_accessIPNSt8__detail15_BracketMatcherISt12regex_traitsIcELb1ELb1EEEEERKT_v
FN:97,_ZNKSt9_Any_data9_M_accessIPNSt8__detail15_BracketMatcherISt12regex_traitsIcELb1ELb0EEEEERKT_v
FNDA:0,_ZNKSt9_Any_data9_M_accessIPNSt8__detail15_BracketMatcherISt12regex_traitsIcELb1ELb0EEEEERKT_v
FN:97,_ZNKSt9_Any_data9_M_accessINSt8__detail12_CharMatcherISt12regex_traitsIcELb0ELb0EEEEERKT_v
FNDA:2571,_ZNKSt9_Any_data9_M_accessINSt8__detail12_CharMatcherISt12regex_traitsIcELb0ELb0EEEEERKT_v
FN:97,_ZNKSt9_Any_data9_M_accessINSt8__detail12_CharMatcherISt12regex_traitsIcELb1ELb1EEEEERKT_v
FNDA:0,_ZNKSt9_Any_data9_M_accessINSt8__detail12_CharMatcherISt12regex_traitsIcELb1ELb1EEEEERKT_v
FN:97,_ZNKSt9_Any_data9_M_accessIPKNSt8__detail15_BracketMatcherISt12regex_traitsIcELb0ELb1EEEEERKT_v
FNDA:0,_ZNKSt9_Any_data9_M_accessIPKNSt8__detail15_BracketMatcherISt12regex_traitsIcELb0ELb1EEEEERKT_v
FN:97,_ZNKSt9_Any_data9_M_accessINSt8__detail12_CharMatcherISt12regex_traitsIcELb0ELb1EEEEERKT_v
FNDA:0,_ZNKSt9_Any_data9_M_accessINSt8__detail12_CharMatcherISt12regex_traitsIcELb0ELb1EEEEERKT_v
FN:97,_ZNKSt9_Any_data9_M_accessIPNSt8__detail15_BracketMatcherISt12regex_traitsIcELb0ELb0EEEEERKT_v
FNDA:4875,_ZNKSt9_Any_data9_M_accessIPNSt8__detail15_BracketMatcherISt12regex_traitsIcELb0ELb0EEEEERKT_v
FN:97,_ZNKSt9_Any_data9_M_accessIPKNSt8__detail15_BracketMatcherISt12regex_traitsIcELb0ELb0EEEEERKT_v
FNDA:937,_ZNKSt9_Any_data9_M_accessIPKNSt8__detail15_BracketMatcherISt12regex_traitsIcELb0ELb0EEEEERKT_v
FN:97,_ZNKSt9_Any_data9_M_accessIPNSt8__detail15_BracketMatcherISt12regex_traitsIcELb0ELb1EEEEERKT_v
FNDA:0,_ZNKSt9_Any_data9_M_accessIPNSt8__detail15_BracketMatcherISt12regex_traitsIcELb0ELb1EEEEERKT_v
FN:97,_ZNKSt9_Any_data9_M_accessINSt8__detail12_CharMatcherISt12regex_traitsIcELb1ELb0EEEEERKT_v
FNDA:0,_ZNKSt9_Any_data9_M_accessINSt8__detail12_CharMatcherISt12regex_traitsIcELb1ELb0EEEEERKT_v
FN:136,_ZNSt14_Function_base13_Base_managerINSt8__detail15_BracketMatcherISt12regex_traitsIcELb1ELb0EEEE14_M_get_pointerERKSt9_Any_data
FNDA:0,_ZNSt14_Function_base13_Base_managerINSt8__detail15_BracketMatcherISt12regex_traitsIcELb1ELb0EEEE14_M_get_pointerERKSt9_Any_data
FN:136,_ZNSt14_Function_base13_Base_managerINSt8__detail11_AnyMatcherISt12regex_traitsIcELb0ELb0ELb1EEEE14_M_get_pointerERKSt9_Any_data
FNDA:0,_ZNSt14_Function_base13_Base_managerINSt8__detail11_AnyMatcherISt12regex_traitsIcELb0ELb0ELb1EEEE14_M_get_pointerERKSt9_Any_data
FN:136,_ZNSt14_Function_base13_Base_managerINSt8__detail11_AnyMatcherISt12regex_traitsIcELb1ELb1ELb1EEEE14_M_get_pointerERKSt9_Any_data
FNDA:0,_ZNSt14_Function_base13_Base_managerINSt8__detail11_AnyMatcherISt12regex_traitsIcELb1ELb1ELb1EEEE14_M_get_pointerERKSt9_Any_data
FN:136,_ZNSt14_Function_base13_Base_managerINSt8__detail15_BracketMatcherISt12regex_traitsIcELb1ELb1EEEE14_M_get_pointerERKSt9_Any_data
FNDA:0,_ZNSt14_Function_base13_Base_managerINSt8__detail15_BracketMatcherISt12regex_traitsIcELb1ELb1EEEE14_M_get_pointerERKSt9_Any_data
FN:136,_ZNSt14_Function_base13_Base_managerINSt8__detail12_CharMatcherISt12regex_traitsIcELb0ELb0EEEE14_M_get_pointerERKSt9_Any_data
FNDA:2532,_ZNSt14_Function_base13_Base_managerINSt8__detail12_CharMatcherISt12regex_traitsIcELb0ELb0EEEE14_M_get_pointerERKSt9_Any_data
FN:136,_ZNSt14_Function_base13_Base_managerINSt8__detail12_CharMatcherISt12regex_traitsIcELb0ELb1EEEE14_M_get_pointerERKSt9_Any_data
FNDA:0,_ZNSt14_Function_base13_Base_managerINSt8__detail12_CharMatcherISt12regex_traitsIcELb0ELb1EEEE14_M_get_pointerERKSt9_Any_data
FN:136,_ZNSt14_Function_base13_Base_managerINSt8__detail11_AnyMatcherISt12regex_traitsIcELb0ELb1ELb1EEEE14_M_get_pointerERKSt9_Any_data
FNDA:0,_ZNSt14_Function_base13_Base_managerINSt8__detail11_AnyMatcherISt12regex_traitsIcELb0ELb1ELb1EEEE14_M_get_pointerERKSt9_Any_data
FN:136,_ZNSt14_Function_base13_Base_managerINSt8__detail11_AnyMatcherISt12regex_traitsIcELb0ELb0ELb0EEEE14_M_get_pointerERKSt9_Any_data
FNDA:0,_ZNSt14_Function_base13_Base_managerINSt8__detail11_AnyMatcherISt12regex_traitsIcELb0ELb0ELb0EEEE14_M_get_pointerERKSt9_Any_data
FN:136,_ZNSt14_Function_base13_Base_managerINSt8__detail12_CharMatcherISt12regex_traitsIcELb1ELb0EEEE14_M_get_pointerERKSt9_Any_data
FNDA:0,_ZNSt14_Function_base13_Base_managerINSt8__detail12_CharMatcherISt12regex_traitsIcELb1ELb0EEEE14_M_get_pointerERKSt9_Any_data
FN:136,_ZNSt14_Function_base13_Base_managerINSt8__detail15_BracketMatcherISt12regex_traitsIcELb0ELb1EEEE14_M_get_pointerERKSt9_Any_data
FNDA:0,_ZNSt14_Function_base13_Base_managerINSt8__detail15_BracketMatcherISt12regex_traitsIcELb0ELb1EEEE14_M_get_pointerERKSt9_Any_data
FN:136,_ZNSt14_Function_base13_Base_managerINSt8__detail12_CharMatcherISt12regex_traitsIcELb1ELb1EEEE14_M_get_pointerERKSt9_Any_data
FNDA:0,_ZNSt14_Function_base13_Base_managerINSt8__detail12_CharMatcherISt12regex_traitsIcELb1ELb1EEEE14_M_get_pointerERKSt9_Any_data
FN:136,_ZNSt14_Function_base13_Base_managerINSt8__detail15_BracketMatcherISt12regex_traitsIcELb0ELb0EEEE14_M_get_pointerERKSt9_Any_data
FNDA:4875,_ZNSt14_Function_base13_Base_managerINSt8__detail15_BracketMatcherISt12regex_traitsIcELb0ELb0EEEE14_M_get_pointerERKSt9_Any_data
FN:136,_ZNSt14_Function_base13_Base_managerINSt8__detail11_AnyMatcherISt12regex_traitsIcELb1ELb1ELb0EEEE14_M_get_pointerERKSt9_Any_data
FNDA:0,_ZNSt14_Function_base13_Base_managerINSt8__detail11_AnyMatcherISt12regex_traitsIcELb1ELb1ELb0EEEE14_M_get_pointerERKSt9_Any_data
FN:136,_ZNSt14_Function_base13_Base_managerINSt8__detail11_AnyMatcherISt12regex_traitsIcELb1ELb0ELb0EEEE14_M_get_pointerERKSt9_Any_data
FNDA:3232,_ZNSt14_Function_base13_Base_managerINSt8__detail11_AnyMatcherISt12regex_traitsIcELb1ELb0ELb0EEEE14_M_get_pointerERKSt9_Any_data
FN:136,_ZNSt14_Function_base13_Base_managerINSt8__detail11_AnyMatcherISt12regex_traitsIcELb0ELb1ELb0EEEE14_M_get_pointerERKSt9_Any_data
FNDA:0,_ZNSt14_Function_base13_Base_managerINSt8__detail11_AnyMatcherISt12regex_traitsIcELb0ELb1ELb0EEEE14_M_get_pointerERKSt9_Any_data
FN:136,_ZNSt14_Function_base13_Base_managerINSt8__detail11_AnyMatcherISt12regex_traitsIcELb1ELb0ELb1EEEE14_M_get_pointerERKSt9_Any_data
FNDA:0,_ZNSt14_Function_base13_Base_managerINSt8__detail11_AnyMatcherISt12regex_traitsIcELb1ELb0ELb1EEEE14_M_get_pointerERKSt9_Any_data
FN:150,_ZNSt14_Function_base13_Base_managerINSt8__detail11_AnyMatcherISt12regex_traitsIcELb1ELb1ELb1EEEE8_M_cloneERSt9_Any_dataRKS7_St17integral_constantIbLb1EE
FNDA:0,_ZNSt14_Function_base13_Base_managerINSt8__detail11_AnyMatcherISt12regex_traitsIcELb1ELb1ELb1EEEE8_M_cloneERSt9_Any_dataRKS7_St17integral_constantIbLb1EE
FN:150,_ZNSt14_Function_base13_Base_managerINSt8__detail11_AnyMatcherISt12regex_traitsIcELb0ELb0ELb0EEEE8_M_cloneERSt9_Any_dataRKS7_St17integral_constantIbLb1EE
FNDA:0,_ZNSt14_Function_base13_Base_managerINSt8__detail11_AnyMatcherISt12regex_traitsIcELb0ELb0ELb0EEEE8_M_cloneERSt9_Any_dataRKS7_St17integral_constantIbLb1EE
FN:150,_ZNSt14_Function_base13_Base_managerINSt8__detail11_AnyMatcherISt12regex_traitsIcELb1ELb1ELb0EEEE8_M_cloneERSt9_Any_dataRKS7_St17integral_constantIbLb1EE
FNDA:0,_ZNSt14_Function_base13_Base_managerINSt8__detail11_AnyMatcherISt12regex_traitsIcELb1ELb1ELb0EEEE8_M_cloneERSt9_Any_dataRKS7_St17integral_constantIbLb1EE
FN:150,_ZNSt14_Function_base13_Base_managerINSt8__detail11_AnyMatcherISt12regex_traitsIcELb1ELb0ELb1EEEE8_M_cloneERSt9_Any_dataRKS7_St17integral_constantIbLb1EE
FNDA:0,_ZNSt14_Function_base13_Base_managerINSt8__detail11_AnyMatcherISt12regex_traitsIcELb1ELb0ELb1EEEE8_M_cloneERSt9_Any_dataRKS7_St17integral_constantIbLb1EE
FN:150,_ZNSt14_Function_base13_Base_managerINSt8__detail12_CharMatcherISt12regex_traitsIcELb0ELb0EEEE8_M_cloneERSt9_Any_dataRKS7_St17integral_constantIbLb1EE
FNDA:39,_ZNSt14_Function_base13_Base_managerINSt8__detail12_CharMatcherISt12regex_traitsIcELb0ELb0EEEE8_M_cloneERSt9_Any_dataRKS7_St17integral_constantIbLb1EE
FN:150,_ZNSt14_Function_base13_Base_managerINSt8__detail11_AnyMatcherISt12regex_traitsIcELb1ELb0ELb0EEEE8_M_cloneERSt9_Any_dataRKS7_St17integral_constantIbLb1EE
FNDA:7,_ZNSt14_Function_base13_Base_managerINSt8__detail11_AnyMatcherISt12regex_traitsIcELb1ELb0ELb0EEEE8_M_cloneERSt9_Any_dataRKS7_St17integral_constantIbLb1EE
FN:150,_ZNSt14_Function_base13_Base_managerINSt8__detail12_CharMatcherISt12regex_traitsIcELb0ELb1EEEE8_M_cloneERSt9_Any_dataRKS7_St17integral_constantIbLb1EE
FNDA:0,_ZNSt14_Function_base13_Base_managerINSt8__detail12_CharMatcherISt12regex_traitsIcELb0ELb1EEEE8_M_cloneERSt9_Any_dataRKS7_St17integral_constantIbLb1EE
FN:150,_ZNSt14_Function_base13_Base_managerINSt8__detail11_AnyMatcherISt12regex_traitsIcELb0ELb1ELb1EEEE8_M_cloneERSt9_Any_dataRKS7_St17integral_constantIbLb1EE
FNDA:0,_ZNSt14_Function_base13_Base_managerINSt8__detail11_AnyMatcherISt12regex_traitsIcELb0ELb1ELb1EEEE8_M_cloneERSt9_Any_dataRKS7_St17integral_constantIbLb1EE
FN:150,_ZNSt14_Function_base13_Base_managerINSt8__detail11_AnyMatcherISt12regex_traitsIcELb0ELb1ELb0EEEE8_M_cloneERSt9_Any_dataRKS7_St17integral_constantIbLb1EE
FNDA:0,_ZNSt14_Function_base13_Base_managerINSt8__detail11_AnyMatcherISt12regex_traitsIcELb0ELb1ELb0EEEE8_M_cloneERSt9_Any_dataRKS7_St17integral_constantIbLb1EE
FN:150,_ZNSt14_Function_base13_Base_managerINSt8__detail12_CharMatcherISt12regex_traitsIcELb1ELb0EEEE8_M_cloneERSt9_Any_dataRKS7_St17integral_constantIbLb1EE
FNDA:0,_ZNSt14_Function_base13_Base_managerINSt8__detail12_CharMatcherISt12regex_traitsIcELb1ELb0EEEE8_M_cloneERSt9_Any_dataRKS7_St17integral_constantIbLb1EE
FN:150,_ZNSt14_Function_base13_Base_managerINSt8__detail11_AnyMatcherISt12regex_traitsIcELb0ELb0ELb1EEEE8_M_cloneERSt9_Any_dataRKS7_St17integral_constantIbLb1EE
FNDA:0,_ZNSt14_Function_base13_Base_managerINSt8__detail11_AnyMatcherISt12regex_traitsIcELb0ELb0ELb1EEEE8_M_cloneERSt9_Any_dataRKS7_St17integral_constantIbLb1EE
FN:150,_ZNSt14_Function_base13_Base_managerINSt8__detail12_CharMatcherISt12regex_traitsIcELb1ELb1EEEE8_M_cloneERSt9_Any_dataRKS7_St17integral_constantIbLb1EE
FNDA:0,_ZNSt14_Function_base13_Base_managerINSt8__detail12_CharMatcherISt12regex_traitsIcELb1ELb1EEEE8_M_cloneERSt9_Any_dataRKS7_St17integral_constantIbLb1EE
FN:158,_ZNSt14_Function_base13_Base_managerINSt8__detail15_BracketMatcherISt12regex_traitsIcELb1ELb0EEEE8_M_cloneERSt9_Any_dataRKS7_St17integral_constantIbLb0EE
FNDA:0,_ZNSt14_Function_base13_Base_managerINSt8__detail15_BracketMatcherISt12regex_traitsIcELb1ELb0EEEE8_M_cloneERSt9_Any_dataRKS7_St17integral_constantIbLb0EE
FN:158,_ZNSt14_Function_base13_Base_managerINSt8__detail15_BracketMatcherISt12regex_traitsIcELb0ELb1EEEE8_M_cloneERSt9_Any_dataRKS7_St17integral_constantIbLb0EE
FNDA:0,_ZNSt14_Function_base13_Base_managerINSt8__detail15_BracketMatcherISt12regex_traitsIcELb0ELb1EEEE8_M_cloneERSt9_Any_dataRKS7_St17integral_constantIbLb0EE
FN:158,_ZNSt14_Function_base13_Base_managerINSt8__detail15_BracketMatcherISt12regex_traitsIcELb0ELb0EEEE8_M_cloneERSt9_Any_dataRKS7_St17integral_constantIbLb0EE
FNDA:937,_ZNSt14_Function_base13_Base_managerINSt8__detail15_BracketMatcherISt12regex_traitsIcELb0ELb0EEEE8_M_cloneERSt9_Any_dataRKS7_St17integral_constantIbLb0EE
FN:158,_ZNSt14_Function_base13_Base_managerINSt8__detail15_BracketMatcherISt12regex_traitsIcELb1ELb1EEEE8_M_cloneERSt9_Any_dataRKS7_St17integral_constantIbLb0EE
FNDA:0,_ZNSt14_Function_base13_Base_managerINSt8__detail15_BracketMatcherISt12regex_traitsIcELb1ELb1EEEE8_M_cloneERSt9_Any_dataRKS7_St17integral_constantIbLb0EE
FN:167,_ZNSt14_Function_base13_Base_managerINSt8__detail12_CharMatcherISt12regex_traitsIcELb0ELb1EEEE10_M_destroyERSt9_Any_dataSt17integral_constantIbLb1EE
FNDA:0,_ZNSt14_Function_base13_Base_managerINSt8__detail12_CharMatcherISt12regex_traitsIcELb0ELb1EEEE10_M_destroyERSt9_Any_dataSt17integral_constantIbLb1EE
FN:167,_ZNSt14_Function_base13_Base_managerINSt8__detail11_AnyMatcherISt12regex_traitsIcELb0ELb1ELb0EEEE10_M_destroyERSt9_Any_dataSt17integral_constantIbLb1EE
FNDA:0,_ZNSt14_Function_base13_Base_managerINSt8__detail11_AnyMatcherISt12regex_traitsIcELb0ELb1ELb0EEEE10_M_destroyERSt9_Any_dataSt17integral_constantIbLb1EE
FN:167,_ZNSt14_Function_base13_Base_managerINSt8__detail11_AnyMatcherISt12regex_traitsIcELb0ELb0ELb1EEEE10_M_destroyERSt9_Any_dataSt17integral_constantIbLb1EE
FNDA:0,_ZNSt14_Function_base13_Base_managerINSt8__detail11_AnyMatcherISt12regex_traitsIcELb0ELb0ELb1EEEE10_M_destroyERSt9_Any_dataSt17integral_constantIbLb1EE
FN:167,_ZNSt14_Function_base13_Base_managerINSt8__detail11_AnyMatcherISt12regex_traitsIcELb0ELb0ELb0EEEE10_M_destroyERSt9_Any_dataSt17integral_constantIbLb1EE
FNDA:0,_ZNSt14_Function_base13_Base_managerINSt8__detail11_AnyMatcherISt12regex_traitsIcELb0ELb0ELb0EEEE10_M_destroyERSt9_Any_dataSt17integral_constantIbLb1EE
FN:167,_ZNSt14_Function_base13_Base_managerINSt8__detail11_AnyMatcherISt12regex_traitsIcELb0ELb1ELb1EEEE10_M_destroyERSt9_Any_dataSt17integral_constantIbLb1EE
FNDA:0,_ZNSt14_Function_base13_Base_managerINSt8__detail11_AnyMatcherISt12regex_traitsIcELb0ELb1ELb1EEEE10_M_destroyERSt9_Any_dataSt17integral_constantIbLb1EE
FN:167,_ZNSt14_Function_base13_Base_managerINSt8__detail11_AnyMatcherISt12regex_traitsIcELb1ELb0ELb0EEEE10_M_destroyERSt9_Any_dataSt17integral_constantIbLb1EE
FNDA:7,_ZNSt14_Function_base13_Base_managerINSt8__detail11_AnyMatcherISt12regex_traitsIcELb1ELb0ELb0EEEE10_M_destroyERSt9_Any_dataSt17integral_constantIbLb1EE
FN:167,_ZNSt14_Function_base13_Base_managerINSt8__detail11_AnyMatcherISt12regex_traitsIcELb1ELb0ELb1EEEE10_M_destroyERSt9_Any_dataSt17integral_constantIbLb1EE
FNDA:0,_ZNSt14_Function_base13_Base_managerINSt8__detail11_AnyMatcherISt12regex_traitsIcELb1ELb0ELb1EEEE10_M_destroyERSt9_Any_dataSt17integral_constantIbLb1EE
FN:167,_ZNSt14_Function_base13_Base_managerINSt8__detail11_AnyMatcherISt12regex_traitsIcELb1ELb1ELb0EEEE10_M_destroyERSt9_Any_dataSt17integral_constantIbLb1EE
FNDA:0,_ZNSt14_Function_base13_Base_managerINSt8__detail11_AnyMatcherISt12regex_traitsIcELb1ELb1ELb0EEEE10_M_destroyERSt9_Any_dataSt17integral_constantIbLb1EE
FN:167,_ZNSt14_Function_base13_Base_managerINSt8__detail11_AnyMatcherISt12regex_traitsIcELb1ELb1ELb1EEEE10_M_destroyERSt9_Any_dataSt17integral_constantIbLb1EE
FNDA:0,_ZNSt14_Function_base13_Base_managerINSt8__detail11_AnyMatcherISt12regex_traitsIcELb1ELb1ELb1EEEE10_M_destroyERSt9_Any_dataSt17integral_constantIbLb1EE
FN:167,_ZNSt14_Function_base13_Base_managerINSt8__detail12_CharMatcherISt12regex_traitsIcELb0ELb0EEEE10_M_destroyERSt9_Any_dataSt17integral_constantIbLb1EE
FNDA:38,_ZNSt14_Function_base13_Base_managerINSt8__detail12_CharMatcherISt12regex_traitsIcELb0ELb0EEEE10_M_destroyERSt9_Any_dataSt17integral_constantIbLb1EE
FN:167,_ZNSt14_Function_base13_Base_managerINSt8__detail12_CharMatcherISt12regex_traitsIcELb1ELb0EEEE10_M_destroyERSt9_Any_dataSt17integral_constantIbLb1EE
FNDA:0,_ZNSt14_Function_base13_Base_managerINSt8__detail12_CharMatcherISt12regex_traitsIcELb1ELb0EEEE10_M_destroyERSt9_Any_dataSt17integral_constantIbLb1EE
FN:167,_ZNSt14_Function_base13_Base_managerINSt8__detail12_CharMatcherISt12regex_traitsIcELb1ELb1EEEE10_M_destroyERSt9_Any_dataSt17integral_constantIbLb1EE
FNDA:0,_ZNSt14_Function_base13_Base_managerINSt8__detail12_CharMatcherISt12regex_traitsIcELb1ELb1EEEE10_M_destroyERSt9_Any_dataSt17integral_constantIbLb1EE
FN:174,_ZNSt14_Function_base13_Base_managerINSt8__detail15_BracketMatcherISt12regex_traitsIcELb1ELb1EEEE10_M_destroyERSt9_Any_dataSt17integral_constantIbLb0EE
FNDA:0,_ZNSt14_Function_base13_Base_managerINSt8__detail15_BracketMatcherISt12regex_traitsIcELb1ELb1EEEE10_M_destroyERSt9_Any_dataSt17integral_constantIbLb0EE
FN:174,_ZNSt14_Function_base13_Base_managerINSt8__detail15_BracketMatcherISt12regex_traitsIcELb0ELb0EEEE10_M_destroyERSt9_Any_dataSt17integral_constantIbLb0EE
FNDA:1551,_ZNSt14_Function_base13_Base_managerINSt8__detail15_BracketMatcherISt12regex_traitsIcELb0ELb0EEEE10_M_destroyERSt9_Any_dataSt17integral_constantIbLb0EE
FN:174,_ZNSt14_Function_base13_Base_managerINSt8__detail15_BracketMatcherISt12regex_traitsIcELb0ELb1EEEE10_M_destroyERSt9_Any_dataSt17integral_constantIbLb0EE
FNDA:0,_ZNSt14_Function_base13_Base_managerINSt8__detail15_BracketMatcherISt12regex_traitsIcELb0ELb1EEEE10_M_destroyERSt9_Any_dataSt17integral_constantIbLb0EE
FN:174,_ZNSt14_Function_base13_Base_managerINSt8__detail15_BracketMatcherISt12regex_traitsIcELb1ELb0EEEE10_M_destroyERSt9_Any_dataSt17integral_constantIbLb0EE
FNDA:0,_ZNSt14_Function_base13_Base_managerINSt8__detail15_BracketMatcherISt12regex_traitsIcELb1ELb0EEEE10_M_destroyERSt9_Any_dataSt17integral_constantIbLb0EE
FN:181,_ZNSt14_Function_base13_Base_managerINSt8__detail12_CharMatcherISt12regex_traitsIcELb1ELb1EEEE10_M_managerERSt9_Any_dataRKS7_St18_Manager_operation
FNDA:0,_ZNSt14_Function_base13_Base_managerINSt8__detail12_CharMatcherISt12regex_traitsIcELb1ELb1EEEE10_M_managerERSt9_Any_dataRKS7_St18_Manager_operation
FN:181,_ZNSt14_Function_base13_Base_managerINSt8__detail11_AnyMatcherISt12regex_traitsIcELb0ELb1ELb0EEEE10_M_managerERSt9_Any_dataRKS7_St18_Manager_operation
FNDA:0,_ZNSt14_Function_base13_Base_managerINSt8__detail11_AnyMatcherISt12regex_traitsIcELb0ELb1ELb0EEEE10_M_managerERSt9_Any_dataRKS7_St18_Manager_operation
FN:181,_ZNSt14_Function_base13_Base_managerINSt8__detail11_AnyMatcherISt12regex_traitsIcELb0ELb0ELb1EEEE10_M_managerERSt9_Any_dataRKS7_St18_Manager_operation
FNDA:0,_ZNSt14_Function_base13_Base_managerINSt8__detail11_AnyMatcherISt12regex_traitsIcELb0ELb0ELb1EEEE10_M_managerERSt9_Any_dataRKS7_St18_Manager_operation
FN:181,_ZNSt14_Function_base13_Base_managerINSt8__detail11_AnyMatcherISt12regex_traitsIcELb0ELb1ELb1EEEE10_M_managerERSt9_Any_dataRKS7_St18_Manager_operation
FNDA:0,_ZNSt14_Function_base13_Base_managerINSt8__detail11_AnyMatcherISt12regex_traitsIcELb0ELb1ELb1EEEE10_M_managerERSt9_Any_dataRKS7_St18_Manager_operation
FN:181,_ZNSt14_Function_base13_Base_managerINSt8__detail11_AnyMatcherISt12regex_traitsIcELb0ELb0ELb0EEEE10_M_managerERSt9_Any_dataRKS7_St18_Manager_operation
FNDA:0,_ZNSt14_Function_base13_Base_managerINSt8__detail11_AnyMatcherISt12regex_traitsIcELb0ELb0ELb0EEEE10_M_managerERSt9_Any_dataRKS7_St18_Manager_operation
FN:181,_ZNSt14_Function_base13_Base_managerINSt8__detail11_AnyMatcherISt12regex_traitsIcELb1ELb0ELb0EEEE10_M_managerERSt9_Any_dataRKS7_St18_Manager_operation
FNDA:14,_ZNSt14_Function_base13_Base_managerINSt8__detail11_AnyMatcherISt12regex_traitsIcELb1ELb0ELb0EEEE10_M_managerERSt9_Any_dataRKS7_St18_Manager_operation
FN:181,_ZNSt14_Function_base13_Base_managerINSt8__detail15_BracketMatcherISt12regex_traitsIcELb0ELb0EEEE10_M_managerERSt9_Any_dataRKS7_St18_Manager_operation
FNDA:2488,_ZNSt14_Function_base13_Base_managerINSt8__detail15_BracketMatcherISt12regex_traitsIcELb0ELb0EEEE10_M_managerERSt9_Any_dataRKS7_St18_Manager_operation
FN:181,_ZNSt14_Function_base13_Base_managerINSt8__detail15_BracketMatcherISt12regex_traitsIcELb0ELb1EEEE10_M_managerERSt9_Any_dataRKS7_St18_Manager_operation
FNDA:0,_ZNSt14_Function_base13_Base_managerINSt8__detail15_BracketMatcherISt12regex_traitsIcELb0ELb1EEEE10_M_managerERSt9_Any_dataRKS7_St18_Manager_operation
FN:181,_ZNSt14_Function_base13_Base_managerINSt8__detail12_CharMatcherISt12regex_traitsIcELb1ELb0EEEE10_M_managerERSt9_Any_dataRKS7_St18_Manager_operation
FNDA:0,_ZNSt14_Function_base13_Base_managerINSt8__detail12_CharMatcherISt12regex_traitsIcELb1ELb0EEEE10_M_managerERSt9_Any_dataRKS7_St18_Manager_operation
FN:181,_ZNSt14_Function_base13_Base_managerINSt8__detail12_CharMatcherISt12regex_traitsIcELb0ELb1EEEE10_M_managerERSt9_Any_dataRKS7_St18_Manager_operation
FNDA:0,_ZNSt14_Function_base13_Base_managerINSt8__detail12_CharMatcherISt12regex_traitsIcELb0ELb1EEEE10_M_managerERSt9_Any_dataRKS7_St18_Manager_operation
FN:181,_ZNSt14_Function_base13_Base_managerINSt8__detail12_CharMatcherISt12regex_traitsIcELb0ELb0EEEE10_M_managerERSt9_Any_dataRKS7_St18_Manager_operation
FNDA:77,_ZNSt14_Function_base13_Base_managerINSt8__detail12_CharMatcherISt12regex_traitsIcELb0ELb0EEEE10_M_managerERSt9_Any_dataRKS7_St18_Manager_operation
FN:181,_ZNSt14_Function_base13_Base_managerINSt8__detail15_BracketMatcherISt12regex_traitsIcELb1ELb0EEEE10_M_managerERSt9_Any_dataRKS7_St18_Manager_operation
FNDA:0,_ZNSt14_Function_base13_Base_managerINSt8__detail15_BracketMatcherISt12regex_traitsIcELb1ELb0EEEE10_M_managerERSt9_Any_dataRKS7_St18_Manager_operation
FN:181,_ZNSt14_Function_base13_Base_managerINSt8__detail11_AnyMatcherISt12regex_traitsIcELb1ELb1ELb1EEEE10_M_managerERSt9_Any_dataRKS7_St18_Manager_operation
FNDA:0,_ZNSt14_Function_base13_Base_managerINSt8__detail11_AnyMatcherISt12regex_traitsIcELb1ELb1ELb1EEEE10_M_managerERSt9_Any_dataRKS7_St18_Manager_operation
FN:181,_ZNSt14_Function_base13_Base_managerINSt8__detail15_BracketMatcherISt12regex_traitsIcELb1ELb1EEEE10_M_managerERSt9_Any_dataRKS7_St18_Manager_operation
FNDA:0,_ZNSt14_Function_base13_Base_managerINSt8__detail15_BracketMatcherISt12regex_traitsIcELb1ELb1EEEE10_M_managerERSt9_Any_dataRKS7_St18_Manager_operation
FN:181,_ZNSt14_Function_base13_Base_managerINSt8__detail11_AnyMatcherISt12regex_traitsIcELb1ELb0ELb1EEEE10_M_managerERSt9_Any_dataRKS7_St18_Manager_operation
FNDA:0,_ZNSt14_Function_base13_Base_managerINSt8__detail11_AnyMatcherISt12regex_traitsIcELb1ELb0ELb1EEEE10_M_managerERSt9_Any_dataRKS7_St18_Manager_operation
FN:181,_ZNSt14_Function_base13_Base_managerINSt8__detail11_AnyMatcherISt12regex_traitsIcELb1ELb1ELb0EEEE10_M_managerERSt9_Any_dataRKS7_St18_Manager_operation
FNDA:0,_ZNSt14_Function_base13_Base_managerINSt8__detail11_AnyMatcherISt12regex_traitsIcELb1ELb1ELb0EEEE10_M_managerERSt9_Any_dataRKS7_St18_Manager_operation
FN:207,_ZNSt14_Function_base13_Base_managerINSt8__detail11_AnyMatcherISt12regex_traitsIcELb1ELb0ELb0EEEE15_M_init_functorERSt9_Any_dataOS5_
FNDA:4,_ZNSt14_Function_base13_Base_managerINSt8__detail11_AnyMatcherISt12regex_traitsIcELb1ELb0ELb0EEEE15_M_init_functorERSt9_Any_dataOS5_
FN:207,_ZNSt14_Function_base13_Base_managerINSt8__detail11_AnyMatcherISt12regex_traitsIcELb0ELb1ELb0EEEE15_M_init_functorERSt9_Any_dataOS5_
FNDA:0,_ZNSt14_Function_base13_Base_managerINSt8__detail11_AnyMatcherISt12regex_traitsIcELb0ELb1ELb0EEEE15_M_init_functorERSt9_Any_dataOS5_
FN:207,_ZNSt14_Function_base13_Base_managerINSt8__detail12_CharMatcherISt12regex_traitsIcELb0ELb0EEEE15_M_init_functorERSt9_Any_dataOS5_
FNDA:15,_ZNSt14_Function_base13_Base_managerINSt8__detail12_CharMatcherISt12regex_traitsIcELb0ELb0EEEE15_M_init_functorERSt9_Any_dataOS5_
FN:207,_ZNSt14_Function_base13_Base_managerINSt8__detail15_BracketMatcherISt12regex_traitsIcELb1ELb1EEEE15_M_init_functorERSt9_Any_dataOS5_
FNDA:0,_ZNSt14_Function_base13_Base_managerINSt8__detail15_BracketMatcherISt12regex_traitsIcELb1ELb1EEEE15_M_init_functorERSt9_Any_dataOS5_
FN:207,_ZNSt14_Function_base13_Base_managerINSt8__detail15_BracketMatcherISt12regex_traitsIcELb1ELb0EEEE15_M_init_functorERSt9_Any_dataOS5_
FNDA:0,_ZNSt14_Function_base13_Base_managerINSt8__detail15_BracketMatcherISt12regex_traitsIcELb1ELb0EEEE15_M_init_functorERSt9_Any_dataOS5_
FN:207,_ZNSt14_Function_base13_Base_managerINSt8__detail15_BracketMatcherISt12regex_traitsIcELb0ELb0EEEE15_M_init_functorERSt9_Any_dataOS5_
FNDA:621,_ZNSt14_Function_base13_Base_managerINSt8__detail15_BracketMatcherISt12regex_traitsIcELb0ELb0EEEE15_M_init_functorERSt9_Any_dataOS5_
FN:207,_ZNSt14_Function_base13_Base_managerINSt8__detail11_AnyMatcherISt12regex_traitsIcELb0ELb0ELb1EEEE15_M_init_functorERSt9_Any_dataOS5_
FNDA:0,_ZNSt14_Function_base13_Base_managerINSt8__detail11_AnyMatcherISt12regex_traitsIcELb0ELb0ELb1EEEE15_M_init_functorERSt9_Any_dataOS5_
FN:207,_ZNSt14_Function_base13_Base_managerINSt8__detail11_AnyMatcherISt12regex_traitsIcELb1ELb0ELb1EEEE15_M_init_functorERSt9_Any_dataOS5_
FNDA:0,_ZNSt14_Function_base13_Base_managerINSt8__detail11_AnyMatcherISt12regex_traitsIcELb1ELb0ELb1EEEE15_M_init_functorERSt9_Any_dataOS5_
FN:207,_ZNSt14_Function_base13_Base_managerINSt8__detail11_AnyMatcherISt12regex_traitsIcELb0ELb1ELb1EEEE15_M_init_functorERSt9_Any_dataOS5_
FNDA:0,_ZNSt14_Function_base13_Base_managerINSt8__detail11_AnyMatcherISt12regex_traitsIcELb0ELb1ELb1EEEE15_M_init_functorERSt9_Any_dataOS5_
FN:207,_ZNSt14_Function_base13_Base_managerINSt8__detail11_AnyMatcherISt12regex_traitsIcELb0ELb0ELb0EEEE15_M_init_functorERSt9_Any_dataOS5_
FNDA:0,_ZNSt14_Function_base13_Base_managerINSt8__detail11_AnyMatcherISt12regex_traitsIcELb0ELb0ELb0EEEE15_M_init_functorERSt9_Any_dataOS5_
FN:207,_ZNSt14_Function_base13_Base_managerINSt8__detail15_BracketMatcherISt12regex_traitsIcELb0ELb1EEEE15_M_init_functorERSt9_Any_dataOS5_
FNDA:0,_ZNSt14_Function_base13_Base_managerINSt8__detail15_BracketMatcherISt12regex_traitsIcELb0ELb1EEEE15_M_init_functorERSt9_Any_dataOS5_
FN:207,_ZNSt14_Function_base13_Base_managerINSt8__detail12_CharMatcherISt12regex_traitsIcELb1ELb1EEEE15_M_init_functorERSt9_Any_dataOS5_
FNDA:0,_ZNSt14_Function_base13_Base_managerINSt8__detail12_CharMatcherISt12regex_traitsIcELb1ELb1EEEE15_M_init_functorERSt9_Any_dataOS5_
FN:207,_ZNSt14_Function_base13_Base_managerINSt8__detail11_AnyMatcherISt12regex_traitsIcELb1ELb1ELb0EEEE15_M_init_functorERSt9_Any_dataOS5_
FNDA:0,_ZNSt14_Function_base13_Base_managerINSt8__detail11_AnyMatcherISt12regex_traitsIcELb1ELb1ELb0EEEE15_M_init_functorERSt9_Any_dataOS5_
FN:207,_ZNSt14_Function_base13_Base_managerINSt8__detail12_CharMatcherISt12regex_traitsIcELb1ELb0EEEE15_M_init_functorERSt9_Any_dataOS5_
FNDA:0,_ZNSt14_Function_base13_Base_managerINSt8__detail12_CharMatcherISt12regex_traitsIcELb1ELb0EEEE15_M_init_functorERSt9_Any_dataOS5_
FN:207,_ZNSt14_Function_base13_Base_managerINSt8__detail11_AnyMatcherISt12regex_traitsIcELb1ELb1ELb1EEEE15_M_init_functorERSt9_Any_dataOS5_
FNDA:0,_ZNSt14_Function_base13_Base_managerINSt8__detail11_AnyMatcherISt12regex_traitsIcELb1ELb1ELb1EEEE15_M_init_functorERSt9_Any_dataOS5_
FN:207,_ZNSt14_Function_base13_Base_managerINSt8__detail12_CharMatcherISt12regex_traitsIcELb0ELb1EEEE15_M_init_functorERSt9_Any_dataOS5_
FNDA:0,_ZNSt14_Function_base13_Base_managerINSt8__detail12_CharMatcherISt12regex_traitsIcELb0ELb1EEEE15_M_init_functorERSt9_Any_dataOS5_
FN:227,_ZNSt14_Function_base13_Base_managerINSt8__detail11_AnyMatcherISt12regex_traitsIcELb1ELb1ELb0EEEE21_M_not_empty_functionIS5_EEbRKT_
FNDA:0,_ZNSt14_Function_base13_Base_managerINSt8__detail11_AnyMatcherISt12regex_traitsIcELb1ELb1ELb0EEEE21_M_not_empty_functionIS5_EEbRKT_
FN:227,_ZNSt14_Function_base13_Base_managerINSt8__detail12_CharMatcherISt12regex_traitsIcELb1ELb1EEEE21_M_not_empty_functionIS5_EEbRKT_
FNDA:0,_ZNSt14_Function_base13_Base_managerINSt8__detail12_CharMatcherISt12regex_traitsIcELb1ELb1EEEE21_M_not_empty_functionIS5_EEbRKT_
FN:227,_ZNSt14_Function_base13_Base_managerINSt8__detail15_BracketMatcherISt12regex_traitsIcELb0ELb0EEEE21_M_not_empty_functionIS5_EEbRKT_
FNDA:621,_ZNSt14_Function_base13_Base_managerINSt8__detail15_BracketMatcherISt12regex_traitsIcELb0ELb0EEEE21_M_not_empty_functionIS5_EEbRKT_
FN:227,_ZNSt14_Function_base13_Base_managerINSt8__detail11_AnyMatcherISt12regex_traitsIcELb1ELb1ELb1EEEE21_M_not_empty_functionIS5_EEbRKT_
FNDA:0,_ZNSt14_Function_base13_Base_managerINSt8__detail11_AnyMatcherISt12regex_traitsIcELb1ELb1ELb1EEEE21_M_not_empty_functionIS5_EEbRKT_
FN:227,_ZNSt14_Function_base13_Base_managerINSt8__detail12_CharMatcherISt12regex_traitsIcELb1ELb0EEEE21_M_not_empty_functionIS5_EEbRKT_
FNDA:0,_ZNSt14_Function_base13_Base_managerINSt8__detail12_CharMatcherISt12regex_traitsIcELb1ELb0EEEE21_M_not_empty_functionIS5_EEbRKT_
FN:227,_ZNSt14_Function_base13_Base_managerINSt8__detail11_AnyMatcherISt12regex_traitsIcELb1ELb0ELb1EEEE21_M_not_empty_functionIS5_EEbRKT_
FNDA:0,_ZNSt14_Function_base13_Base_managerINSt8__detail11_AnyMatcherISt12regex_traitsIcELb1ELb0ELb1EEEE21_M_not_empty_functionIS5_EEbRKT_
FN:227,_ZNSt14_Function_base13_Base_managerINSt8__detail12_CharMatcherISt12regex_traitsIcELb0ELb0EEEE21_M_not_empty_functionIS5_EEbRKT_
FNDA:15,_ZNSt14_Function_base13_Base_managerINSt8__detail12_CharMatcherISt12regex_traitsIcELb0ELb0EEEE21_M_not_empty_functionIS5_EEbRKT_
FN:227,_ZNSt14_Function_base13_Base_managerINSt8__detail15_BracketMatcherISt12regex_traitsIcELb0ELb1EEEE21_M_not_empty_functionIS5_EEbRKT_
FNDA:0,_ZNSt14_Function_base13_Base_managerINSt8__detail15_BracketMatcherISt12regex_traitsIcELb0ELb1EEEE21_M_not_empty_functionIS5_EEbRKT_
FN:227,_ZNSt14_Function_base13_Base_managerINSt8__detail12_CharMatcherISt12regex_traitsIcELb0ELb1EEEE21_M_not_empty_functionIS5_EEbRKT_
FNDA:0,_ZNSt14_Function_base13_Base_managerINSt8__detail12_CharMatcherISt12regex_traitsIcELb0ELb1EEEE21_M_not_empty_functionIS5_EEbRKT_
FN:227,_ZNSt14_Function_base13_Base_managerINSt8__detail11_AnyMatcherISt12regex_traitsIcELb0ELb1ELb0EEEE21_M_not_empty_functionIS5_EEbRKT_
FNDA:0,_ZNSt14_Function_base13_Base_managerINSt8__detail11_AnyMatcherISt12regex_traitsIcELb0ELb1ELb0EEEE21_M_not_empty_functionIS5_EEbRKT_
FN:227,_ZNSt14_Function_base13_Base_managerINSt8__detail15_BracketMatcherISt12regex_traitsIcELb1ELb0EEEE21_M_not_empty_functionIS5_EEbRKT_
FNDA:0,_ZNSt14_Function_base13_Base_managerINSt8__detail15_BracketMatcherISt12regex_traitsIcELb1ELb0EEEE21_M_not_empty_functionIS5_EEbRKT_
FN:227,_ZNSt14_Function_base13_Base_managerINSt8__detail11_AnyMatcherISt12regex_traitsIcELb0ELb1ELb1EEEE21_M_not_empty_functionIS5_EEbRKT_
FNDA:0,_ZNSt14_Function_base13_Base_managerINSt8__detail11_AnyMatcherISt12regex_traitsIcELb0ELb1ELb1EEEE21_M_not_empty_functionIS5_EEbRKT_
FN:227,_ZNSt14_Function_base13_Base_managerINSt8__detail15_BracketMatcherISt12regex_traitsIcELb1ELb1EEEE21_M_not_empty_functionIS5_EEbRKT_
FNDA:0,_ZNSt14_Function_base13_Base_managerINSt8__detail15_BracketMatcherISt12regex_traitsIcELb1ELb1EEEE21_M_not_empty_functionIS5_EEbRKT_
FN:227,_ZNSt14_Function_base13_Base_managerINSt8__detail11_AnyMatcherISt12regex_traitsIcELb1ELb0ELb0EEEE21_M_not_empty_functionIS5_EEbRKT_
FNDA:4,_ZNSt14_Function_base13_Base_managerINSt8__detail11_AnyMatcherISt12regex_traitsIcELb1ELb0ELb0EEEE21_M_not_empty_functionIS5_EEbRKT_
FN:227,_ZNSt14_Function_base13_Base_managerINSt8__detail11_AnyMatcherISt12regex_traitsIcELb0ELb0ELb1EEEE21_M_not_empty_functionIS5_EEbRKT_
FNDA:0,_ZNSt14_Function_base13_Base_managerINSt8__detail11_AnyMatcherISt12regex_traitsIcELb0ELb0ELb1EEEE21_M_not_empty_functionIS5_EEbRKT_
FN:227,_ZNSt14_Function_base13_Base_managerINSt8__detail11_AnyMatcherISt12regex_traitsIcELb0ELb0ELb0EEEE21_M_not_empty_functionIS5_EEbRKT_
FNDA:0,_ZNSt14_Function_base13_Base_managerINSt8__detail11_AnyMatcherISt12regex_traitsIcELb0ELb0ELb0EEEE21_M_not_empty_functionIS5_EEbRKT_
FN:232,_ZNSt14_Function_base13_Base_managerINSt8__detail11_AnyMatcherISt12regex_traitsIcELb1ELb1ELb0EEEE15_M_init_functorERSt9_Any_dataOS5_St17integral_constantIbLb1EE
FNDA:0,_ZNSt14_Function_base13_Base_managerINSt8__detail11_AnyMatcherISt12regex_traitsIcELb1ELb1ELb0EEEE15_M_init_functorERSt9_Any_dataOS5_St17integral_constantIbLb1EE
FN:232,_ZNSt14_Function_base13_Base_managerINSt8__detail11_AnyMatcherISt12regex_traitsIcELb1ELb0ELb1EEEE15_M_init_functorERSt9_Any_dataOS5_St17integral_constantIbLb1EE
FNDA:0,_ZNSt14_Function_base13_Base_managerINSt8__detail11_AnyMatcherISt12regex_traitsIcELb1ELb0ELb1EEEE15_M_init_functorERSt9_Any_dataOS5_St17integral_constantIbLb1EE
FN:232,_ZNSt14_Function_base13_Base_managerINSt8__detail11_AnyMatcherISt12regex_traitsIcELb1ELb1ELb1EEEE15_M_init_functorERSt9_Any_dataOS5_St17integral_constantIbLb1EE
FNDA:0,_ZNSt14_Function_base13_Base_managerINSt8__detail11_AnyMatcherISt12regex_traitsIcELb1ELb1ELb1EEEE15_M_init_functorERSt9_Any_dataOS5_St17integral_constantIbLb1EE
FN:232,_ZNSt14_Function_base13_Base_managerINSt8__detail11_AnyMatcherISt12regex_traitsIcELb1ELb0ELb0EEEE15_M_init_functorERSt9_Any_dataOS5_St17integral_constantIbLb1EE
FNDA:4,_ZNSt14_Function_base13_Base_managerINSt8__detail11_AnyMatcherISt12regex_traitsIcELb1ELb0ELb0EEEE15_M_init_functorERSt9_Any_dataOS5_St17integral_constantIbLb1EE
FN:232,_ZNSt14_Function_base13_Base_managerINSt8__detail12_CharMatcherISt12regex_traitsIcELb0ELb0EEEE15_M_init_functorERSt9_Any_dataOS5_St17integral_constantIbLb1EE
FNDA:15,_ZNSt14_Function_base13_Base_managerINSt8__detail12_CharMatcherISt12regex_traitsIcELb0ELb0EEEE15_M_init_functorERSt9_Any_dataOS5_St17integral_constantIbLb1EE
FN:232,_ZNSt14_Function_base13_Base_managerINSt8__detail11_AnyMatcherISt12regex_traitsIcELb0ELb1ELb1EEEE15_M_init_functorERSt9_Any_dataOS5_St17integral_constantIbLb1EE
FNDA:0,_ZNSt14_Function_base13_Base_managerINSt8__detail11_AnyMatcherISt12regex_traitsIcELb0ELb1ELb1EEEE15_M_init_functorERSt9_Any_dataOS5_St17integral_constantIbLb1EE
FN:232,_ZNSt14_Function_base13_Base_managerINSt8__detail12_CharMatcherISt12regex_traitsIcELb0ELb1EEEE15_M_init_functorERSt9_Any_dataOS5_St17integral_constantIbLb1EE
FNDA:0,_ZNSt14_Function_base13_Base_managerINSt8__detail12_CharMatcherISt12regex_traitsIcELb0ELb1EEEE15_M_init_functorERSt9_Any_dataOS5_St17integral_constantIbLb1EE
FN:232,_ZNSt14_Function_base13_Base_managerINSt8__detail11_AnyMatcherISt12regex_traitsIcELb0ELb1ELb0EEEE15_M_init_functorERSt9_Any_dataOS5_St17integral_constantIbLb1EE
FNDA:0,_ZNSt14_Function_base13_Base_managerINSt8__detail11_AnyMatcherISt12regex_traitsIcELb0ELb1ELb0EEEE15_M_init_functorERSt9_Any_dataOS5_St17integral_constantIbLb1EE
FN:232,_ZNSt14_Function_base13_Base_managerINSt8__detail12_CharMatcherISt12regex_traitsIcELb1ELb0EEEE15_M_init_functorERSt9_Any_dataOS5_St17integral_constantIbLb1EE
FNDA:0,_ZNSt14_Function_base13_Base_managerINSt8__detail12_CharMatcherISt12regex_traitsIcELb1ELb0EEEE15_M_init_functorERSt9_Any_dataOS5_St17integral_constantIbLb1EE
FN:232,_ZNSt14_Function_base13_Base_managerINSt8__detail11_AnyMatcherISt12regex_traitsIcELb0ELb0ELb1EEEE15_M_init_functorERSt9_Any_dataOS5_St17integral_constantIbLb1EE
FNDA:0,_ZNSt14_Function_base13_Base_managerINSt8__detail11_AnyMatcherISt12regex_traitsIcELb0ELb0ELb1EEEE15_M_init_functorERSt9_Any_dataOS5_St17integral_constantIbLb1EE
FN:232,_ZNSt14_Function_base13_Base_managerINSt8__detail12_CharMatcherISt12regex_traitsIcELb1ELb1EEEE15_M_init_functorERSt9_Any_dataOS5_St17integral_constantIbLb1EE
FNDA:0,_ZNSt14_Function_base13_Base_managerINSt8__detail12_CharMatcherISt12regex_traitsIcELb1ELb1EEEE15_M_init_functorERSt9_Any_dataOS5_St17integral_constantIbLb1EE
FN:232,_ZNSt14_Function_base13_Base_managerINSt8__detail11_AnyMatcherISt12regex_traitsIcELb0ELb0ELb0EEEE15_M_init_functorERSt9_Any_dataOS5_St17integral_constantIbLb1EE
FNDA:0,_ZNSt14_Function_base13_Base_managerINSt8__detail11_AnyMatcherISt12regex_traitsIcELb0ELb0ELb0EEEE15_M_init_functorERSt9_Any_dataOS5_St17integral_constantIbLb1EE
FN:236,_ZNSt14_Function_base13_Base_managerINSt8__detail15_BracketMatcherISt12regex_traitsIcELb0ELb0EEEE15_M_init_functorERSt9_Any_dataOS5_St17integral_constantIbLb0EE
FNDA:621,_ZNSt14_Function_base13_Base_managerINSt8__detail15_BracketMatcherISt12regex_traitsIcELb0ELb0EEEE15_M_init_functorERSt9_Any_dataOS5_St17integral_constantIbLb0EE
FN:236,_ZNSt14_Function_base13_Base_managerINSt8__detail15_BracketMatcherISt12regex_traitsIcELb1ELb1EEEE15_M_init_functorERSt9_Any_dataOS5_St17integral_constantIbLb0EE
FNDA:0,_ZNSt14_Function_base13_Base_managerINSt8__detail15_BracketMatcherISt12regex_traitsIcELb1ELb1EEEE15_M_init_functorERSt9_Any_dataOS5_St17integral_constantIbLb0EE
FN:236,_ZNSt14_Function_base13_Base_managerINSt8__detail15_BracketMatcherISt12regex_traitsIcELb1ELb0EEEE15_M_init_functorERSt9_Any_dataOS5_St17integral_constantIbLb0EE
FNDA:0,_ZNSt14_Function_base13_Base_managerINSt8__detail15_BracketMatcherISt12regex_traitsIcELb1ELb0EEEE15_M_init_functorERSt9_Any_dataOS5_St17integral_constantIbLb0EE
FN:236,_ZNSt14_Function_base13_Base_managerINSt8__detail15_BracketMatcherISt12regex_traitsIcELb0ELb1EEEE15_M_init_functorERSt9_Any_dataOS5_St17integral_constantIbLb0EE
FNDA:0,_ZNSt14_Function_base13_Base_managerINSt8__detail15_BracketMatcherISt12regex_traitsIcELb0ELb1EEEE15_M_init_functorERSt9_Any_dataOS5_St17integral_constantIbLb0EE
FN:240,_ZNSt14_Function_baseC2Ev
FNDA:4191,_ZNSt14_Function_baseC2Ev
FN:242,_ZNSt14_Function_baseD2Ev
FNDA:4164,_ZNSt14_Function_baseD2Ev
FN:248,_ZNKSt14_Function_base8_M_emptyEv
FNDA:0,_ZNKSt14_Function_base8_M_emptyEv
FN:268,_ZNSt17_Function_handlerIFbcENSt8__detail12_CharMatcherISt12regex_traitsIcELb0ELb0EEEE10_M_managerERSt9_Any_dataRKS7_St18_Manager_operation
FNDA:77,_ZNSt17_Function_handlerIFbcENSt8__detail12_CharMatcherISt12regex_traitsIcELb0ELb0EEEE10_M_managerERSt9_Any_dataRKS7_St18_Manager_operation
FN:268,_ZNSt17_Function_handlerIFbcENSt8__detail11_AnyMatcherISt12regex_traitsIcELb0ELb0ELb0EEEE10_M_managerERSt9_Any_dataRKS7_St18_Manager_operation
FNDA:0,_ZNSt17_Function_handlerIFbcENSt8__detail11_AnyMatcherISt12regex_traitsIcELb0ELb0ELb0EEEE10_M_managerERSt9_Any_dataRKS7_St18_Manager_operation
FN:268,_ZNSt17_Function_handlerIFbcENSt8__detail15_BracketMatcherISt12regex_traitsIcELb1ELb1EEEE10_M_managerERSt9_Any_dataRKS7_St18_Manager_operation
FNDA:0,_ZNSt17_Function_handlerIFbcENSt8__detail15_BracketMatcherISt12regex_traitsIcELb1ELb1EEEE10_M_managerERSt9_Any_dataRKS7_St18_Manager_operation
FN:268,_ZNSt17_Function_handlerIFbcENSt8__detail11_AnyMatcherISt12regex_traitsIcELb0ELb0ELb1EEEE10_M_managerERSt9_Any_dataRKS7_St18_Manager_operation
FNDA:0,_ZNSt17_Function_handlerIFbcENSt8__detail11_AnyMatcherISt12regex_traitsIcELb0ELb0ELb1EEEE10_M_managerERSt9_Any_dataRKS7_St18_Manager_operation
FN:268,_ZNSt17_Function_handlerIFbcENSt8__detail15_BracketMatcherISt12regex_traitsIcELb1ELb0EEEE10_M_managerERSt9_Any_dataRKS7_St18_Manager_operation
FNDA:0,_ZNSt17_Function_handlerIFbcENSt8__detail15_BracketMatcherISt12regex_traitsIcELb1ELb0EEEE10_M_managerERSt9_Any_dataRKS7_St18_Manager_operation
FN:268,_ZNSt17_Function_handlerIFbcENSt8__detail11_AnyMatcherISt12regex_traitsIcELb0ELb1ELb0EEEE10_M_managerERSt9_Any_dataRKS7_St18_Manager_operation
FNDA:0,_ZNSt17_Function_handlerIFbcENSt8__detail11_AnyMatcherISt12regex_traitsIcELb0ELb1ELb0EEEE10_M_managerERSt9_Any_dataRKS7_St18_Manager_operation
FN:268,_ZNSt17_Function_handlerIFbcENSt8__detail15_BracketMatcherISt12regex_traitsIcELb0ELb1EEEE10_M_managerERSt9_Any_dataRKS7_St18_Manager_operation
FNDA:0,_ZNSt17_Function_handlerIFbcENSt8__detail15_BracketMatcherISt12regex_traitsIcELb0ELb1EEEE10_M_managerERSt9_Any_dataRKS7_St18_Manager_operation
FN:268,_ZNSt17_Function_handlerIFbcENSt8__detail11_AnyMatcherISt12regex_traitsIcELb0ELb1ELb1EEEE10_M_managerERSt9_Any_dataRKS7_St18_Manager_operation
FNDA:0,_ZNSt17_Function_handlerIFbcENSt8__detail11_AnyMatcherISt12regex_traitsIcELb0ELb1ELb1EEEE10_M_managerERSt9_Any_dataRKS7_St18_Manager_operation
FN:268,_ZNSt17_Function_handlerIFbcENSt8__detail15_BracketMatcherISt12regex_traitsIcELb0ELb0EEEE10_M_managerERSt9_Any_dataRKS7_St18_Manager_operation
FNDA:2488,_ZNSt17_Function_handlerIFbcENSt8__detail15_BracketMatcherISt12regex_traitsIcELb0ELb0EEEE10_M_managerERSt9_Any_dataRKS7_St18_Manager_operation
FN:268,_ZNSt17_Function_handlerIFbcENSt8__detail11_AnyMatcherISt12regex_traitsIcELb1ELb0ELb0EEEE10_M_managerERSt9_Any_dataRKS7_St18_Manager_operation
FNDA:14,_ZNSt17_Function_handlerIFbcENSt8__detail11_AnyMatcherISt12regex_traitsIcELb1ELb0ELb0EEEE10_M_managerERSt9_Any_dataRKS7_St18_Manager_operation
FN:268,_ZNSt17_Function_handlerIFbcENSt8__detail11_AnyMatcherISt12regex_traitsIcELb1ELb1ELb1EEEE10_M_managerERSt9_Any_dataRKS7_St18_Manager_operation
FNDA:0,_ZNSt17_Function_handlerIFbcENSt8__detail11_AnyMatcherISt12regex_traitsIcELb1ELb1ELb1EEEE10_M_managerERSt9_Any_dataRKS7_St18_Manager_operation
FN:268,_ZNSt17_Function_handlerIFbcENSt8__detail12_CharMatcherISt12regex_traitsIcELb1ELb1EEEE10_M_managerERSt9_Any_dataRKS7_St18_Manager_operation
FNDA:0,_ZNSt17_Function_handlerIFbcENSt8__detail12_CharMatcherISt12regex_traitsIcELb1ELb1EEEE10_M_managerERSt9_Any_dataRKS7_St18_Manager_operation
FN:268,_ZNSt17_Function_handlerIFbcENSt8__detail12_CharMatcherISt12regex_traitsIcELb0ELb1EEEE10_M_managerERSt9_Any_dataRKS7_St18_Manager_operation
FNDA:0,_ZNSt17_Function_handlerIFbcENSt8__detail12_CharMatcherISt12regex_traitsIcELb0ELb1EEEE10_M_managerERSt9_Any_dataRKS7_St18_Manager_operation
FN:268,_ZNSt17_Function_handlerIFbcENSt8__detail11_AnyMatcherISt12regex_traitsIcELb1ELb0ELb1EEEE10_M_managerERSt9_Any_dataRKS7_St18_Manager_operation
FNDA:0,_ZNSt17_Function_handlerIFbcENSt8__detail11_AnyMatcherISt12regex_traitsIcELb1ELb0ELb1EEEE10_M_managerERSt9_Any_dataRKS7_St18_Manager_operation
FN:268,_ZNSt17_Function_handlerIFbcENSt8__detail11_AnyMatcherISt12regex_traitsIcELb1ELb1ELb0EEEE10_M_managerERSt9_Any_dataRKS7_St18_Manager_operation
FNDA:0,_ZNSt17_Function_handlerIFbcENSt8__detail11_AnyMatcherISt12regex_traitsIcELb1ELb1ELb0EEEE10_M_managerERSt9_Any_dataRKS7_St18_Manager_operation
FN:268,_ZNSt17_Function_handlerIFbcENSt8__detail12_CharMatcherISt12regex_traitsIcELb1ELb0EEEE10_M_managerERSt9_Any_dataRKS7_St18_Manager_operation
FNDA:0,_ZNSt17_Function_handlerIFbcENSt8__detail12_CharMatcherISt12regex_traitsIcELb1ELb0EEEE10_M_managerERSt9_Any_dataRKS7_St18_Manager_operation
FN:289,_ZNSt17_Function_handlerIFbcENSt8__detail11_AnyMatcherISt12regex_traitsIcELb1ELb0ELb0EEEE9_M_invokeERKSt9_Any_dataOc
FNDA:3232,_ZNSt17_Function_handlerIFbcENSt8__detail11_AnyMatcherISt12regex_traitsIcELb1ELb0ELb0EEEE9_M_invokeERKSt9_Any_dataOc
FN:289,_ZNSt17_Function_handlerIFbcENSt8__detail12_CharMatcherISt12regex_traitsIcELb0ELb1EEEE9_M_invokeERKSt9_Any_dataOc
FNDA:0,_ZNSt17_Function_handlerIFbcENSt8__detail12_CharMatcherISt12regex_traitsIcELb0ELb1EEEE9_M_invokeERKSt9_Any_dataOc
FN:289,_ZNSt17_Function_handlerIFbcENSt8__detail11_AnyMatcherISt12regex_traitsIcELb1ELb1ELb1EEEE9_M_invokeERKSt9_Any_dataOc
FNDA:0,_ZNSt17_Function_handlerIFbcENSt8__detail11_AnyMatcherISt12regex_traitsIcELb1ELb1ELb1EEEE9_M_invokeERKSt9_Any_dataOc
FN:289,_ZNSt17_Function_handlerIFbcENSt8__detail12_CharMatcherISt12regex_traitsIcELb1ELb0EEEE9_M_invokeERKSt9_Any_dataOc
FNDA:0,_ZNSt17_Function_handlerIFbcENSt8__detail12_CharMatcherISt12regex_traitsIcELb1ELb0EEEE9_M_invokeERKSt9_Any_dataOc
FN:289,_ZNSt17_Function_handlerIFbcENSt8__detail11_AnyMatcherISt12regex_traitsIcELb0ELb0ELb0EEEE9_M_invokeERKSt9_Any_dataOc
FNDA:0,_ZNSt17_Function_handlerIFbcENSt8__detail11_AnyMatcherISt12regex_traitsIcELb0ELb0ELb0EEEE9_M_invokeERKSt9_Any_dataOc
FN:289,_ZNSt17_Function_handlerIFbcENSt8__detail12_CharMatcherISt12regex_traitsIcELb0ELb0EEEE9_M_invokeERKSt9_Any_dataOc
FNDA:2532,_ZNSt17_Function_handlerIFbcENSt8__detail12_CharMatcherISt12regex_traitsIcELb0ELb0EEEE9_M_invokeERKSt9_Any_dataOc
FN:289,_ZNSt17_Function_handlerIFbcENSt8__detail11_AnyMatcherISt12regex_traitsIcELb1ELb1ELb0EEEE9_M_invokeERKSt9_Any_dataOc
FNDA:0,_ZNSt17_Function_handlerIFbcENSt8__detail11_AnyMatcherISt12regex_traitsIcELb1ELb1ELb0EEEE9_M_invokeERKSt9_Any_dataOc
FN:289,_ZNSt17_Function_handlerIFbcENSt8__detail11_AnyMatcherISt12regex_traitsIcELb0ELb0ELb1EEEE9_M_invokeERKSt9_Any_dataOc
FNDA:0,_ZNSt17_Function_handlerIFbcENSt8__detail11_AnyMatcherISt12regex_traitsIcELb0ELb0ELb1EEEE9_M_invokeERKSt9_Any_dataOc
FN:289,_ZNSt17_Function_handlerIFbcENSt8__detail15_BracketMatcherISt12regex_traitsIcELb1ELb1EEEE9_M_invokeERKSt9_Any_dataOc
FNDA:0,_ZNSt17_Function_handlerIFbcENSt8__detail15_BracketMatcherISt12regex_traitsIcELb1ELb1EEEE9_M_invokeERKSt9_Any_dataOc
FN:289,_ZNSt17_Function_handlerIFbcENSt8__detail12_CharMatcherISt12regex_traitsIcELb1ELb1EEEE9_M_invokeERKSt9_Any_dataOc
FNDA:0,_ZNSt17_Function_handlerIFbcENSt8__detail12_CharMatcherISt12regex_traitsIcELb1ELb1EEEE9_M_invokeERKSt9_Any_dataOc
FN:289,_ZNSt17_Function_handlerIFbcENSt8__detail11_AnyMatcherISt12regex_traitsIcELb0ELb1ELb0EEEE9_M_invokeERKSt9_Any_dataOc
FNDA:0,_ZNSt17_Function_handlerIFbcENSt8__detail11_AnyMatcherISt12regex_traitsIcELb0ELb1ELb0EEEE9_M_invokeERKSt9_Any_dataOc
FN:289,_ZNSt17_Function_handlerIFbcENSt8__detail15_BracketMatcherISt12regex_traitsIcELb1ELb0EEEE9_M_invokeERKSt9_Any_dataOc
FNDA:0,_ZNSt17_Function_handlerIFbcENSt8__detail15_BracketMatcherISt12regex_traitsIcELb1ELb0EEEE9_M_invokeERKSt9_Any_dataOc
FN:289,_ZNSt17_Function_handlerIFbcENSt8__detail11_AnyMatcherISt12regex_traitsIcELb1ELb0ELb1EEEE9_M_invokeERKSt9_Any_dataOc
FNDA:0,_ZNSt17_Function_handlerIFbcENSt8__detail11_AnyMatcherISt12regex_traitsIcELb1ELb0ELb1EEEE9_M_invokeERKSt9_Any_dataOc
FN:289,_ZNSt17_Function_handlerIFbcENSt8__detail11_AnyMatcherISt12regex_traitsIcELb0ELb1ELb1EEEE9_M_invokeERKSt9_Any_dataOc
FNDA:0,_ZNSt17_Function_handlerIFbcENSt8__detail11_AnyMatcherISt12regex_traitsIcELb0ELb1ELb1EEEE9_M_invokeERKSt9_Any_dataOc
FN:289,_ZNSt17_Function_handlerIFbcENSt8__detail15_BracketMatcherISt12regex_traitsIcELb0ELb1EEEE9_M_invokeERKSt9_Any_dataOc
FNDA:0,_ZNSt17_Function_handlerIFbcENSt8__detail15_BracketMatcherISt12regex_traitsIcELb0ELb1EEEE9_M_invokeERKSt9_Any_dataOc
FN:289,_ZNSt17_Function_handlerIFbcENSt8__detail15_BracketMatcherISt12regex_traitsIcELb0ELb0EEEE9_M_invokeERKSt9_Any_dataOc
FNDA:4875,_ZNSt17_Function_handlerIFbcENSt8__detail15_BracketMatcherISt12regex_traitsIcELb0ELb0EEEE9_M_invokeERKSt9_Any_dataOc
FN:330,_ZNSt8functionIFbcEEC1Ev
FNDA:640,_ZNSt8functionIFbcEEC1Ev
FN:357,_ZNSt8functionIFbcEEC1EOS1_
FNDA:1928,_ZNSt8functionIFbcEEC1EOS1_
FN:414,_ZNSt8functionIFbcEEaSEOS1_
FNDA:640,_ZNSt8functionIFbcEEaSEOS1_
FN:481,_ZNSt8functionIFbcEE4swapERS1_
FNDA:2568,_ZNSt8functionIFbcEE4swapERS1_
FN:498,_ZNKSt8functionIFbcEEcvbEv
FNDA:983,_ZNKSt8functionIFbcEEcvbEv
FN:587,_ZNSt8functionIFbcEEC1ERKS1_
FNDA:983,_ZNSt8functionIFbcEEC1ERKS1_
FN:601,_ZNSt8functionIFbcEEC1INSt8__detail11_AnyMatcherISt12regex_traitsIcELb0ELb0ELb0EEEvvEET_
FNDA:0,_ZNSt8functionIFbcEEC1INSt8__detail11_AnyMatcherISt12regex_traitsIcELb0ELb0ELb0EEEvvEET_
FN:601,_ZNSt8functionIFbcEEC1INSt8__detail15_BracketMatcherISt12regex_traitsIcELb1ELb1EEEvvEET_
FNDA:0,_ZNSt8functionIFbcEEC1INSt8__detail15_BracketMatcherISt12regex_traitsIcELb1ELb1EEEvvEET_
FN:601,_ZNSt8functionIFbcEEC1INSt8__detail15_BracketMatcherISt12regex_traitsIcELb1ELb0EEEvvEET_
FNDA:0,_ZNSt8functionIFbcEEC1INSt8__detail15_BracketMatcherISt12regex_traitsIcELb1ELb0EEEvvEET_
FN:601,_ZNSt8functionIFbcEEC1INSt8__detail15_BracketMatcherISt12regex_traitsIcELb0ELb1EEEvvEET_
FNDA:0,_ZNSt8functionIFbcEEC1INSt8__detail15_BracketMatcherISt12regex_traitsIcELb0ELb1EEEvvEET_
FN:601,_ZNSt8functionIFbcEEC1INSt8__detail15_BracketMatcherISt12regex_traitsIcELb0ELb0EEEvvEET_
FNDA:621,_ZNSt8functionIFbcEEC1INSt8__detail15_BracketMatcherISt12regex_traitsIcELb0ELb0EEEvvEET_
FN:601,_ZNSt8functionIFbcEEC1INSt8__detail12_CharMatcherISt12regex_traitsIcELb1ELb1EEEvvEET_
FNDA:0,_ZNSt8functionIFbcEEC1INSt8__detail12_CharMatcherISt12regex_traitsIcELb1ELb1EEEvvEET_
FN:601,_ZNSt8functionIFbcEEC1INSt8__detail12_CharMatcherISt12regex_traitsIcELb1ELb0EEEvvEET_
FNDA:0,_ZNSt8functionIFbcEEC1INSt8__detail12_CharMatcherISt12regex_traitsIcELb1ELb0EEEvvEET_
FN:601,_ZNSt8functionIFbcEEC1INSt8__detail12_CharMatcherISt12regex_traitsIcELb0ELb1EEEvvEET_
FNDA:0,_ZNSt8functionIFbcEEC1INSt8__detail12_CharMatcherISt12regex_traitsIcELb0ELb1EEEvvEET_
FN:601,_ZNSt8functionIFbcEEC1INSt8__detail11_AnyMatcherISt12regex_traitsIcELb0ELb0ELb1EEEvvEET_
FNDA:0,_ZNSt8functionIFbcEEC1INSt8__detail11_AnyMatcherISt12regex_traitsIcELb0ELb0ELb1EEEvvEET_
FN:601,_ZNSt8functionIFbcEEC1INSt8__detail11_AnyMatcherISt12regex_traitsIcELb0ELb1ELb0EEEvvEET_
FNDA:0,_ZNSt8functionIFbcEEC1INSt8__detail11_AnyMatcherISt12regex_traitsIcELb0ELb1ELb0EEEvvEET_
FN:601,_ZNSt8functionIFbcEEC1INSt8__detail11_AnyMatcherISt12regex_traitsIcELb0ELb1ELb1EEEvvEET_
FNDA:0,_ZNSt8functionIFbcEEC1INSt8__detail11_AnyMatcherISt12regex_traitsIcELb0ELb1ELb1EEEvvEET_
FN:601,_ZNSt8functionIFbcEEC1INSt8__detail11_AnyMatcherISt12regex_traitsIcELb1ELb0ELb0EEEvvEET_
FNDA:4,_ZNSt8functionIFbcEEC1INSt8__detail11_AnyMatcherISt12regex_traitsIcELb1ELb0ELb0EEEvvEET_
FN:601,_ZNSt8functionIFbcEEC1INSt8__detail11_AnyMatcherISt12regex_traitsIcELb1ELb0ELb1EEEvvEET_
FNDA:0,_ZNSt8functionIFbcEEC1INSt8__detail11_AnyMatcherISt12regex_traitsIcELb1ELb0ELb1EEEvvEET_
FN:601,_ZNSt8functionIFbcEEC1INSt8__detail11_AnyMatcherISt12regex_traitsIcELb1ELb1ELb0EEEvvEET_
FNDA:0,_ZNSt8functionIFbcEEC1INSt8__detail11_AnyMatcherISt12regex_traitsIcELb1ELb1ELb0EEEvvEET_
FN:601,_ZNSt8functionIFbcEEC1INSt8__detail11_AnyMatcherISt12regex_traitsIcELb1ELb1ELb1EEEvvEET_
FNDA:0,_ZNSt8functionIFbcEEC1INSt8__detail11_AnyMatcherISt12regex_traitsIcELb1ELb1ELb1EEEvvEET_
FN:601,_ZNSt8functionIFbcEEC1INSt8__detail12_CharMatcherISt12regex_traitsIcELb0ELb0EEEvvEET_
FNDA:15,_ZNSt8functionIFbcEEC1INSt8__detail12_CharMatcherISt12regex_traitsIcELb0ELb0EEEvvEET_
FN:617,_ZNKSt8functionIFbcEEclEc
FNDA:0,_ZNKSt8functionIFbcEEclEc
FNF:221
FNH:47
DA:87,3219
DA:88,11622
DA:92,0
DA:93,0
DA:92,0
DA:93,0
DA:92,0
DA:93,0
DA:92,0
DA:93,0
DA:92,0
DA:93,0
DA:92,0
DA:93,0
DA:92,0
DA:93,0
DA:92,0
DA:93,0
DA:92,0
DA:93,0
DA:92,0
DA:93,0
DA:92,0
DA:93,0
DA:92,0
DA:93,0
DA:92,0
DA:93,0
DA:92,0
DA:93,0
DA:92,3109
DA:93,3109
DA:92,0
DA:93,0
DA:92,0
DA:93,0
DA:92,0
DA:93,0
DA:92,0
DA:93,0
DA:92,0
DA:93,0
DA:92,0
DA:93,0
DA:92,0
DA:93,0
DA:92,7
DA:93,7
DA:92,0
DA:93,0
DA:92,0
DA:93,0
DA:92,0
DA:93,0
DA:92,38
DA:93,38
DA:92,0
DA:93,0
DA:92,0
DA:93,0
DA:97,0
DA:98,0
DA:97,0
DA:98,0
DA:97,0
DA:98,0
DA:97,0
DA:98,0
DA:97,0
DA:98,0
DA:97,3239
DA:98,3239
DA:97,0
DA:98,0
DA:97,0
DA:98,0
DA:97,0
DA:98,0
DA:97,2571
DA:98,2571
DA:97,0
DA:98,0
DA:97,0
DA:98,0
DA:97,0
DA:98,0
DA:97,4875
DA:98,4875
DA:97,0
DA:98,0
DA:97,0
DA:98,0
DA:97,0
DA:98,0
DA:97,937
DA:98,937
DA:97,0
DA:98,0
DA:97,0
DA:98,0
DA:136,0
DA:144,0
DA:136,0
DA:144,0
DA:136,0
DA:144,0
DA:136,4875
DA:144,4875
DA:136,0
DA:140,0
DA:141,0
DA:136,0
DA:140,0
DA:141,0
DA:136,0
DA:140,0
DA:141,0
DA:136,2532
DA:140,2532
DA:141,2532
DA:136,0
DA:140,0
DA:141,0
DA:136,0
DA:140,0
DA:141,0
DA:136,0
DA:140,0
DA:141,0
DA:136,3232
DA:140,3232
DA:141,3232
DA:136,0
DA:140,0
DA:141,0
DA:136,0
DA:140,0
DA:141,0
DA:136,0
DA:140,0
DA:141,0
DA:136,0
DA:140,0
DA:141,0
DA:150,0
DA:152,0
DA:153,0
DA:150,0
DA:152,0
DA:153,0
DA:150,0
DA:152,0
DA:153,0
DA:150,39
DA:152,39
DA:153,39
DA:150,0
DA:152,0
DA:153,0
DA:150,0
DA:152,0
DA:153,0
DA:150,0
DA:152,0
DA:153,0
DA:150,7
DA:152,7
DA:153,7
DA:150,0
DA:152,0
DA:153,0
DA:150,0
DA:152,0
DA:153,0
DA:150,0
DA:152,0
DA:153,0
DA:150,0
DA:152,0
DA:153,0
DA:158,0
DA:160,0
DA:161,0
DA:162,0
DA:158,0
DA:160,0
DA:161,0
DA:162,0
DA:158,0
DA:160,0
DA:161,0
DA:162,0
DA:158,937
DA:160,937
DA:161,937
DA:162,937
DA:167,0
DA:169,0
DA:170,0
DA:167,0
DA:169,0
DA:170,0
DA:167,0
DA:169,0
DA:170,0
DA:167,38
DA:169,38
DA:170,38
DA:167,0
DA:169,0
DA:170,0
DA:167,0
DA:169,0
DA:170,0
DA:167,0
DA:169,0
DA:170,0
DA:167,7
DA:169,7
DA:170,7
DA:167,0
DA:169,0
DA:170,0
DA:167,0
DA:169,0
DA:170,0
DA:167,0
DA:169,0
DA:170,0
DA:167,0
DA:169,0
DA:170,0
DA:174,0
DA:176,0
DA:177,0
DA:174,0
DA:176,0
DA:177,0
DA:174,0
DA:176,0
DA:177,0
DA:174,1551
DA:176,1551
DA:177,1551
DA:181,0
DA:184,0
DA:187,0
DA:188,0
DA:189,0
DA:191,0
DA:192,0
DA:193,0
DA:195,0
DA:196,0
DA:197,0
DA:199,0
DA:200,0
DA:201,0
DA:203,0
DA:181,0
DA:184,0
DA:187,0
DA:188,0
DA:189,0
DA:191,0
DA:192,0
DA:193,0
DA:195,0
DA:196,0
DA:197,0
DA:199,0
DA:200,0
DA:201,0
DA:203,0
DA:181,0
DA:184,0
DA:187,0
DA:188,0
DA:189,0
DA:191,0
DA:192,0
DA:193,0
DA:195,0
DA:196,0
DA:197,0
DA:199,0
DA:200,0
DA:201,0
DA:203,0
DA:181,2488
DA:184,2488
DA:187,0
DA:188,0
DA:189,0
DA:191,0
DA:192,0
DA:193,0
DA:195,937
DA:196,937
DA:197,937
DA:199,1551
DA:200,1551
DA:201,1551
DA:203,2488
DA:181,0
DA:184,0
DA:187,0
DA:188,0
DA:189,0
DA:191,0
DA:192,0
DA:193,0
DA:195,0
DA:196,0
DA:197,0
DA:199,0
DA:200,0
DA:201,0
DA:203,0
DA:181,0
DA:184,0
DA:187,0
DA:188,0
DA:189,0
DA:191,0
DA:192,0
DA:193,0
DA:195,0
DA:196,0
DA:197,0
DA:199,0
DA:200,0
DA:201,0
DA:203,0
DA:181,0
DA:184,0
DA:187,0
DA:188,0
DA:189,0
DA:191,0
DA:192,0
DA:193,0
DA:195,0
DA:196,0
DA:197,0
DA:199,0
DA:200,0
DA:201,0
DA:203,0
DA:181,77
DA:184,77
DA:187,0
DA:188,0
DA:189,0
DA:191,0
DA:192,0
DA:193,0
DA:195,39
DA:196,39
DA:197,39
DA:199,38
DA:200,38
DA:201,38
DA:203,77
DA:181,0
DA:184,0
DA:187,0
DA:188,0
DA:189,0
DA:191,0
DA:192,0
DA:193,0
DA:195,0
DA:196,0
DA:197,0
DA:199,0
DA:200,0
DA:201,0
DA:203,0
DA:181,0
DA:184,0
DA:187,0
DA:188,0
DA:189,0
DA:191,0
DA:192,0
DA:193,0
DA:195,0
DA:196,0
DA:197,0
DA:199,0
DA:200,0
DA:201,0
DA:203,0
DA:181,0
DA:184,0
DA:187,0
DA:188,0
DA:189,0
DA:191,0
DA:192,0
DA:193,0
DA:195,0
DA:196,0
DA:197,0
DA:199,0
DA:200,0
DA:201,0
DA:203,0
DA:181,14
DA:184,14
DA:187,0
DA:188,0
DA:189,0
DA:191,0
DA:192,0
DA:193,0
DA:195,7
DA:196,7
DA:197,7
DA:199,7
DA:200,7
DA:201,7
DA:203,14
DA:181,0
DA:184,0
DA:187,0
DA:188,0
DA:189,0
DA:191,0
DA:192,0
DA:193,0
DA:195,0
DA:196,0
DA:197,0
DA:199,0
DA:200,0
DA:201,0
DA:203,0
DA:181,0
DA:184,0
DA:187,0
DA:188,0
DA:189,0
DA:191,0
DA:192,0
DA:193,0
DA:195,0
DA:196,0
DA:197,0
DA:199,0
DA:200,0
DA:201,0
DA:203,0
DA:181,0
DA:184,0
DA:187,0
DA:188,0
DA:189,0
DA:191,0
DA:192,0
DA:193,0
DA:195,0
DA:196,0
DA:197,0
DA:199,0
DA:200,0
DA:201,0
DA:203,0
DA:181,0
DA:184,0
DA:187,0
DA:188,0
DA:189,0
DA:191,0
DA:192,0
DA:193,0
DA:195,0
DA:196,0
DA:197,0
DA:199,0
DA:200,0
DA:201,0
DA:203,0
DA:207,0
DA:208,0
DA:207,0
DA:208,0
DA:207,0
DA:208,0
DA:207,621
DA:208,621
DA:207,0
DA:208,0
DA:207,0
DA:208,0
DA:207,0
DA:208,0
DA:207,15
DA:208,15
DA:207,0
DA:208,0
DA:207,0
DA:208,0
DA:207,0
DA:208,0
DA:207,4
DA:208,4
DA:207,0
DA:208,0
DA:207,0
DA:208,0
DA:207,0
DA:208,0
DA:207,0
DA:208,0
DA:227,0
DA:228,0
DA:227,0
DA:228,0
DA:227,0
DA:228,0
DA:227,621
DA:228,621
DA:227,0
DA:228,0
DA:227,0
DA:228,0
DA:227,0
DA:228,0
DA:227,15
DA:228,15
DA:227,0
DA:228,0
DA:227,0
DA:228,0
DA:227,0
DA:228,0
DA:227,4
DA:228,4
DA:227,0
DA:228,0
DA:227,0
DA:228,0
DA:227,0
DA:228,0
DA:227,0
DA:228,0
DA:232,0
DA:233,0
DA:232,0
DA:233,0
DA:232,0
DA:233,0
DA:232,15
DA:233,15
DA:232,0
DA:233,0
DA:232,0
DA:233,0
DA:232,0
DA:233,0
DA:232,4
DA:233,4
DA:232,0
DA:233,0
DA:232,0
DA:233,0
DA:232,0
DA:233,0
DA:232,0
DA:233,0
DA:236,0
DA:237,0
DA:236,0
DA:237,0
DA:236,0
DA:237,0
DA:236,621
DA:237,621
DA:240,4191
DA:242,4164
DA:243,4164
DA:244,4164
DA:245,1596
DA:246,4164
DA:248,0
DA:268,0
DA:271,0
DA:274,0
DA:275,0
DA:276,0
DA:278,0
DA:279,0
DA:280,0
DA:282,0
DA:283,0
DA:285,0
DA:268,0
DA:271,0
DA:274,0
DA:275,0
DA:276,0
DA:278,0
DA:279,0
DA:280,0
DA:282,0
DA:283,0
DA:285,0
DA:268,0
DA:271,0
DA:274,0
DA:275,0
DA:276,0
DA:278,0
DA:279,0
DA:280,0
DA:282,0
DA:283,0
DA:285,0
DA:268,2488
DA:271,2488
DA:274,0
DA:275,0
DA:276,0
DA:278,0
DA:279,0
DA:280,0
DA:282,2488
DA:283,2488
DA:285,2488
DA:268,0
DA:271,0
DA:274,0
DA:275,0
DA:276,0
DA:278,0
DA:279,0
DA:280,0
DA:282,0
DA:283,0
DA:285,0
DA:268,0
DA:271,0
DA:274,0
DA:275,0
DA:276,0
DA:278,0
DA:279,0
DA:280,0
DA:282,0
DA:283,0
DA:285,0
DA:268,0
DA:271,0
DA:274,0
DA:275,0
DA:276,0
DA:278,0
DA:279,0
DA:280,0
DA:282,0
DA:283,0
DA:285,0
DA:268,77
DA:271,77
DA:274,0
DA:275,0
DA:276,0
DA:278,0
DA:279,0
DA:280,0
DA:282,77
DA:283,77
DA:285,77
DA:268,0
DA:271,0
DA:274,0
DA:275,0
DA:276,0
DA:278,0
DA:279,0
DA:280,0
DA:282,0
DA:283,0
DA:285,0
DA:268,0
DA:271,0
DA:274,0
DA:275,0
DA:276,0
DA:278,0
DA:279,0
DA:280,0
DA:282,0
DA:283,0
DA:285,0
DA:268,0
DA:271,0
DA:274,0
DA:275,0
DA:276,0
DA:278,0
DA:279,0
DA:280,0
DA:282,0
DA:283,0
DA:285,0
DA:268,14
DA:271,14
DA:274,0
DA:275,0
DA:276,0
DA:278,0
DA:279,0
DA:280,0
DA:282,14
DA:283,14
DA:285,14
DA:268,0
DA:271,0
DA:274,0
DA:275,0
DA:276,0
DA:278,0
DA:279,0
DA:280,0
DA:282,0
DA:283,0
DA:285,0
DA:268,0
DA:271,0
DA:274,0
DA:275,0
DA:276,0
DA:278,0
DA:279,0
DA:280,0
DA:282,0
DA:283,0
DA:285,0
DA:268,0
DA:271,0
DA:274,0
DA:275,0
DA:276,0
DA:278,0
DA:279,0
DA:280,0
DA:282,0
DA:283,0
DA:285,0
DA:268,0
DA:271,0
DA:274,0
DA:275,0
DA:276,0
DA:278,0
DA:279,0
DA:280,0
DA:282,0
DA:283,0
DA:285,0
DA:289,0
DA:291,0
DA:292,0
DA:289,0
DA:291,0
DA:292,0
DA:289,0
DA:291,0
DA:292,0
DA:289,4875
DA:291,4875
DA:292,4875
DA:289,0
DA:291,0
DA:292,0
DA:289,0
DA:291,0
DA:292,0
DA:289,0
DA:291,0
DA:292,0
DA:289,2532
DA:291,2532
DA:292,2532
DA:289,0
DA:291,0
DA:292,0
DA:289,0
DA:291,0
DA:292,0
DA:289,0
DA:291,0
DA:292,0
DA:289,3232
DA:291,3232
DA:292,3232
DA:289,0
DA:291,0
DA:292,0
DA:289,0
DA:291,0
DA:292,0
DA:289,0
DA:291,0
DA:292,0
DA:289,0
DA:291,0
DA:292,0
DA:330,640
DA:331,640
DA:357,1928
DA:359,1928
DA:360,1928
DA:414,640
DA:416,640
DA:417,640
DA:481,2568
DA:483,2568
DA:484,2568
DA:485,2568
DA:486,2568
DA:498,983
DA:499,983
DA:587,983
DA:589,983
DA:591,983
DA:593,983
DA:594,983
DA:595,983
DA:597,983
DA:601,0
DA:603,0
DA:607,0
DA:609,0
DA:610,0
DA:611,0
DA:613,0
DA:601,0
DA:603,0
DA:607,0
DA:609,0
DA:610,0
DA:611,0
DA:613,0
DA:601,0
DA:603,0
DA:607,0
DA:609,0
DA:610,0
DA:611,0
DA:613,0
DA:601,621
DA:603,621
DA:607,621
DA:609,621
DA:610,621
DA:611,621
DA:613,621
DA:601,0
DA:603,0
DA:607,0
DA:609,0
DA:610,0
DA:611,0
DA:613,0
DA:601,0
DA:603,0
DA:607,0
DA:609,0
DA:610,0
DA:611,0
DA:613,0
DA:601,0
DA:603,0
DA:607,0
DA:609,0
DA:610,0
DA:611,0
DA:613,0
DA:601,15
DA:603,15
DA:607,15
DA:609,15
DA:610,15
DA:611,15
DA:613,15
DA:601,0
DA:603,0
DA:607,0
DA:609,0
DA:610,0
DA:611,0
DA:613,0
DA:601,0
DA:603,0
DA:607,0
DA:609,0
DA:610,0
DA:611,0
DA:613,0
DA:601,0
DA:603,0
DA:607,0
DA:609,0
DA:610,0
DA:611,0
DA:613,0
DA:601,4
DA:603,4
DA:607,4
DA:609,4
DA:610,4
DA:611,4
DA:613,4
DA:601,0
DA:603,0
DA:607,0
DA:609,0
DA:610,0
DA:611,0
DA:613,0
DA:601,0
DA:603,0
DA:607,0
DA:609,0
DA:610,0
DA:611,0
DA:613,0
DA:601,0
DA:603,0
DA:607,0
DA:609,0
DA:610,0
DA:611,0
DA:613,0
DA:601,0
DA:603,0
DA:607,0
DA:609,0
DA:610,0
DA:611,0
DA:613,0
DA:617,0
DA:620,0
DA:621,0
DA:622,0
LF:949
LH:161
end_of_record
SF:/usr/lib/gcc/x86_64-pc-msys/10.2.0/include/c++/bits/stl_algobase.h
FN:90,_ZSt8__memcmpIccEiPKT_PKT0_m
FNDA:0,_ZSt8__memcmpIccEiPKT_PKT0_m
FN:152,_ZSt9iter_swapIN9__gnu_cxx17__normal_iteratorIPcSt6vectorIcSaIcEEEES6_EvT_T0_
FNDA:0,_ZSt9iter_swapIN9__gnu_cxx17__normal_iteratorIPcSt6vectorIcSaIcEEEES6_EvT_T0_
FN:230,_ZSt3minImERKT_S2_S2_
FNDA:0,_ZSt3minImERKT_S2_S2_
FN:254,_ZSt3maxImERKT_S2_S2_
FNDA:0,_ZSt3maxImERKT_S2_S2_
FN:313,_ZSt12__niter_baseIPdET_S1_
FNDA:0,_ZSt12__niter_baseIPdET_S1_
FN:313,_ZSt12__niter_baseIPSt9sub_matchIN9__gnu_cxx17__normal_iteratorIPKcSsEEEET_S8_
FNDA:0,_ZSt12__niter_baseIPSt9sub_matchIN9__gnu_cxx17__normal_iteratorIPKcSsEEEET_S8_
FN:313,_ZSt12__niter_baseIPPNSt8__detail9_StateSeqISt12regex_traitsIcEEEET_S7_
FNDA:0,_ZSt12__niter_baseIPPNSt8__detail9_StateSeqISt12regex_traitsIcEEEET_S7_
FN:313,_ZSt12__niter_baseISt19_Bit_const_iteratorET_S1_
FNDA:2,_ZSt12__niter_baseISt19_Bit_const_iteratorET_S1_
FN:313,_ZSt12__niter_baseIPNSt12regex_traitsIcE10_RegexMaskEET_S4_
FNDA:0,_ZSt12__niter_baseIPNSt12regex_traitsIcE10_RegexMaskEET_S4_
FN:313,_ZSt12__niter_baseIPmET_S1_
FNDA:3669,_ZSt12__niter_baseIPmET_S1_
FN:313,_ZSt12__niter_baseIPcET_S1_
FNDA:156203,_ZSt12__niter_baseIPcET_S1_
FN:313,_ZSt12__niter_baseIPSsET_S1_
FNDA:0,_ZSt12__niter_baseIPSsET_S1_
FN:313,_ZSt12__niter_baseISt13_Bit_iteratorET_S1_
FNDA:4,_ZSt12__niter_baseISt13_Bit_iteratorET_S1_
FN:313,_ZSt12__niter_baseIPiET_S1_
FNDA:0,_ZSt12__niter_baseIPiET_S1_
FN:313,_ZSt12__niter_baseIPSt4pairIccEET_S3_
FNDA:36,_ZSt12__niter_baseIPSt4pairIccEET_S3_
FN:313,_ZSt12__niter_baseIPSt6vectorIdSaIdEEET_S4_
FNDA:96,_ZSt12__niter_baseIPSt6vectorIdSaIdEEET_S4_
FN:313,_ZSt12__niter_baseIPSt4pairISsSsEET_S3_
FNDA:0,_ZSt12__niter_baseIPSt4pairISsSsEET_S3_
FN:313,_ZSt12__niter_baseIP8DataTypeET_S2_
FNDA:24,_ZSt12__niter_baseIP8DataTypeET_S2_
FN:313,_ZSt12__niter_baseIPSt4pairIlSt6vectorISt9sub_matchIN9__gnu_cxx17__normal_iteratorIPKcSsEEESaIS8_EEEET_SD_
FNDA:0,_ZSt12__niter_baseIPSt4pairIlSt6vectorISt9sub_matchIN9__gnu_cxx17__normal_iteratorIPKcSsEEESaIS8_EEEET_SD_
FN:313,_ZSt12__niter_baseIPKcET_S2_
FNDA:0,_ZSt12__niter_baseIPKcET_S2_
FN:313,_ZSt12__niter_baseIPPlET_S2_
FNDA:0,_ZSt12__niter_baseIPPlET_S2_
FN:323,_ZSt12__niter_wrapIN9__gnu_cxx17__normal_iteratorIPSt9sub_matchINS1_IPKcSsEEESt6vectorIS6_SaIS6_EEEES7_ET_SC_T0_
FNDA:20556,_ZSt12__niter_wrapIN9__gnu_cxx17__normal_iteratorIPSt9sub_matchINS1_IPKcSsEEESt6vectorIS6_SaIS6_EEEES7_ET_SC_T0_
FN:323,_ZSt12__niter_wrapIN9__gnu_cxx17__normal_iteratorIPcSt6vectorIcSaIcEEEES2_ET_S7_T0_
FNDA:6,_ZSt12__niter_wrapIN9__gnu_cxx17__normal_iteratorIPcSt6vectorIcSaIcEEEES2_ET_S7_T0_
FN:323,_ZSt12__niter_wrapIN9__gnu_cxx17__normal_iteratorIPSsSt6vectorISsSaISsEEEES2_ET_S7_T0_
FNDA:0,_ZSt12__niter_wrapIN9__gnu_cxx17__normal_iteratorIPSsSt6vectorISsSaISsEEEES2_ET_S7_T0_
FN:330,_ZSt12__niter_wrapIP8DataTypeET_RKS2_S2_
FNDA:0,_ZSt12__niter_wrapIP8DataTypeET_RKS2_S2_
FN:330,_ZSt12__niter_wrapIPdET_RKS1_S1_
FNDA:0,_ZSt12__niter_wrapIPdET_RKS1_S1_
FN:330,_ZSt12__niter_wrapIPiET_RKS1_S1_
FNDA:0,_ZSt12__niter_wrapIPiET_RKS1_S1_
FN:330,_ZSt12__niter_wrapIPSsET_RKS1_S1_
FNDA:0,_ZSt12__niter_wrapIPSsET_RKS1_S1_
FN:330,_ZSt12__niter_wrapIPPlET_RKS2_S2_
FNDA:0,_ZSt12__niter_wrapIPPlET_RKS2_S2_
FN:330,_ZSt12__niter_wrapIPPNSt8__detail9_StateSeqISt12regex_traitsIcEEEET_RKS7_S7_
FNDA:0,_ZSt12__niter_wrapIPPNSt8__detail9_StateSeqISt12regex_traitsIcEEEET_RKS7_S7_
FN:330,_ZSt12__niter_wrapIPSt9sub_matchIN9__gnu_cxx17__normal_iteratorIPKcSsEEEET_RKS8_S8_
FNDA:0,_ZSt12__niter_wrapIPSt9sub_matchIN9__gnu_cxx17__normal_iteratorIPKcSsEEEET_RKS8_S8_
FN:330,_ZSt12__niter_wrapIPmET_RKS1_S1_
FNDA:1,_ZSt12__niter_wrapIPmET_RKS1_S1_
FN:330,_ZSt12__niter_wrapISt13_Bit_iteratorET_RKS1_S1_
FNDA:2,_ZSt12__niter_wrapISt13_Bit_iteratorET_RKS1_S1_
FN:330,_ZSt12__niter_wrapIPcET_RKS1_S1_
FNDA:156131,_ZSt12__niter_wrapIPcET_RKS1_S1_
FN:375,_ZNSt11__copy_moveILb0ELb0ESt26random_access_iterator_tagE8__copy_mIPSt9sub_matchIN9__gnu_cxx17__normal_iteratorIPKcSsEEESA_EET0_T_SC_SB_
FNDA:0,_ZNSt11__copy_moveILb0ELb0ESt26random_access_iterator_tagE8__copy_mIPSt9sub_matchIN9__gnu_cxx17__normal_iteratorIPKcSsEEESA_EET0_T_SC_SB_
FN:375,_ZNSt11__copy_moveILb0ELb0ESt26random_access_iterator_tagE8__copy_mISt19_Bit_const_iteratorSt13_Bit_iteratorEET0_T_S6_S5_
FNDA:1,_ZNSt11__copy_moveILb0ELb0ESt26random_access_iterator_tagE8__copy_mISt19_Bit_const_iteratorSt13_Bit_iteratorEET0_T_S6_S5_
FN:375,_ZNSt11__copy_moveILb0ELb0ESt26random_access_iterator_tagE8__copy_mIPKSt9sub_matchIN9__gnu_cxx17__normal_iteratorIPKcSsEEEPS9_EET0_T_SE_SD_
FNDA:20556,_ZNSt11__copy_moveILb0ELb0ESt26random_access_iterator_tagE8__copy_mIPKSt9sub_matchIN9__gnu_cxx17__normal_iteratorIPKcSsEEEPS9_EET0_T_SE_SD_
FN:375,_ZNSt11__copy_moveILb0ELb0ESt26random_access_iterator_tagE8__copy_mISt13_Bit_iteratorS3_EET0_T_S5_S4_
FNDA:1,_ZNSt11__copy_moveILb0ELb0ESt26random_access_iterator_tagE8__copy_mISt13_Bit_iteratorS3_EET0_T_S5_S4_
FN:375,_ZNSt11__copy_moveILb0ELb0ESt26random_access_iterator_tagE8__copy_mIPKSsPSsEET0_T_S7_S6_
FNDA:0,_ZNSt11__copy_moveILb0ELb0ESt26random_access_iterator_tagE8__copy_mIPKSsPSsEET0_T_S7_S6_
FN:375,_ZNSt11__copy_moveILb0ELb0ESt26random_access_iterator_tagE8__copy_mIPSsS3_EET0_T_S5_S4_
FNDA:0,_ZNSt11__copy_moveILb0ELb0ESt26random_access_iterator_tagE8__copy_mIPSsS3_EET0_T_S5_S4_
FN:415,_ZNSt11__copy_moveILb0ELb1ESt26random_access_iterator_tagE8__copy_mIcEEPT_PKS3_S6_S4_
FNDA:156131,_ZNSt11__copy_moveILb0ELb1ESt26random_access_iterator_tagE8__copy_mIcEEPT_PKS3_S6_S4_
FN:415,_ZNSt11__copy_moveILb1ELb1ESt26random_access_iterator_tagE8__copy_mImEEPT_PKS3_S6_S4_
FNDA:0,_ZNSt11__copy_moveILb1ELb1ESt26random_access_iterator_tagE8__copy_mImEEPT_PKS3_S6_S4_
FN:415,_ZNSt11__copy_moveILb0ELb1ESt26random_access_iterator_tagE8__copy_mImEEPT_PKS3_S6_S4_
FNDA:1,_ZNSt11__copy_moveILb0ELb1ESt26random_access_iterator_tagE8__copy_mImEEPT_PKS3_S6_S4_
FN:415,_ZNSt11__copy_moveILb0ELb1ESt26random_access_iterator_tagE8__copy_mIPNSt8__detail9_StateSeqISt12regex_traitsIcEEEEEPT_PKS9_SC_SA_
FNDA:0,_ZNSt11__copy_moveILb0ELb1ESt26random_access_iterator_tagE8__copy_mIPNSt8__detail9_StateSeqISt12regex_traitsIcEEEEEPT_PKS9_SC_SA_
FN:415,_ZNSt11__copy_moveILb1ELb1ESt26random_access_iterator_tagE8__copy_mIcEEPT_PKS3_S6_S4_
FNDA:0,_ZNSt11__copy_moveILb1ELb1ESt26random_access_iterator_tagE8__copy_mIcEEPT_PKS3_S6_S4_
FN:415,_ZNSt11__copy_moveILb1ELb1ESt26random_access_iterator_tagE8__copy_mI8DataTypeEEPT_PKS4_S7_S5_
FNDA:0,_ZNSt11__copy_moveILb1ELb1ESt26random_access_iterator_tagE8__copy_mI8DataTypeEEPT_PKS4_S7_S5_
FN:415,_ZNSt11__copy_moveILb1ELb1ESt26random_access_iterator_tagE8__copy_mIiEEPT_PKS3_S6_S4_
FNDA:0,_ZNSt11__copy_moveILb1ELb1ESt26random_access_iterator_tagE8__copy_mIiEEPT_PKS3_S6_S4_
FN:415,_ZNSt11__copy_moveILb1ELb1ESt26random_access_iterator_tagE8__copy_mIdEEPT_PKS3_S6_S4_
FNDA:0,_ZNSt11__copy_moveILb1ELb1ESt26random_access_iterator_tagE8__copy_mIdEEPT_PKS3_S6_S4_
FN:415,_ZNSt11__copy_moveILb0ELb1ESt26random_access_iterator_tagE8__copy_mIPlEEPT_PKS4_S7_S5_
FNDA:0,_ZNSt11__copy_moveILb0ELb1ESt26random_access_iterator_tagE8__copy_mIPlEEPT_PKS4_S7_S5_
FN:463,_ZSt14__copy_move_a2ILb0EPKSsPSsET1_T0_S4_S3_
FNDA:0,_ZSt14__copy_move_a2ILb0EPKSsPSsET1_T0_S4_S3_
FN:463,_ZSt14__copy_move_a2ILb0EPSsS0_ET1_T0_S2_S1_
FNDA:0,_ZSt14__copy_move_a2ILb0EPSsS0_ET1_T0_S2_S1_
FN:463,_ZSt14__copy_move_a2ILb0EPSt9sub_matchIN9__gnu_cxx17__normal_iteratorIPKcSsEEES7_ET1_T0_S9_S8_
FNDA:0,_ZSt14__copy_move_a2ILb0EPSt9sub_matchIN9__gnu_cxx17__normal_iteratorIPKcSsEEES7_ET1_T0_S9_S8_
FN:463,_ZSt14__copy_move_a2ILb0EPKSt9sub_matchIN9__gnu_cxx17__normal_iteratorIPKcSsEEEPS6_ET1_T0_SB_SA_
FNDA:20556,_ZSt14__copy_move_a2ILb0EPKSt9sub_matchIN9__gnu_cxx17__normal_iteratorIPKcSsEEEPS6_ET1_T0_SB_SA_
FN:463,_ZSt14__copy_move_a2ILb0ESt13_Bit_iteratorS0_ET1_T0_S2_S1_
FNDA:1,_ZSt14__copy_move_a2ILb0ESt13_Bit_iteratorS0_ET1_T0_S2_S1_
FN:463,_ZSt14__copy_move_a2ILb0EPmS0_ET1_T0_S2_S1_
FNDA:1,_ZSt14__copy_move_a2ILb0EPmS0_ET1_T0_S2_S1_
FN:463,_ZSt14__copy_move_a2ILb0ESt19_Bit_const_iteratorSt13_Bit_iteratorET1_T0_S3_S2_
FNDA:1,_ZSt14__copy_move_a2ILb0ESt19_Bit_const_iteratorSt13_Bit_iteratorET1_T0_S3_S2_
FN:463,_ZSt14__copy_move_a2ILb1EPdS0_ET1_T0_S2_S1_
FNDA:0,_ZSt14__copy_move_a2ILb1EPdS0_ET1_T0_S2_S1_
FN:463,_ZSt14__copy_move_a2ILb1EPiS0_ET1_T0_S2_S1_
FNDA:0,_ZSt14__copy_move_a2ILb1EPiS0_ET1_T0_S2_S1_
FN:463,_ZSt14__copy_move_a2ILb1EP8DataTypeS1_ET1_T0_S3_S2_
FNDA:0,_ZSt14__copy_move_a2ILb1EP8DataTypeS1_ET1_T0_S3_S2_
FN:463,_ZSt14__copy_move_a2ILb0EPPlS1_ET1_T0_S3_S2_
FNDA:0,_ZSt14__copy_move_a2ILb0EPPlS1_ET1_T0_S3_S2_
FN:463,_ZSt14__copy_move_a2ILb1EPmS0_ET1_T0_S2_S1_
FNDA:0,_ZSt14__copy_move_a2ILb1EPmS0_ET1_T0_S2_S1_
FN:463,_ZSt14__copy_move_a2ILb0EPKcPcET1_T0_S4_S3_
FNDA:156131,_ZSt14__copy_move_a2ILb0EPKcPcET1_T0_S4_S3_
FN:463,_ZSt14__copy_move_a2ILb0EPPNSt8__detail9_StateSeqISt12regex_traitsIcEEES6_ET1_T0_S8_S7_
FNDA:0,_ZSt14__copy_move_a2ILb0EPPNSt8__detail9_StateSeqISt12regex_traitsIcEEES6_ET1_T0_S8_S7_
FN:463,_ZSt14__copy_move_a2ILb1EPcS0_ET1_T0_S2_S1_
FNDA:0,_ZSt14__copy_move_a2ILb1EPcS0_ET1_T0_S2_S1_
FN:505,_ZSt14__copy_move_a1ILb1EPiS0_ET1_T0_S2_S1_
FNDA:0,_ZSt14__copy_move_a1ILb1EPiS0_ET1_T0_S2_S1_
FN:505,_ZSt14__copy_move_a1ILb1EPcS0_ET1_T0_S2_S1_
FNDA:0,_ZSt14__copy_move_a1ILb1EPcS0_ET1_T0_S2_S1_
FN:505,_ZSt14__copy_move_a1ILb0EPKcPcET1_T0_S4_S3_
FNDA:156131,_ZSt14__copy_move_a1ILb0EPKcPcET1_T0_S4_S3_
FN:505,_ZSt14__copy_move_a1ILb1EPdS0_ET1_T0_S2_S1_
FNDA:0,_ZSt14__copy_move_a1ILb1EPdS0_ET1_T0_S2_S1_
FN:505,_ZSt14__copy_move_a1ILb0EPSsS0_ET1_T0_S2_S1_
FNDA:0,_ZSt14__copy_move_a1ILb0EPSsS0_ET1_T0_S2_S1_
FN:505,_ZSt14__copy_move_a1ILb0EPKSt9sub_matchIN9__gnu_cxx17__normal_iteratorIPKcSsEEEPS6_ET1_T0_SB_SA_
FNDA:20556,_ZSt14__copy_move_a1ILb0EPKSt9sub_matchIN9__gnu_cxx17__normal_iteratorIPKcSsEEEPS6_ET1_T0_SB_SA_
FN:505,_ZSt14__copy_move_a1ILb0EPPNSt8__detail9_StateSeqISt12regex_traitsIcEEES6_ET1_T0_S8_S7_
FNDA:0,_ZSt14__copy_move_a1ILb0EPPNSt8__detail9_StateSeqISt12regex_traitsIcEEES6_ET1_T0_S8_S7_
FN:505,_ZSt14__copy_move_a1ILb0EPSt9sub_matchIN9__gnu_cxx17__normal_iteratorIPKcSsEEES7_ET1_T0_S9_S8_
FNDA:0,_ZSt14__copy_move_a1ILb0EPSt9sub_matchIN9__gnu_cxx17__normal_iteratorIPKcSsEEES7_ET1_T0_S9_S8_
FN:505,_ZSt14__copy_move_a1ILb0ESt13_Bit_iteratorS0_ET1_T0_S2_S1_
FNDA:1,_ZSt14__copy_move_a1ILb0ESt13_Bit_iteratorS0_ET1_T0_S2_S1_
FN:505,_ZSt14__copy_move_a1ILb1EP8DataTypeS1_ET1_T0_S3_S2_
FNDA:0,_ZSt14__copy_move_a1ILb1EP8DataTypeS1_ET1_T0_S3_S2_
FN:505,_ZSt14__copy_move_a1ILb0EPPlS1_ET1_T0_S3_S2_
FNDA:0,_ZSt14__copy_move_a1ILb0EPPlS1_ET1_T0_S3_S2_
FN:505,_ZSt14__copy_move_a1ILb1EPmS0_ET1_T0_S2_S1_
FNDA:0,_ZSt14__copy_move_a1ILb1EPmS0_ET1_T0_S2_S1_
FN:505,_ZSt14__copy_move_a1ILb0EPmS0_ET1_T0_S2_S1_
FNDA:1,_ZSt14__copy_move_a1ILb0EPmS0_ET1_T0_S2_S1_
FN:505,_ZSt14__copy_move_a1ILb0EPKSsPSsET1_T0_S4_S3_
FNDA:0,_ZSt14__copy_move_a1ILb0EPKSsPSsET1_T0_S4_S3_
FN:505,_ZSt14__copy_move_a1ILb0ESt19_Bit_const_iteratorSt13_Bit_iteratorET1_T0_S3_S2_
FNDA:1,_ZSt14__copy_move_a1ILb0ESt19_Bit_const_iteratorSt13_Bit_iteratorET1_T0_S3_S2_
FN:511,_ZSt13__copy_move_aILb0EN9__gnu_cxx17__normal_iteratorIPKSt9sub_matchINS1_IPKcSsEEESt6vectorIS6_SaIS6_EEEENS1_IPS6_SB_EEET1_T0_SG_SF_
FNDA:20556,_ZSt13__copy_move_aILb0EN9__gnu_cxx17__normal_iteratorIPKSt9sub_matchINS1_IPKcSsEEESt6vectorIS6_SaIS6_EEEENS1_IPS6_SB_EEET1_T0_SG_SF_
FN:511,_ZSt13__copy_move_aILb0ESt19_Bit_const_iteratorSt13_Bit_iteratorET1_T0_S3_S2_
FNDA:1,_ZSt13__copy_move_aILb0ESt19_Bit_const_iteratorSt13_Bit_iteratorET1_T0_S3_S2_
FN:511,_ZSt13__copy_move_aILb1EPdS0_ET1_T0_S2_S1_
FNDA:0,_ZSt13__copy_move_aILb1EPdS0_ET1_T0_S2_S1_
FN:511,_ZSt13__copy_move_aILb1EPiS0_ET1_T0_S2_S1_
FNDA:0,_ZSt13__copy_move_aILb1EPiS0_ET1_T0_S2_S1_
FN:511,_ZSt13__copy_move_aILb1EP8DataTypeS1_ET1_T0_S3_S2_
FNDA:0,_ZSt13__copy_move_aILb1EP8DataTypeS1_ET1_T0_S3_S2_
FN:511,_ZSt13__copy_move_aILb0EPmS0_ET1_T0_S2_S1_
FNDA:1,_ZSt13__copy_move_aILb0EPmS0_ET1_T0_S2_S1_
FN:511,_ZSt13__copy_move_aILb0EPPlS1_ET1_T0_S3_S2_
FNDA:0,_ZSt13__copy_move_aILb0EPPlS1_ET1_T0_S3_S2_
FN:511,_ZSt13__copy_move_aILb0EN9__gnu_cxx17__normal_iteratorIPKcSt6vectorIcSaIcEEEEPcET1_T0_SA_S9_
FNDA:937,_ZSt13__copy_move_aILb0EN9__gnu_cxx17__normal_iteratorIPKcSt6vectorIcSaIcEEEEPcET1_T0_SA_S9_
FN:511,_ZSt13__copy_move_aILb0EN9__gnu_cxx17__normal_iteratorIPKSsSt6vectorISsSaISsEEEENS1_IPSsS6_EEET1_T0_SB_SA_
FNDA:0,_ZSt13__copy_move_aILb0EN9__gnu_cxx17__normal_iteratorIPKSsSt6vectorISsSaISsEEEENS1_IPSsS6_EEET1_T0_SB_SA_
FN:511,_ZSt13__copy_move_aILb1EPmS0_ET1_T0_S2_S1_
FNDA:0,_ZSt13__copy_move_aILb1EPmS0_ET1_T0_S2_S1_
FN:511,_ZSt13__copy_move_aILb0EPPNSt8__detail9_StateSeqISt12regex_traitsIcEEES6_ET1_T0_S8_S7_
FNDA:0,_ZSt13__copy_move_aILb0EPPNSt8__detail9_StateSeqISt12regex_traitsIcEEES6_ET1_T0_S8_S7_
FN:511,_ZSt13__copy_move_aILb0EPSsS0_ET1_T0_S2_S1_
FNDA:0,_ZSt13__copy_move_aILb0EPSsS0_ET1_T0_S2_S1_
FN:511,_ZSt13__copy_move_aILb1EN9__gnu_cxx17__normal_iteratorIPcSt6vectorIcSaIcEEEES6_ET1_T0_S8_S7_
FNDA:0,_ZSt13__copy_move_aILb1EN9__gnu_cxx17__normal_iteratorIPcSt6vectorIcSaIcEEEES6_ET1_T0_S8_S7_
FN:511,_ZSt13__copy_move_aILb0ESt13_Bit_iteratorS0_ET1_T0_S2_S1_
FNDA:1,_ZSt13__copy_move_aILb0ESt13_Bit_iteratorS0_ET1_T0_S2_S1_
FN:511,_ZSt13__copy_move_aILb1EPcS0_ET1_T0_S2_S1_
FNDA:0,_ZSt13__copy_move_aILb1EPcS0_ET1_T0_S2_S1_
FN:511,_ZSt13__copy_move_aILb0EPSt9sub_matchIN9__gnu_cxx17__normal_iteratorIPKcSsEEES7_ET1_T0_S9_S8_
FNDA:0,_ZSt13__copy_move_aILb0EPSt9sub_matchIN9__gnu_cxx17__normal_iteratorIPKcSsEEES7_ET1_T0_S9_S8_
FN:511,_ZSt13__copy_move_aILb0EPKcPcET1_T0_S4_S3_
FNDA:155194,_ZSt13__copy_move_aILb0EPKcPcET1_T0_S4_S3_
FN:560,_ZSt4copyIPSsS0_ET0_T_S2_S1_
FNDA:0,_ZSt4copyIPSsS0_ET0_T_S2_S1_
FN:560,_ZSt4copyIPKcPcET0_T_S4_S3_
FNDA:155194,_ZSt4copyIPKcPcET0_T_S4_S3_
FN:560,_ZSt4copyISt13_Bit_iteratorS0_ET0_T_S2_S1_
FNDA:1,_ZSt4copyISt13_Bit_iteratorS0_ET0_T_S2_S1_
FN:560,_ZSt4copyIPPNSt8__detail9_StateSeqISt12regex_traitsIcEEES6_ET0_T_S8_S7_
FNDA:0,_ZSt4copyIPPNSt8__detail9_StateSeqISt12regex_traitsIcEEES6_ET0_T_S8_S7_
FN:560,_ZSt4copyISt13move_iteratorIPmES1_ET0_T_S4_S3_
FNDA:0,_ZSt4copyISt13move_iteratorIPmES1_ET0_T_S4_S3_
FN:560,_ZSt4copyIPmS0_ET0_T_S2_S1_
FNDA:1,_ZSt4copyIPmS0_ET0_T_S2_S1_
FN:560,_ZSt4copyIN9__gnu_cxx17__normal_iteratorIPKSsSt6vectorISsSaISsEEEENS1_IPSsS6_EEET0_T_SB_SA_
FNDA:0,_ZSt4copyIN9__gnu_cxx17__normal_iteratorIPKSsSt6vectorISsSaISsEEEENS1_IPSsS6_EEET0_T_SB_SA_
FN:560,_ZSt4copyIN9__gnu_cxx17__normal_iteratorIPKcSt6vectorIcSaIcEEEEPcET0_T_SA_S9_
FNDA:937,_ZSt4copyIN9__gnu_cxx17__normal_iteratorIPKcSt6vectorIcSaIcEEEEPcET0_T_SA_S9_
FN:560,_ZSt4copyISt13move_iteratorIPdES1_ET0_T_S4_S3_
FNDA:0,_ZSt4copyISt13move_iteratorIPdES1_ET0_T_S4_S3_
FN:560,_ZSt4copyISt19_Bit_const_iteratorSt13_Bit_iteratorET0_T_S3_S2_
FNDA:1,_ZSt4copyISt19_Bit_const_iteratorSt13_Bit_iteratorET0_T_S3_S2_
FN:560,_ZSt4copyISt13move_iteratorIPiES1_ET0_T_S4_S3_
FNDA:0,_ZSt4copyISt13move_iteratorIPiES1_ET0_T_S4_S3_
FN:560,_ZSt4copyISt13move_iteratorIP8DataTypeES2_ET0_T_S5_S4_
FNDA:0,_ZSt4copyISt13move_iteratorIP8DataTypeES2_ET0_T_S5_S4_
FN:560,_ZSt4copyISt13move_iteratorIPcES1_ET0_T_S4_S3_
FNDA:0,_ZSt4copyISt13move_iteratorIPcES1_ET0_T_S4_S3_
FN:560,_ZSt4copyIN9__gnu_cxx17__normal_iteratorIPKSt9sub_matchINS1_IPKcSsEEESt6vectorIS6_SaIS6_EEEENS1_IPS6_SB_EEET0_T_SG_SF_
FNDA:20556,_ZSt4copyIN9__gnu_cxx17__normal_iteratorIPKSt9sub_matchINS1_IPKcSsEEESt6vectorIS6_SaIS6_EEEENS1_IPS6_SB_EEET0_T_SG_SF_
FN:560,_ZSt4copyIPSt9sub_matchIN9__gnu_cxx17__normal_iteratorIPKcSsEEES7_ET0_T_S9_S8_
FNDA:0,_ZSt4copyIPSt9sub_matchIN9__gnu_cxx17__normal_iteratorIPKcSsEEES7_ET0_T_S9_S8_
FN:560,_ZSt4copyIPPlS1_ET0_T_S3_S2_
FNDA:0,_ZSt4copyIPPlS1_ET0_T_S3_S2_
FN:593,_ZSt4moveIN9__gnu_cxx17__normal_iteratorIPcSt6vectorIcSaIcEEEES6_ET0_T_S8_S7_
FNDA:0,_ZSt4moveIN9__gnu_cxx17__normal_iteratorIPcSt6vectorIcSaIcEEEES6_ET0_T_S8_S7_
FN:646,_ZNSt20__copy_move_backwardILb0ELb0ESt26random_access_iterator_tagE13__copy_move_bISt13_Bit_iteratorS3_EET0_T_S5_S4_
FNDA:0,_ZNSt20__copy_move_backwardILb0ELb0ESt26random_access_iterator_tagE13__copy_move_bISt13_Bit_iteratorS3_EET0_T_S5_S4_
FN:680,_ZNSt20__copy_move_backwardILb0ELb1ESt26random_access_iterator_tagE13__copy_move_bIPNSt8__detail9_StateSeqISt12regex_traitsIcEEEEEPT_PKS9_SC_SA_
FNDA:0,_ZNSt20__copy_move_backwardILb0ELb1ESt26random_access_iterator_tagE13__copy_move_bIPNSt8__detail9_StateSeqISt12regex_traitsIcEEEEEPT_PKS9_SC_SA_
FN:680,_ZNSt20__copy_move_backwardILb1ELb1ESt26random_access_iterator_tagE13__copy_move_bIcEEPT_PKS3_S6_S4_
FNDA:6,_ZNSt20__copy_move_backwardILb1ELb1ESt26random_access_iterator_tagE13__copy_move_bIcEEPT_PKS3_S6_S4_
FN:680,_ZNSt20__copy_move_backwardILb0ELb1ESt26random_access_iterator_tagE13__copy_move_bIPlEEPT_PKS4_S7_S5_
FNDA:0,_ZNSt20__copy_move_backwardILb0ELb1ESt26random_access_iterator_tagE13__copy_move_bIPlEEPT_PKS4_S7_S5_
FN:699,_ZSt23__copy_move_backward_a2ILb0EPPlS1_ET1_T0_S3_S2_
FNDA:0,_ZSt23__copy_move_backward_a2ILb0EPPlS1_ET1_T0_S3_S2_
FN:699,_ZSt23__copy_move_backward_a2ILb1EPcS0_ET1_T0_S2_S1_
FNDA:6,_ZSt23__copy_move_backward_a2ILb1EPcS0_ET1_T0_S2_S1_
FN:699,_ZSt23__copy_move_backward_a2ILb0ESt13_Bit_iteratorS0_ET1_T0_S2_S1_
FNDA:0,_ZSt23__copy_move_backward_a2ILb0ESt13_Bit_iteratorS0_ET1_T0_S2_S1_
FN:699,_ZSt23__copy_move_backward_a2ILb0EPPNSt8__detail9_StateSeqISt12regex_traitsIcEEES6_ET1_T0_S8_S7_
FNDA:0,_ZSt23__copy_move_backward_a2ILb0EPPNSt8__detail9_StateSeqISt12regex_traitsIcEEES6_ET1_T0_S8_S7_
FN:717,_ZSt23__copy_move_backward_a1ILb1EPcS0_ET1_T0_S2_S1_
FNDA:6,_ZSt23__copy_move_backward_a1ILb1EPcS0_ET1_T0_S2_S1_
FN:717,_ZSt23__copy_move_backward_a1ILb0EPPNSt8__detail9_StateSeqISt12regex_traitsIcEEES6_ET1_T0_S8_S7_
FNDA:0,_ZSt23__copy_move_backward_a1ILb0EPPNSt8__detail9_StateSeqISt12regex_traitsIcEEES6_ET1_T0_S8_S7_
FN:717,_ZSt23__copy_move_backward_a1ILb0ESt13_Bit_iteratorS0_ET1_T0_S2_S1_
FNDA:0,_ZSt23__copy_move_backward_a1ILb0ESt13_Bit_iteratorS0_ET1_T0_S2_S1_
FN:717,_ZSt23__copy_move_backward_a1ILb0EPPlS1_ET1_T0_S3_S2_
FNDA:0,_ZSt23__copy_move_backward_a1ILb0EPPlS1_ET1_T0_S3_S2_
FN:745,_ZSt22__copy_move_backward_aILb0EPPlS1_ET1_T0_S3_S2_
FNDA:0,_ZSt22__copy_move_backward_aILb0EPPlS1_ET1_T0_S3_S2_
FN:745,_ZSt22__copy_move_backward_aILb0ESt13_Bit_iteratorS0_ET1_T0_S2_S1_
FNDA:0,_ZSt22__copy_move_backward_aILb0ESt13_Bit_iteratorS0_ET1_T0_S2_S1_
FN:745,_ZSt22__copy_move_backward_aILb0EPPNSt8__detail9_StateSeqISt12regex_traitsIcEEES6_ET1_T0_S8_S7_
FNDA:0,_ZSt22__copy_move_backward_aILb0EPPNSt8__detail9_StateSeqISt12regex_traitsIcEEES6_ET1_T0_S8_S7_
FN:745,_ZSt22__copy_move_backward_aILb1EN9__gnu_cxx17__normal_iteratorIPcSt6vectorIcSaIcEEEES6_ET1_T0_S8_S7_
FNDA:6,_ZSt22__copy_move_backward_aILb1EN9__gnu_cxx17__normal_iteratorIPcSt6vectorIcSaIcEEEES6_ET1_T0_S8_S7_
FN:797,_ZSt13copy_backwardISt13_Bit_iteratorS0_ET0_T_S2_S1_
FNDA:0,_ZSt13copy_backwardISt13_Bit_iteratorS0_ET0_T_S2_S1_
FN:797,_ZSt13copy_backwardIPPNSt8__detail9_StateSeqISt12regex_traitsIcEEES6_ET0_T_S8_S7_
FNDA:0,_ZSt13copy_backwardIPPNSt8__detail9_StateSeqISt12regex_traitsIcEEES6_ET0_T_S8_S7_
FN:797,_ZSt13copy_backwardIPPlS1_ET0_T_S3_S2_
FNDA:0,_ZSt13copy_backwardIPPlS1_ET0_T_S3_S2_
FN:833,_ZSt13move_backwardIN9__gnu_cxx17__normal_iteratorIPcSt6vectorIcSaIcEEEES6_ET0_T_S8_S7_
FNDA:6,_ZSt13move_backwardIN9__gnu_cxx17__normal_iteratorIPcSt6vectorIcSaIcEEEES6_ET0_T_S8_S7_
FN:857,_ZSt9__fill_a1IPSt9sub_matchIN9__gnu_cxx17__normal_iteratorIPKcSsEEES6_ENS1_11__enable_ifIXntsrSt11__is_scalarIT0_E7__valueEvE6__typeET_SE_RKSA_
FNDA:2390,_ZSt9__fill_a1IPSt9sub_matchIN9__gnu_cxx17__normal_iteratorIPKcSsEEES6_ENS1_11__enable_ifIXntsrSt11__is_scalarIT0_E7__valueEvE6__typeET_SE_RKSA_
FN:868,_ZSt9__fill_a1IPbbEN9__gnu_cxx11__enable_ifIXsrSt11__is_scalarIT0_E7__valueEvE6__typeET_S8_RKS4_
FNDA:0,_ZSt9__fill_a1IPbbEN9__gnu_cxx11__enable_ifIXsrSt11__is_scalarIT0_E7__valueEvE6__typeET_S8_RKS4_
FN:899,_ZSt9__fill_a1IPSt9sub_matchIN9__gnu_cxx17__normal_iteratorIPKcSsEEESt6vectorIS6_SaIS6_EES6_EvNS2_IT_T0_EESD_RKT1_
FNDA:871,_ZSt9__fill_a1IPSt9sub_matchIN9__gnu_cxx17__normal_iteratorIPKcSsEEESt6vectorIS6_SaIS6_EES6_EvNS2_IT_T0_EESD_RKT1_
FN:913,_ZSt8__fill_aIPbbEvT_S1_RKT0_
FNDA:0,_ZSt8__fill_aIPbbEvT_S1_RKT0_
FN:913,_ZSt8__fill_aIPSt9sub_matchIN9__gnu_cxx17__normal_iteratorIPKcSsEEES6_EvT_S8_RKT0_
FNDA:1519,_ZSt8__fill_aIPSt9sub_matchIN9__gnu_cxx17__normal_iteratorIPKcSsEEES6_EvT_S8_RKT0_
FN:913,_ZSt8__fill_aIN9__gnu_cxx17__normal_iteratorIPSt9sub_matchINS1_IPKcSsEEESt6vectorIS6_SaIS6_EEEES6_EvT_SC_RKT0_
FNDA:871,_ZSt8__fill_aIN9__gnu_cxx17__normal_iteratorIPSt9sub_matchINS1_IPKcSsEEESt6vectorIS6_SaIS6_EEEES6_EvT_SC_RKT0_
FN:937,_ZSt4fillIN9__gnu_cxx17__normal_iteratorIPSt9sub_matchINS1_IPKcSsEEESt6vectorIS6_SaIS6_EEEES6_EvT_SC_RKT0_
FNDA:871,_ZSt4fillIN9__gnu_cxx17__normal_iteratorIPSt9sub_matchINS1_IPKcSsEEESt6vectorIS6_SaIS6_EEEES6_EvT_SC_RKT0_
FN:955,_ZSt17__size_to_integerm
FNDA:0,_ZSt17__size_to_integerm
FN:1054,_ZSt10__fill_n_aIPSt9sub_matchIN9__gnu_cxx17__normal_iteratorIPKcSsEEEmS6_ET_S8_T0_RKT1_St26random_access_iterator_tag
FNDA:1519,_ZSt10__fill_n_aIPSt9sub_matchIN9__gnu_cxx17__normal_iteratorIPKcSsEEEmS6_ET_S8_T0_RKT1_St26random_access_iterator_tag
FN:1054,_ZSt10__fill_n_aIPbmbET_S1_T0_RKT1_St26random_access_iterator_tag
FNDA:0,_ZSt10__fill_n_aIPbmbET_S1_T0_RKT1_St26random_access_iterator_tag
FN:1089,_ZSt6fill_nIPbmbET_S1_T0_RKT1_
FNDA:0,_ZSt6fill_nIPbmbET_S1_T0_RKT1_
FN:1089,_ZSt6fill_nIPSt9sub_matchIN9__gnu_cxx17__normal_iteratorIPKcSsEEEmS6_ET_S8_T0_RKT1_
FNDA:1519,_ZSt6fill_nIPSt9sub_matchIN9__gnu_cxx17__normal_iteratorIPKcSsEEEmS6_ET_S8_T0_RKT1_
FN:1119,_ZNSt7__equalILb1EE5equalIcEEbPKT_S4_S4_
FNDA:0,_ZNSt7__equalILb1EE5equalIcEEbPKT_S4_S4_
FN:1150,_ZSt12__equal_aux1IPKcS1_EbT_S2_T0_
FNDA:0,_ZSt12__equal_aux1IPKcS1_EbT_S2_T0_
FN:1162,_ZSt11__equal_auxIN9__gnu_cxx17__normal_iteratorIPKcSsEES4_EbT_S5_T0_
FNDA:0,_ZSt11__equal_auxIN9__gnu_cxx17__normal_iteratorIPKcSsEES4_EbT_S5_T0_
FN:1311,_ZSt13__lower_boundIN9__gnu_cxx17__normal_iteratorIPKcSt6vectorIcSaIcEEEEcNS0_5__ops14_Iter_less_valEET_SA_SA_RKT0_T1_
FNDA:158976,_ZSt13__lower_boundIN9__gnu_cxx17__normal_iteratorIPKcSt6vectorIcSaIcEEEEcNS0_5__ops14_Iter_less_valEET_SA_SA_RKT0_T1_
FN:1374,_ZSt4__lgl
FNDA:0,_ZSt4__lgl
FN:1406,_ZSt5equalIN9__gnu_cxx17__normal_iteratorIPKcSsEES4_EbT_S5_T0_
FNDA:0,_ZSt5equalIN9__gnu_cxx17__normal_iteratorIPKcSsEES4_EbT_S5_T0_
FN:1437,_ZSt5equalIN9__gnu_cxx17__normal_iteratorIPKcSsEES4_ZNSt8__detail16_Backref_matcherIS4_St12regex_traitsIcEE8_M_applyES4_S4_S4_S4_EUlccE_EbT_SB_T0_T1_
FNDA:0,_ZSt5equalIN9__gnu_cxx17__normal_iteratorIPKcSsEES4_ZNSt8__detail16_Backref_matcherIS4_St12regex_traitsIcEE8_M_applyES4_S4_S4_S4_EUlccE_EbT_SB_T0_T1_
FN:1456,_ZSt8__equal4IN9__gnu_cxx17__normal_iteratorIPKcSsEES4_EbT_S5_T0_S6_
FNDA:0,_ZSt8__equal4IN9__gnu_cxx17__normal_iteratorIPKcSsEES4_EbT_S5_T0_S6_
FN:1482,_ZSt8__equal4IN9__gnu_cxx17__normal_iteratorIPKcSsEES4_ZNSt8__detail16_Backref_matcherIS4_St12regex_traitsIcEE8_M_applyES4_S4_S4_S4_EUlccE_EbT_SB_T0_SC_T1_
FNDA:0,_ZSt8__equal4IN9__gnu_cxx17__normal_iteratorIPKcSsEES4_ZNSt8__detail16_Backref_matcherIS4_St12regex_traitsIcEE8_M_applyES4_S4_S4_S4_EUlccE_EbT_SB_T0_SC_T1_
FN:1924,_ZSt9__find_ifIN9__gnu_cxx17__normal_iteratorIPSsSt6vectorISsSaISsEEEENS0_5__ops16_Iter_equals_valIKSsEEET_SB_SB_T0_St26random_access_iterator_tag
FNDA:0,_ZSt9__find_ifIN9__gnu_cxx17__normal_iteratorIPSsSt6vectorISsSaISsEEEENS0_5__ops16_Iter_equals_valIKSsEEET_SB_SB_T0_St26random_access_iterator_tag
FN:1924,_ZSt9__find_ifIN9__gnu_cxx17__normal_iteratorIPKSsSt6vectorISsSaISsEEEENS0_5__ops16_Iter_equals_valIS2_EEET_SB_SB_T0_St26random_access_iterator_tag
FNDA:155194,_ZSt9__find_ifIN9__gnu_cxx17__normal_iteratorIPKSsSt6vectorISsSaISsEEEENS0_5__ops16_Iter_equals_valIS2_EEET_SB_SB_T0_St26random_access_iterator_tag
FN:1975,_ZSt9__find_ifIN9__gnu_cxx17__normal_iteratorIPSsSt6vectorISsSaISsEEEENS0_5__ops16_Iter_equals_valIKSsEEET_SB_SB_T0_
FNDA:0,_ZSt9__find_ifIN9__gnu_cxx17__normal_iteratorIPSsSt6vectorISsSaISsEEEENS0_5__ops16_Iter_equals_valIKSsEEET_SB_SB_T0_
FN:1975,_ZSt9__find_ifIN9__gnu_cxx17__normal_iteratorIPKSsSt6vectorISsSaISsEEEENS0_5__ops16_Iter_equals_valIS2_EEET_SB_SB_T0_
FNDA:155194,_ZSt9__find_ifIN9__gnu_cxx17__normal_iteratorIPKSsSt6vectorISsSaISsEEEENS0_5__ops16_Iter_equals_valIS2_EEET_SB_SB_T0_
FNF:158
FNH:54
DA:90,0
DA:105,0
DA:152,0
DA:182,0
DA:184,0
DA:230,0
DA:235,0
DA:236,0
DA:237,0
DA:254,0
DA:259,0
DA:260,0
DA:261,0
DA:313,0
DA:315,0
DA:313,0
DA:315,0
DA:313,24
DA:315,24
DA:313,96
DA:315,96
DA:313,0
DA:315,0
DA:313,0
DA:315,0
DA:313,4
DA:315,4
DA:313,3669
DA:315,3669
DA:313,2
DA:315,2
DA:313,0
DA:315,0
DA:313,0
DA:315,0
DA:313,0
DA:315,0
DA:313,0
DA:315,0
DA:313,0
DA:315,0
DA:313,156203
DA:315,156203
DA:313,36
DA:315,36
DA:313,0
DA:315,0
DA:323,6
DA:324,6
DA:323,20556
DA:324,20556
DA:323,0
DA:324,0
DA:330,156131
DA:331,156131
DA:330,0
DA:331,0
DA:330,0
DA:331,0
DA:330,0
DA:331,0
DA:330,0
DA:331,0
DA:330,0
DA:331,0
DA:330,0
DA:331,0
DA:330,1
DA:331,1
DA:330,2
DA:331,2
DA:330,0
DA:331,0
DA:375,0
DA:378,0
DA:380,0
DA:381,0
DA:382,0
DA:384,0
DA:375,20556
DA:378,109766
DA:380,89210
DA:381,89210
DA:382,89210
DA:384,20556
DA:375,1
DA:378,1
DA:380,0
DA:381,0
DA:382,0
DA:384,1
DA:375,1
DA:378,1
DA:380,0
DA:381,0
DA:382,0
DA:384,1
DA:375,0
DA:378,0
DA:380,0
DA:381,0
DA:382,0
DA:384,0
DA:375,0
DA:378,0
DA:380,0
DA:381,0
DA:382,0
DA:384,0
DA:415,156131
DA:424,156131
DA:425,156131
DA:426,155201
DA:427,156131
DA:415,0
DA:424,0
DA:425,0
DA:426,0
DA:427,0
DA:415,0
DA:424,0
DA:425,0
DA:426,0
DA:427,0
DA:415,0
DA:424,0
DA:425,0
DA:426,0
DA:427,0
DA:415,0
DA:424,0
DA:425,0
DA:426,0
DA:427,0
DA:415,0
DA:424,0
DA:425,0
DA:426,0
DA:427,0
DA:415,0
DA:424,0
DA:425,0
DA:426,0
DA:427,0
DA:415,0
DA:424,0
DA:425,0
DA:426,0
DA:427,0
DA:415,1
DA:424,1
DA:425,1
DA:426,0
DA:427,1
DA:463,156131
DA:472,156131
DA:463,0
DA:472,0
DA:463,0
DA:472,0
DA:463,0
DA:472,0
DA:463,0
DA:472,0
DA:463,0
DA:472,0
DA:463,20556
DA:472,20556
DA:463,0
DA:472,0
DA:463,0
DA:472,0
DA:463,0
DA:472,0
DA:463,1
DA:472,1
DA:463,1
DA:472,1
DA:463,1
DA:472,1
DA:463,0
DA:472,0
DA:463,0
DA:472,0
DA:505,156131
DA:506,156131
DA:505,0
DA:506,0
DA:505,0
DA:506,0
DA:505,0
DA:506,0
DA:505,0
DA:506,0
DA:505,0
DA:506,0
DA:505,20556
DA:506,20556
DA:505,0
DA:506,0
DA:505,0
DA:506,0
DA:505,0
DA:506,0
DA:505,1
DA:506,1
DA:505,1
DA:506,1
DA:505,1
DA:506,1
DA:505,0
DA:506,0
DA:505,0
DA:506,0
DA:511,20556
DA:513,20556
DA:516,20556
DA:511,0
DA:513,0
DA:516,0
DA:511,0
DA:513,0
DA:516,0
DA:511,1
DA:513,1
DA:516,1
DA:511,1
DA:513,1
DA:516,1
DA:511,1
DA:513,1
DA:516,1
DA:511,0
DA:513,0
DA:516,0
DA:511,0
DA:513,0
DA:516,0
DA:511,0
DA:513,0
DA:516,0
DA:511,0
DA:513,0
DA:516,0
DA:511,0
DA:513,0
DA:516,0
DA:511,0
DA:513,0
DA:516,0
DA:511,0
DA:513,0
DA:516,0
DA:511,0
DA:513,0
DA:516,0
DA:511,0
DA:513,0
DA:516,0
DA:511,937
DA:513,937
DA:516,937
DA:511,155194
DA:513,155194
DA:516,155194
DA:560,0
DA:569,0
DA:560,155194
DA:569,155194
DA:560,937
DA:569,937
DA:560,0
DA:569,0
DA:560,0
DA:569,0
DA:560,0
DA:569,0
DA:560,0
DA:569,0
DA:560,20556
DA:569,20556
DA:560,0
DA:569,0
DA:560,0
DA:569,0
DA:560,0
DA:569,0
DA:560,1
DA:569,1
DA:560,1
DA:569,1
DA:560,1
DA:569,1
DA:560,0
DA:569,0
DA:560,0
DA:569,0
DA:593,0
DA:601,0
DA:602,0
DA:646,0
DA:649,0
DA:650,0
DA:651,0
DA:652,0
DA:680,6
DA:689,6
DA:690,6
DA:691,6
DA:692,6
DA:680,0
DA:689,0
DA:690,0
DA:691,0
DA:692,0
DA:680,0
DA:689,0
DA:690,0
DA:691,0
DA:692,0
DA:699,6
DA:709,6
DA:711,6
DA:699,0
DA:709,0
DA:711,0
DA:699,0
DA:709,0
DA:711,0
DA:699,0
DA:709,0
DA:711,0
DA:717,6
DA:718,6
DA:717,0
DA:718,0
DA:717,0
DA:718,0
DA:717,0
DA:718,0
DA:745,6
DA:747,6
DA:750,6
DA:745,0
DA:747,0
DA:750,0
DA:745,0
DA:747,0
DA:750,0
DA:745,0
DA:747,0
DA:750,0
DA:797,0
DA:808,0
DA:797,0
DA:808,0
DA:797,0
DA:808,0
DA:833,6
DA:843,6
DA:845,6
DA:857,9895
DA:860,9895
DA:861,7505
DA:862,2390
DA:868,0
DA:871,0
DA:872,0
DA:873,0
DA:874,0
DA:899,871
DA:902,871
DA:913,0
DA:914,0
DA:913,1519
DA:914,1519
DA:913,871
DA:914,871
DA:937,871
DA:944,871
DA:945,871
DA:955,0
DA:1054,0
DA:1060,0
DA:1061,0
DA:1065,0
DA:1066,0
DA:1054,1519
DA:1060,1519
DA:1061,0
DA:1065,1519
DA:1066,1519
DA:1089,0
DA:1094,0
DA:1095,0
DA:1089,1519
DA:1094,1519
DA:1095,3038
DA:1119,0
DA:1121,0
DA:1122,0
DA:1123,0
DA:1150,0
DA:1153,0
DA:1156,0
DA:1162,0
DA:1164,0
DA:1166,0
DA:1311,158976
DA:1317,158976
DA:1319,161271
DA:1321,2295
DA:1322,2295
DA:1323,2295
DA:1324,2295
DA:1326,751
DA:1327,751
DA:1328,751
DA:1331,1544
DA:1333,158976
DA:1374,0
DA:1375,0
DA:1406,0
DA:1416,0
DA:1437,0
DA:1445,0
DA:1446,0
DA:1447,0
DA:1448,0
DA:1456,0
DA:1462,0
DA:1464,0
DA:1465,0
DA:1466,0
DA:1467,0
DA:1468,0
DA:1471,0
DA:1472,0
DA:1473,0
DA:1474,0
DA:1475,0
DA:1482,0
DA:1489,0
DA:1491,0
DA:1492,0
DA:1493,0
DA:1494,0
DA:1495,0
DA:1496,0
DA:1499,0
DA:1500,0
DA:1501,0
DA:1502,0
DA:1503,0
DA:1924,155194
DA:1928,155194
DA:1930,155194
DA:1932,0
DA:1933,0
DA:1934,0
DA:1936,0
DA:1937,0
DA:1938,0
DA:1940,0
DA:1941,0
DA:1942,0
DA:1944,0
DA:1945,0
DA:1946,0
DA:1949,155194
DA:1951,0
DA:1952,0
DA:1953,0
DA:1954,0
DA:1956,0
DA:1957,0
DA:1958,0
DA:1959,0
DA:1961,0
DA:1962,0
DA:1963,0
DA:1964,0
DA:1966,155194
DA:1968,155194
DA:1924,0
DA:1928,0
DA:1930,0
DA:1932,0
DA:1933,0
DA:1934,0
DA:1936,0
DA:1937,0
DA:1938,0
DA:1940,0
DA:1941,0
DA:1942,0
DA:1944,0
DA:1945,0
DA:1946,0
DA:1949,0
DA:1951,0
DA:1952,0
DA:1953,0
DA:1954,0
DA:1956,0
DA:1957,0
DA:1958,0
DA:1959,0
DA:1961,0
DA:1962,0
DA:1963,0
DA:1964,0
DA:1966,0
DA:1968,0
DA:1975,155194
DA:1977,155194
DA:1978,310388
DA:1975,0
DA:1977,0
DA:1978,0
LF:520
LH:152
end_of_record
SF:/usr/lib/gcc/x86_64-pc-msys/10.2.0/include/c++/bits/regex_automaton.h
FN:98,_ZNSt8__detail11_State_baseC2ENS_7_OpcodeE
FNDA:4355,_ZNSt8__detail11_State_baseC2ENS_7_OpcodeE
FN:104,_ZNSt8__detail11_State_base10_M_has_altEv
FNDA:4367,_ZNSt8__detail11_State_base10_M_has_altEv
FN:133,_ZNSt8__detail6_StateIcEC1ENS_7_OpcodeE
FNDA:4355,_ZNSt8__detail6_StateIcEC1ENS_7_OpcodeE
FN:139,_ZNSt8__detail6_StateIcEC1ERKS1_
FNDA:4451,_ZNSt8__detail6_StateIcEC1ERKS1_
FN:146,_ZNSt8__detail6_StateIcEC1EOS1_
FNDA:6864,_ZNSt8__detail6_StateIcEC1EOS1_
FN:156,_ZNSt8__detail6_StateIcED1Ev
FNDA:15568,_ZNSt8__detail6_StateIcED1Ev
FN:165,_ZNKSt8__detail6_StateIcE9_M_opcodeEv
FNDA:0,_ZNKSt8__detail6_StateIcE9_M_opcodeEv
FN:169,_ZNKSt8__detail6_StateIcE10_M_matchesEc
FNDA:0,_ZNKSt8__detail6_StateIcE10_M_matchesEc
FN:173,_ZNSt8__detail6_StateIcE14_M_get_matcherEv
FNDA:4812,_ZNSt8__detail6_StateIcE14_M_get_matcherEv
FN:177,_ZNKSt8__detail6_StateIcE14_M_get_matcherEv
FNDA:0,_ZNKSt8__detail6_StateIcE14_M_get_matcherEv
FN:190,_ZNSt8__detail9_NFA_baseC2ENSt15regex_constants18syntax_option_typeE
FNDA:609,_ZNSt8__detail9_NFA_baseC2ENSt15regex_constants18syntax_option_typeE
FN:198,_ZNSt8__detail9_NFA_baseD2Ev
FNDA:605,_ZNSt8__detail9_NFA_baseD2Ev
FN:206,_ZNKSt8__detail9_NFA_base8_M_startEv
FNDA:0,_ZNKSt8__detail9_NFA_base8_M_startEv
FN:210,_ZNKSt8__detail9_NFA_base12_M_sub_countEv
FNDA:0,_ZNKSt8__detail9_NFA_base12_M_sub_countEv
FN:228,_ZNSt8__detail4_NFAISt12regex_traitsIcEEC1ERKSt6localeNSt15regex_constants18syntax_option_typeE
FNDA:609,_ZNSt8__detail4_NFAISt12regex_traitsIcEEC1ERKSt6localeNSt15regex_constants18syntax_option_typeE
FN:237,_ZNSt8__detail4_NFAISt12regex_traitsIcEE16_M_insert_acceptEv
FNDA:609,_ZNSt8__detail4_NFAISt12regex_traitsIcEE16_M_insert_acceptEv
FN:244,_ZNSt8__detail4_NFAISt12regex_traitsIcEE13_M_insert_altEllb
FNDA:6,_ZNSt8__detail4_NFAISt12regex_traitsIcEE13_M_insert_altEllb
FN:256,_ZNSt8__detail4_NFAISt12regex_traitsIcEE16_M_insert_repeatEllb
FNDA:629,_ZNSt8__detail4_NFAISt12regex_traitsIcEE16_M_insert_repeatEllb
FN:268,_ZNSt8__detail4_NFAISt12regex_traitsIcEE17_M_insert_matcherESt8functionIFbcEE
FNDA:640,_ZNSt8__detail4_NFAISt12regex_traitsIcEE17_M_insert_matcherESt8functionIFbcEE
FN:276,_ZNSt8__detail4_NFAISt12regex_traitsIcEE23_M_insert_subexpr_beginEv
FNDA:613,_ZNSt8__detail4_NFAISt12regex_traitsIcEE23_M_insert_subexpr_beginEv
FN:286,_ZNSt8__detail4_NFAISt12regex_traitsIcEE21_M_insert_subexpr_endEv
FNDA:613,_ZNSt8__detail4_NFAISt12regex_traitsIcEE21_M_insert_subexpr_endEv
FN:298,_ZNSt8__detail4_NFAISt12regex_traitsIcEE20_M_insert_line_beginEv
FNDA:305,_ZNSt8__detail4_NFAISt12regex_traitsIcEE20_M_insert_line_beginEv
FN:302,_ZNSt8__detail4_NFAISt12regex_traitsIcEE18_M_insert_line_endEv
FNDA:301,_ZNSt8__detail4_NFAISt12regex_traitsIcEE18_M_insert_line_endEv
FN:306,_ZNSt8__detail4_NFAISt12regex_traitsIcEE20_M_insert_word_boundEb
FNDA:0,_ZNSt8__detail4_NFAISt12regex_traitsIcEE20_M_insert_word_boundEb
FN:314,_ZNSt8__detail4_NFAISt12regex_traitsIcEE19_M_insert_lookaheadElb
FNDA:0,_ZNSt8__detail4_NFAISt12regex_traitsIcEE19_M_insert_lookaheadElb
FN:323,_ZNSt8__detail4_NFAISt12regex_traitsIcEE15_M_insert_dummyEv
FNDA:639,_ZNSt8__detail4_NFAISt12regex_traitsIcEE15_M_insert_dummyEv
FN:327,_ZNSt8__detail4_NFAISt12regex_traitsIcEE15_M_insert_stateENS_6_StateIcEE
FNDA:4359,_ZNSt8__detail4_NFAISt12regex_traitsIcEE15_M_insert_stateENS_6_StateIcEE
FN:361,_ZNSt8__detail9_StateSeqISt12regex_traitsIcEEC1ERNS_4_NFAIS2_EEl
FNDA:3111,_ZNSt8__detail9_StateSeqISt12regex_traitsIcEEC1ERNS_4_NFAIS2_EEl
FN:365,_ZNSt8__detail9_StateSeqISt12regex_traitsIcEEC1ERNS_4_NFAIS2_EEll
FNDA:10,_ZNSt8__detail9_StateSeqISt12regex_traitsIcEEC1ERNS_4_NFAIS2_EEll
FN:371,_ZNSt8__detail9_StateSeqISt12regex_traitsIcEE9_M_appendEl
FNDA:1859,_ZNSt8__detail9_StateSeqISt12regex_traitsIcEE9_M_appendEl
FN:379,_ZNSt8__detail9_StateSeqISt12regex_traitsIcEE9_M_appendERKS3_
FNDA:2492,_ZNSt8__detail9_StateSeqISt12regex_traitsIcEE9_M_appendERKS3_
FNF:31
FNH:24
DA:98,4355
DA:99,4355
DA:100,4355
DA:104,4367
DA:106,4367
DA:107,4361
DA:108,8728
DA:133,4355
DA:135,4355
DA:136,640
DA:137,4355
DA:139,4451
DA:141,4451
DA:142,983
DA:143,983
DA:144,4451
DA:146,6864
DA:148,6864
DA:149,1288
DA:150,1288
DA:151,6864
DA:156,15568
DA:158,15568
DA:159,2884
DA:160,15568
DA:165,0
DA:166,0
DA:169,0
DA:170,0
DA:173,4812
DA:174,4812
DA:177,0
DA:180,0
DA:190,609
DA:191,609
DA:192,609
DA:193,609
DA:198,605
DA:206,0
DA:207,0
DA:210,0
DA:211,0
DA:228,609
DA:229,609
DA:230,609
DA:237,609
DA:239,609
DA:240,609
DA:244,6
DA:247,6
DA:250,6
DA:251,6
DA:252,12
DA:256,629
DA:258,629
DA:261,629
DA:262,629
DA:263,629
DA:264,1258
DA:268,640
DA:270,640
DA:271,640
DA:272,1280
DA:276,613
DA:278,613
DA:279,613
DA:280,613
DA:281,613
DA:282,1226
DA:286,613
DA:288,613
DA:289,613
DA:290,613
DA:291,1226
DA:298,305
DA:299,305
DA:302,301
DA:303,301
DA:306,0
DA:308,0
DA:309,0
DA:310,0
DA:314,0
DA:316,0
DA:317,0
DA:318,0
DA:319,0
DA:323,639
DA:324,639
DA:327,4359
DA:329,4359
DA:330,4359
DA:331,0
DA:336,4359
DA:361,3111
DA:362,3111
DA:363,3111
DA:365,10
DA:366,10
DA:367,10
DA:371,1859
DA:373,1859
DA:374,1859
DA:375,1859
DA:379,2492
DA:381,2492
DA:382,2492
DA:383,2492
LF:108
LH:88
end_of_record
SF:/usr/lib/gcc/x86_64-pc-msys/10.2.0/include/c++/bits/regex_constants.h
FN:183,_ZNSt15regex_constantsanENS_18syntax_option_typeES0_
FNDA:0,_ZNSt15regex_constantsanENS_18syntax_option_typeES0_
FN:190,_ZNSt15regex_constantsorENS_18syntax_option_typeES0_
FNDA:3662,_ZNSt15regex_constantsorENS_18syntax_option_typeES0_
FN:374,_ZNSt15regex_constantsanENS_15match_flag_typeES0_
FNDA:0,_ZNSt15regex_constantsanENS_15match_flag_typeES0_
FN:381,_ZNSt15regex_constantsorENS_15match_flag_typeES0_
FNDA:0,_ZNSt15regex_constantsorENS_15match_flag_typeES0_
FN:395,_ZNSt15regex_constantscoENS_15match_flag_typeE
FNDA:0,_ZNSt15regex_constantscoENS_15match_flag_typeE
FNF:5
FNH:1
DA:183,0
DA:186,0
DA:190,3662
DA:193,3662
DA:374,0
DA:377,0
DA:381,0
DA:384,0
DA:395,0
DA:396,0
LF:10
LH:2
end_of_record
SF:/usr/lib/gcc/x86_64-pc-msys/10.2.0/include/c++/ext/alloc_traits.h
FN:97,_ZN9__gnu_cxx14__alloc_traitsISaISt4pairISsSsEES2_E17_S_select_on_copyERKS3_
FNDA:0,_ZN9__gnu_cxx14__alloc_traitsISaISt4pairISsSsEES2_E17_S_select_on_copyERKS3_
FN:97,_ZN9__gnu_cxx14__alloc_traitsISaINSt12regex_traitsIcE10_RegexMaskEES3_E17_S_select_on_copyERKS4_
FNDA:937,_ZN9__gnu_cxx14__alloc_traitsISaINSt12regex_traitsIcE10_RegexMaskEES3_E17_S_select_on_copyERKS4_
FN:97,_ZN9__gnu_cxx14__alloc_traitsISaISt4pairIccEES2_E17_S_select_on_copyERKS3_
FNDA:937,_ZN9__gnu_cxx14__alloc_traitsISaISt4pairIccEES2_E17_S_select_on_copyERKS3_
FN:97,_ZN9__gnu_cxx14__alloc_traitsISaIcEcE17_S_select_on_copyERKS1_
FNDA:937,_ZN9__gnu_cxx14__alloc_traitsISaIcEcE17_S_select_on_copyERKS1_
FN:97,_ZN9__gnu_cxx14__alloc_traitsISaISt9sub_matchINS_17__normal_iteratorIPKcSsEEEES6_E17_S_select_on_copyERKS7_
FNDA:294,_ZN9__gnu_cxx14__alloc_traitsISaISt9sub_matchINS_17__normal_iteratorIPKcSsEEEES6_E17_S_select_on_copyERKS7_
FN:97,_ZN9__gnu_cxx14__alloc_traitsISaISsESsE17_S_select_on_copyERKS1_
FNDA:0,_ZN9__gnu_cxx14__alloc_traitsISaISsESsE17_S_select_on_copyERKS1_
FN:97,_ZN9__gnu_cxx14__alloc_traitsISaISt6vectorISsSaISsEEES3_E17_S_select_on_copyERKS4_
FNDA:0,_ZN9__gnu_cxx14__alloc_traitsISaISt6vectorISsSaISsEEES3_E17_S_select_on_copyERKS4_
FN:103,_ZN9__gnu_cxx14__alloc_traitsISaISt9sub_matchINS_17__normal_iteratorIPKcSsEEEES6_E27_S_propagate_on_copy_assignEv
FNDA:23282,_ZN9__gnu_cxx14__alloc_traitsISaISt9sub_matchINS_17__normal_iteratorIPKcSsEEEES6_E27_S_propagate_on_copy_assignEv
FN:103,_ZN9__gnu_cxx14__alloc_traitsISaISsESsE27_S_propagate_on_copy_assignEv
FNDA:1,_ZN9__gnu_cxx14__alloc_traitsISaISsESsE27_S_propagate_on_copy_assignEv
FN:112,_ZN9__gnu_cxx14__alloc_traitsISaISt9sub_matchINS_17__normal_iteratorIPKcSsEEEES6_E15_S_always_equalEv
FNDA:0,_ZN9__gnu_cxx14__alloc_traitsISaISt9sub_matchINS_17__normal_iteratorIPKcSsEEEES6_E15_S_always_equalEv
FN:112,_ZN9__gnu_cxx14__alloc_traitsISaISsESsE15_S_always_equalEv
FNDA:0,_ZN9__gnu_cxx14__alloc_traitsISaISsESsE15_S_always_equalEv
FNF:11
FNH:6
DA:97,0
DA:98,0
DA:97,937
DA:98,937
DA:97,937
DA:98,937
DA:97,937
DA:98,937
DA:97,294
DA:98,294
DA:97,0
DA:98,0
DA:97,0
DA:98,0
DA:103,23282
DA:104,23282
DA:103,1
DA:104,1
DA:112,0
DA:113,0
DA:112,0
DA:113,0
LF:22
LH:12
end_of_record
SF:/usr/lib/gcc/x86_64-pc-msys/10.2.0/include/c++/bits/regex_automaton.tcc
FN:149,_ZNSt8__detail4_NFAISt12regex_traitsIcEE17_M_insert_backrefEm
FNDA:0,_ZNSt8__detail4_NFAISt12regex_traitsIcEE17_M_insert_backrefEm
FN:178,_ZNSt8__detail4_NFAISt12regex_traitsIcEE18_M_eliminate_dummyEv
FNDA:609,_ZNSt8__detail4_NFAISt12regex_traitsIcEE18_M_eliminate_dummyEv
FN:195,_ZNSt8__detail9_StateSeqISt12regex_traitsIcEE8_M_cloneEv
FNDA:4,_ZNSt8__detail9_StateSeqISt12regex_traitsIcEE8_M_cloneEv
FNF:3
FNH:2
DA:149,0
DA:151,0
DA:152,0
DA:161,0
DA:162,0
DA:165,0
DA:166,0
DA:167,0
DA:170,0
DA:171,0
DA:172,0
DA:173,0
DA:178,609
DA:180,4968
DA:182,5048
DA:184,689
DA:185,4359
DA:186,639
DA:188,4
DA:190,609
DA:195,4
DA:197,8
DA:198,8
DA:199,4
DA:200,8
DA:202,4
DA:203,4
DA:204,4
DA:206,4
DA:207,4
DA:208,4
DA:209,0
DA:210,0
DA:211,0
DA:212,4
DA:213,4
DA:214,0
DA:215,0
DA:216,0
DA:218,8
DA:220,4
DA:221,4
DA:222,4
DA:223,0
DA:224,4
DA:225,0
DA:227,8
LF:47
LH:27
end_of_record
SF:/usr/lib/gcc/x86_64-pc-msys/10.2.0/include/c++/bits/regex_compiler.h
FN:69,_ZNSt8__detail9_CompilerISt12regex_traitsIcEE10_M_get_nfaEv
FNDA:609,_ZNSt8__detail9_CompilerISt12regex_traitsIcEE10_M_get_nfaEv
FN:140,_ZNSt8__detail9_CompilerISt12regex_traitsIcEE6_M_popEv
FNDA:3762,_ZNSt8__detail9_CompilerISt12regex_traitsIcEE6_M_popEv
FN:176,_ZNSt8__detail13__compile_nfaISt12regex_traitsIcEPKcEENSt9enable_ifIXsrNS_20__is_contiguous_iterIT0_EE5valueESt10shared_ptrIKNS_4_NFAIT_EEEE4typeES7_S7_RKNSB_11locale_typeENSt15regex_constants18syntax_option_typeE
FNDA:609,_ZNSt8__detail13__compile_nfaISt12regex_traitsIcEPKcEENSt9enable_ifIXsrNS_20__is_contiguous_iterIT0_EE5valueESt10shared_ptrIKNS_4_NFAIT_EEEE4typeES7_S7_RKNSB_11locale_typeENSt15regex_constants18syntax_option_typeE
FN:207,_ZNSt8__detail20_RegexTranslatorBaseISt12regex_traitsIcELb0ELb1EEC2ERKS2_
FNDA:0,_ZNSt8__detail20_RegexTranslatorBaseISt12regex_traitsIcELb0ELb1EEC2ERKS2_
FN:207,_ZNSt8__detail20_RegexTranslatorBaseISt12regex_traitsIcELb1ELb0EEC2ERKS2_
FNDA:0,_ZNSt8__detail20_RegexTranslatorBaseISt12regex_traitsIcELb1ELb0EEC2ERKS2_
FN:207,_ZNSt8__detail20_RegexTranslatorBaseISt12regex_traitsIcELb1ELb1EEC2ERKS2_
FNDA:0,_ZNSt8__detail20_RegexTranslatorBaseISt12regex_traitsIcELb1ELb1EEC2ERKS2_
FN:212,_ZNKSt8__detail20_RegexTranslatorBaseISt12regex_traitsIcELb0ELb1EE12_M_translateEc
FNDA:0,_ZNKSt8__detail20_RegexTranslatorBaseISt12regex_traitsIcELb0ELb1EE12_M_translateEc
FN:212,_ZNKSt8__detail20_RegexTranslatorBaseISt12regex_traitsIcELb1ELb1EE12_M_translateEc
FNDA:0,_ZNKSt8__detail20_RegexTranslatorBaseISt12regex_traitsIcELb1ELb1EE12_M_translateEc
FN:212,_ZNKSt8__detail20_RegexTranslatorBaseISt12regex_traitsIcELb1ELb0EE12_M_translateEc
FNDA:0,_ZNKSt8__detail20_RegexTranslatorBaseISt12regex_traitsIcELb1ELb0EE12_M_translateEc
FN:223,_ZNKSt8__detail20_RegexTranslatorBaseISt12regex_traitsIcELb0ELb1EE12_M_transformEc
FNDA:0,_ZNKSt8__detail20_RegexTranslatorBaseISt12regex_traitsIcELb0ELb1EE12_M_transformEc
FN:223,_ZNKSt8__detail20_RegexTranslatorBaseISt12regex_traitsIcELb1ELb1EE12_M_transformEc
FNDA:0,_ZNKSt8__detail20_RegexTranslatorBaseISt12regex_traitsIcELb1ELb1EE12_M_transformEc
FN:233,_ZNKSt8__detail20_RegexTranslatorBaseISt12regex_traitsIcELb0ELb1EE14_M_match_rangeERKSsS5_S5_
FNDA:0,_ZNKSt8__detail20_RegexTranslatorBaseISt12regex_traitsIcELb0ELb1EE14_M_match_rangeERKSsS5_S5_
FN:238,_ZNKSt8__detail20_RegexTranslatorBaseISt12regex_traitsIcELb1ELb1EE17_M_in_range_icaseEccc
FNDA:0,_ZNKSt8__detail20_RegexTranslatorBaseISt12regex_traitsIcELb1ELb1EE17_M_in_range_icaseEccc
FN:238,_ZNKSt8__detail20_RegexTranslatorBaseISt12regex_traitsIcELb1ELb0EE17_M_in_range_icaseEccc
FNDA:0,_ZNKSt8__detail20_RegexTranslatorBaseISt12regex_traitsIcELb1ELb0EE17_M_in_range_icaseEccc
FN:272,_ZNKSt8__detail16_RegexTranslatorISt12regex_traitsIcELb1ELb0EE12_M_transformEc
FNDA:0,_ZNKSt8__detail16_RegexTranslatorISt12regex_traitsIcELb1ELb0EE12_M_transformEc
FN:276,_ZNKSt8__detail16_RegexTranslatorISt12regex_traitsIcELb1ELb0EE14_M_match_rangeEccc
FNDA:0,_ZNKSt8__detail16_RegexTranslatorISt12regex_traitsIcELb1ELb0EE14_M_match_rangeEccc
FN:297,_ZNKSt8__detail16_RegexTranslatorISt12regex_traitsIcELb1ELb1EE14_M_match_rangeERKSsS5_S5_
FNDA:0,_ZNKSt8__detail16_RegexTranslatorISt12regex_traitsIcELb1ELb1EE14_M_match_rangeERKSsS5_S5_
FN:315,_ZNSt8__detail16_RegexTranslatorISt12regex_traitsIcELb0ELb0EEC1ERKS2_
FNDA:640,_ZNSt8__detail16_RegexTranslatorISt12regex_traitsIcELb0ELb0EEC1ERKS2_
FN:319,_ZNKSt8__detail16_RegexTranslatorISt12regex_traitsIcELb0ELb0EE12_M_translateEc
FNDA:171231,_ZNKSt8__detail16_RegexTranslatorISt12regex_traitsIcELb0ELb0EE12_M_translateEc
FN:323,_ZNKSt8__detail16_RegexTranslatorISt12regex_traitsIcELb0ELb0EE12_M_transformEc
FNDA:158976,_ZNKSt8__detail16_RegexTranslatorISt12regex_traitsIcELb0ELb0EE12_M_transformEc
FN:327,_ZNKSt8__detail16_RegexTranslatorISt12regex_traitsIcELb0ELb0EE14_M_match_rangeEccc
FNDA:1458,_ZNKSt8__detail16_RegexTranslatorISt12regex_traitsIcELb0ELb0EE14_M_match_rangeEccc
FN:341,_ZNSt8__detail11_AnyMatcherISt12regex_traitsIcELb0ELb1ELb1EEC1ERKS2_
FNDA:0,_ZNSt8__detail11_AnyMatcherISt12regex_traitsIcELb0ELb1ELb1EEC1ERKS2_
FN:341,_ZNSt8__detail11_AnyMatcherISt12regex_traitsIcELb0ELb1ELb0EEC1ERKS2_
FNDA:0,_ZNSt8__detail11_AnyMatcherISt12regex_traitsIcELb0ELb1ELb0EEC1ERKS2_
FN:341,_ZNSt8__detail11_AnyMatcherISt12regex_traitsIcELb0ELb0ELb1EEC1ERKS2_
FNDA:0,_ZNSt8__detail11_AnyMatcherISt12regex_traitsIcELb0ELb0ELb1EEC1ERKS2_
FN:341,_ZNSt8__detail11_AnyMatcherISt12regex_traitsIcELb0ELb0ELb0EEC1ERKS2_
FNDA:0,_ZNSt8__detail11_AnyMatcherISt12regex_traitsIcELb0ELb0ELb0EEC1ERKS2_
FN:346,_ZNKSt8__detail11_AnyMatcherISt12regex_traitsIcELb0ELb1ELb1EEclEc
FNDA:0,_ZNKSt8__detail11_AnyMatcherISt12regex_traitsIcELb0ELb1ELb1EEclEc
FN:346,_ZNKSt8__detail11_AnyMatcherISt12regex_traitsIcELb0ELb1ELb0EEclEc
FNDA:0,_ZNKSt8__detail11_AnyMatcherISt12regex_traitsIcELb0ELb1ELb0EEclEc
FN:346,_ZNKSt8__detail11_AnyMatcherISt12regex_traitsIcELb0ELb0ELb1EEclEc
FNDA:0,_ZNKSt8__detail11_AnyMatcherISt12regex_traitsIcELb0ELb0ELb1EEclEc
FN:346,_ZNKSt8__detail11_AnyMatcherISt12regex_traitsIcELb0ELb0ELb0EEclEc
FNDA:0,_ZNKSt8__detail11_AnyMatcherISt12regex_traitsIcELb0ELb0ELb0EEclEc
FN:362,_ZNSt8__detail11_AnyMatcherISt12regex_traitsIcELb1ELb1ELb1EEC1ERKS2_
FNDA:0,_ZNSt8__detail11_AnyMatcherISt12regex_traitsIcELb1ELb1ELb1EEC1ERKS2_
FN:362,_ZNSt8__detail11_AnyMatcherISt12regex_traitsIcELb1ELb1ELb0EEC1ERKS2_
FNDA:0,_ZNSt8__detail11_AnyMatcherISt12regex_traitsIcELb1ELb1ELb0EEC1ERKS2_
FN:362,_ZNSt8__detail11_AnyMatcherISt12regex_traitsIcELb1ELb0ELb1EEC1ERKS2_
FNDA:0,_ZNSt8__detail11_AnyMatcherISt12regex_traitsIcELb1ELb0ELb1EEC1ERKS2_
FN:362,_ZNSt8__detail11_AnyMatcherISt12regex_traitsIcELb1ELb0ELb0EEC1ERKS2_
FNDA:4,_ZNSt8__detail11_AnyMatcherISt12regex_traitsIcELb1ELb0ELb0EEC1ERKS2_
FN:367,_ZNKSt8__detail11_AnyMatcherISt12regex_traitsIcELb1ELb0ELb0EEclEc
FNDA:3232,_ZNKSt8__detail11_AnyMatcherISt12regex_traitsIcELb1ELb0ELb0EEclEc
FN:367,_ZNKSt8__detail11_AnyMatcherISt12regex_traitsIcELb1ELb1ELb1EEclEc
FNDA:0,_ZNKSt8__detail11_AnyMatcherISt12regex_traitsIcELb1ELb1ELb1EEclEc
FN:367,_ZNKSt8__detail11_AnyMatcherISt12regex_traitsIcELb1ELb1ELb0EEclEc
FNDA:0,_ZNKSt8__detail11_AnyMatcherISt12regex_traitsIcELb1ELb1ELb0EEclEc
FN:367,_ZNKSt8__detail11_AnyMatcherISt12regex_traitsIcELb1ELb0ELb1EEclEc
FNDA:0,_ZNKSt8__detail11_AnyMatcherISt12regex_traitsIcELb1ELb0ELb1EEclEc
FN:371,_ZNKSt8__detail11_AnyMatcherISt12regex_traitsIcELb1ELb1ELb1EE8_M_applyEcSt17integral_constantIbLb1EE
FNDA:0,_ZNKSt8__detail11_AnyMatcherISt12regex_traitsIcELb1ELb1ELb1EE8_M_applyEcSt17integral_constantIbLb1EE
FN:371,_ZNKSt8__detail11_AnyMatcherISt12regex_traitsIcELb1ELb1ELb0EE8_M_applyEcSt17integral_constantIbLb1EE
FNDA:0,_ZNKSt8__detail11_AnyMatcherISt12regex_traitsIcELb1ELb1ELb0EE8_M_applyEcSt17integral_constantIbLb1EE
FN:371,_ZNKSt8__detail11_AnyMatcherISt12regex_traitsIcELb1ELb0ELb1EE8_M_applyEcSt17integral_constantIbLb1EE
FNDA:0,_ZNKSt8__detail11_AnyMatcherISt12regex_traitsIcELb1ELb0ELb1EE8_M_applyEcSt17integral_constantIbLb1EE
FN:371,_ZNKSt8__detail11_AnyMatcherISt12regex_traitsIcELb1ELb0ELb0EE8_M_applyEcSt17integral_constantIbLb1EE
FNDA:3232,_ZNKSt8__detail11_AnyMatcherISt12regex_traitsIcELb1ELb0ELb0EE8_M_applyEcSt17integral_constantIbLb1EE
FN:399,_ZNSt8__detail12_CharMatcherISt12regex_traitsIcELb1ELb1EEC1EcRKS2_
FNDA:0,_ZNSt8__detail12_CharMatcherISt12regex_traitsIcELb1ELb1EEC1EcRKS2_
FN:399,_ZNSt8__detail12_CharMatcherISt12regex_traitsIcELb1ELb0EEC1EcRKS2_
FNDA:0,_ZNSt8__detail12_CharMatcherISt12regex_traitsIcELb1ELb0EEC1EcRKS2_
FN:399,_ZNSt8__detail12_CharMatcherISt12regex_traitsIcELb0ELb1EEC1EcRKS2_
FNDA:0,_ZNSt8__detail12_CharMatcherISt12regex_traitsIcELb0ELb1EEC1EcRKS2_
FN:399,_ZNSt8__detail12_CharMatcherISt12regex_traitsIcELb0ELb0EEC1EcRKS2_
FNDA:15,_ZNSt8__detail12_CharMatcherISt12regex_traitsIcELb0ELb0EEC1EcRKS2_
FN:404,_ZNKSt8__detail12_CharMatcherISt12regex_traitsIcELb1ELb1EEclEc
FNDA:0,_ZNKSt8__detail12_CharMatcherISt12regex_traitsIcELb1ELb1EEclEc
FN:404,_ZNKSt8__detail12_CharMatcherISt12regex_traitsIcELb1ELb0EEclEc
FNDA:0,_ZNKSt8__detail12_CharMatcherISt12regex_traitsIcELb1ELb0EEclEc
FN:404,_ZNKSt8__detail12_CharMatcherISt12regex_traitsIcELb0ELb0EEclEc
FNDA:2532,_ZNKSt8__detail12_CharMatcherISt12regex_traitsIcELb0ELb0EEclEc
FN:404,_ZNKSt8__detail12_CharMatcherISt12regex_traitsIcELb0ELb1EEclEc
FNDA:0,_ZNKSt8__detail12_CharMatcherISt12regex_traitsIcELb0ELb1EEclEc
FN:423,_ZNSt8__detail15_BracketMatcherISt12regex_traitsIcELb1ELb0EEC1EbRKS2_
FNDA:0,_ZNSt8__detail15_BracketMatcherISt12regex_traitsIcELb1ELb0EEC1EbRKS2_
FN:423,_ZNSt8__detail15_BracketMatcherISt12regex_traitsIcELb1ELb1EEC1EbRKS2_
FNDA:0,_ZNSt8__detail15_BracketMatcherISt12regex_traitsIcELb1ELb1EEC1EbRKS2_
FN:423,_ZNSt8__detail15_BracketMatcherISt12regex_traitsIcELb0ELb1EEC1EbRKS2_
FNDA:0,_ZNSt8__detail15_BracketMatcherISt12regex_traitsIcELb0ELb1EEC1EbRKS2_
FN:423,_ZNSt8__detail15_BracketMatcherISt12regex_traitsIcELb0ELb0EEC1EbRKS2_
FNDA:621,_ZNSt8__detail15_BracketMatcherISt12regex_traitsIcELb0ELb0EEC1EbRKS2_
FN:430,_ZNKSt8__detail15_BracketMatcherISt12regex_traitsIcELb1ELb0EEclEc
FNDA:0,_ZNKSt8__detail15_BracketMatcherISt12regex_traitsIcELb1ELb0EEclEc
FN:430,_ZNKSt8__detail15_BracketMatcherISt12regex_traitsIcELb1ELb1EEclEc
FNDA:0,_ZNKSt8__detail15_BracketMatcherISt12regex_traitsIcELb1ELb1EEclEc
FN:430,_ZNKSt8__detail15_BracketMatcherISt12regex_traitsIcELb0ELb1EEclEc
FNDA:0,_ZNKSt8__detail15_BracketMatcherISt12regex_traitsIcELb0ELb1EEclEc
FN:430,_ZNKSt8__detail15_BracketMatcherISt12regex_traitsIcELb0ELb0EEclEc
FNDA:4875,_ZNKSt8__detail15_BracketMatcherISt12regex_traitsIcELb0ELb0EEclEc
FN:437,_ZNSt8__detail15_BracketMatcherISt12regex_traitsIcELb1ELb1EE11_M_add_charEc
FNDA:0,_ZNSt8__detail15_BracketMatcherISt12regex_traitsIcELb1ELb1EE11_M_add_charEc
FN:437,_ZNSt8__detail15_BracketMatcherISt12regex_traitsIcELb0ELb0EE11_M_add_charEc
FNDA:12,_ZNSt8__detail15_BracketMatcherISt12regex_traitsIcELb0ELb0EE11_M_add_charEc
FN:437,_ZNSt8__detail15_BracketMatcherISt12regex_traitsIcELb0ELb1EE11_M_add_charEc
FNDA:0,_ZNSt8__detail15_BracketMatcherISt12regex_traitsIcELb0ELb1EE11_M_add_charEc
FN:437,_ZNSt8__detail15_BracketMatcherISt12regex_traitsIcELb1ELb0EE11_M_add_charEc
FNDA:0,_ZNSt8__detail15_BracketMatcherISt12regex_traitsIcELb1ELb0EE11_M_add_charEc
FN:444,_ZNSt8__detail15_BracketMatcherISt12regex_traitsIcELb1ELb0EE22_M_add_collate_elementERKSs
FNDA:0,_ZNSt8__detail15_BracketMatcherISt12regex_traitsIcELb1ELb0EE22_M_add_collate_elementERKSs
FN:444,_ZNSt8__detail15_BracketMatcherISt12regex_traitsIcELb0ELb1EE22_M_add_collate_elementERKSs
FNDA:0,_ZNSt8__detail15_BracketMatcherISt12regex_traitsIcELb0ELb1EE22_M_add_collate_elementERKSs
FN:444,_ZNSt8__detail15_BracketMatcherISt12regex_traitsIcELb1ELb1EE22_M_add_collate_elementERKSs
FNDA:0,_ZNSt8__detail15_BracketMatcherISt12regex_traitsIcELb1ELb1EE22_M_add_collate_elementERKSs
FN:444,_ZNSt8__detail15_BracketMatcherISt12regex_traitsIcELb0ELb0EE22_M_add_collate_elementERKSs
FNDA:0,_ZNSt8__detail15_BracketMatcherISt12regex_traitsIcELb0ELb0EE22_M_add_collate_elementERKSs
FN:457,_ZNSt8__detail15_BracketMatcherISt12regex_traitsIcELb0ELb0EE24_M_add_equivalence_classERKSs
FNDA:0,_ZNSt8__detail15_BracketMatcherISt12regex_traitsIcELb0ELb0EE24_M_add_equivalence_classERKSs
FN:457,_ZNSt8__detail15_BracketMatcherISt12regex_traitsIcELb1ELb0EE24_M_add_equivalence_classERKSs
FNDA:0,_ZNSt8__detail15_BracketMatcherISt12regex_traitsIcELb1ELb0EE24_M_add_equivalence_classERKSs
FN:457,_ZNSt8__detail15_BracketMatcherISt12regex_traitsIcELb0ELb1EE24_M_add_equivalence_classERKSs
FNDA:0,_ZNSt8__detail15_BracketMatcherISt12regex_traitsIcELb0ELb1EE24_M_add_equivalence_classERKSs
FN:457,_ZNSt8__detail15_BracketMatcherISt12regex_traitsIcELb1ELb1EE24_M_add_equivalence_classERKSs
FNDA:0,_ZNSt8__detail15_BracketMatcherISt12regex_traitsIcELb1ELb1EE24_M_add_equivalence_classERKSs
FN:472,_ZNSt8__detail15_BracketMatcherISt12regex_traitsIcELb0ELb1EE22_M_add_character_classERKSsb
FNDA:0,_ZNSt8__detail15_BracketMatcherISt12regex_traitsIcELb0ELb1EE22_M_add_character_classERKSsb
FN:472,_ZNSt8__detail15_BracketMatcherISt12regex_traitsIcELb1ELb1EE22_M_add_character_classERKSsb
FNDA:0,_ZNSt8__detail15_BracketMatcherISt12regex_traitsIcELb1ELb1EE22_M_add_character_classERKSsb
FN:472,_ZNSt8__detail15_BracketMatcherISt12regex_traitsIcELb0ELb0EE22_M_add_character_classERKSsb
FNDA:613,_ZNSt8__detail15_BracketMatcherISt12regex_traitsIcELb0ELb0EE22_M_add_character_classERKSsb
FN:472,_ZNSt8__detail15_BracketMatcherISt12regex_traitsIcELb1ELb0EE22_M_add_character_classERKSsb
FNDA:0,_ZNSt8__detail15_BracketMatcherISt12regex_traitsIcELb1ELb0EE22_M_add_character_classERKSsb
FN:488,_ZNSt8__detail15_BracketMatcherISt12regex_traitsIcELb1ELb0EE13_M_make_rangeEcc
FNDA:0,_ZNSt8__detail15_BracketMatcherISt12regex_traitsIcELb1ELb0EE13_M_make_rangeEcc
FN:488,_ZNSt8__detail15_BracketMatcherISt12regex_traitsIcELb0ELb1EE13_M_make_rangeEcc
FNDA:0,_ZNSt8__detail15_BracketMatcherISt12regex_traitsIcELb0ELb1EE13_M_make_rangeEcc
FN:488,_ZNSt8__detail15_BracketMatcherISt12regex_traitsIcELb0ELb0EE13_M_make_rangeEcc
FNDA:6,_ZNSt8__detail15_BracketMatcherISt12regex_traitsIcELb0ELb0EE13_M_make_rangeEcc
FN:488,_ZNSt8__detail15_BracketMatcherISt12regex_traitsIcELb1ELb1EE13_M_make_rangeEcc
FNDA:0,_ZNSt8__detail15_BracketMatcherISt12regex_traitsIcELb1ELb1EE13_M_make_rangeEcc
FN:499,_ZNSt8__detail15_BracketMatcherISt12regex_traitsIcELb1ELb0EE8_M_readyEv
FNDA:0,_ZNSt8__detail15_BracketMatcherISt12regex_traitsIcELb1ELb0EE8_M_readyEv
FN:499,_ZNSt8__detail15_BracketMatcherISt12regex_traitsIcELb1ELb1EE8_M_readyEv
FNDA:0,_ZNSt8__detail15_BracketMatcherISt12regex_traitsIcELb1ELb1EE8_M_readyEv
FN:499,_ZNSt8__detail15_BracketMatcherISt12regex_traitsIcELb0ELb0EE8_M_readyEv
FNDA:621,_ZNSt8__detail15_BracketMatcherISt12regex_traitsIcELb0ELb0EE8_M_readyEv
FN:499,_ZNSt8__detail15_BracketMatcherISt12regex_traitsIcELb0ELb1EE8_M_readyEv
FNDA:0,_ZNSt8__detail15_BracketMatcherISt12regex_traitsIcELb0ELb1EE8_M_readyEv
FN:526,_ZNKSt8__detail15_BracketMatcherISt12regex_traitsIcELb0ELb0EE8_M_applyEcSt17integral_constantIbLb1EE
FNDA:4875,_ZNKSt8__detail15_BracketMatcherISt12regex_traitsIcELb0ELb0EE8_M_applyEcSt17integral_constantIbLb1EE
FN:526,_ZNKSt8__detail15_BracketMatcherISt12regex_traitsIcELb0ELb1EE8_M_applyEcSt17integral_constantIbLb1EE
FNDA:0,_ZNKSt8__detail15_BracketMatcherISt12regex_traitsIcELb0ELb1EE8_M_applyEcSt17integral_constantIbLb1EE
FN:526,_ZNKSt8__detail15_BracketMatcherISt12regex_traitsIcELb1ELb0EE8_M_applyEcSt17integral_constantIbLb1EE
FNDA:0,_ZNKSt8__detail15_BracketMatcherISt12regex_traitsIcELb1ELb0EE8_M_applyEcSt17integral_constantIbLb1EE
FN:526,_ZNKSt8__detail15_BracketMatcherISt12regex_traitsIcELb1ELb1EE8_M_applyEcSt17integral_constantIbLb1EE
FNDA:0,_ZNKSt8__detail15_BracketMatcherISt12regex_traitsIcELb1ELb1EE8_M_applyEcSt17integral_constantIbLb1EE
FN:530,_ZNSt8__detail15_BracketMatcherISt12regex_traitsIcELb1ELb1EE13_M_make_cacheESt17integral_constantIbLb1EE
FNDA:0,_ZNSt8__detail15_BracketMatcherISt12regex_traitsIcELb1ELb1EE13_M_make_cacheESt17integral_constantIbLb1EE
FN:530,_ZNSt8__detail15_BracketMatcherISt12regex_traitsIcELb1ELb0EE13_M_make_cacheESt17integral_constantIbLb1EE
FNDA:0,_ZNSt8__detail15_BracketMatcherISt12regex_traitsIcELb1ELb0EE13_M_make_cacheESt17integral_constantIbLb1EE
FN:530,_ZNSt8__detail15_BracketMatcherISt12regex_traitsIcELb0ELb1EE13_M_make_cacheESt17integral_constantIbLb1EE
FNDA:0,_ZNSt8__detail15_BracketMatcherISt12regex_traitsIcELb0ELb1EE13_M_make_cacheESt17integral_constantIbLb1EE
FN:530,_ZNSt8__detail15_BracketMatcherISt12regex_traitsIcELb0ELb0EE13_M_make_cacheESt17integral_constantIbLb1EE
FNDA:621,_ZNSt8__detail15_BracketMatcherISt12regex_traitsIcELb0ELb0EE13_M_make_cacheESt17integral_constantIbLb1EE
FNF:89
FNH:20
DA:69,609
DA:70,609
DA:140,3762
DA:142,3762
DA:143,3762
DA:144,3762
DA:176,609
DA:180,609
DA:181,609
DA:183,609
DA:207,0
DA:208,0
DA:209,0
DA:207,0
DA:208,0
DA:209,0
DA:207,0
DA:208,0
DA:209,0
DA:212,0
DA:215,0
DA:212,0
DA:215,0
DA:212,0
DA:217,0
DA:223,0
DA:225,0
DA:226,0
DA:223,0
DA:225,0
DA:226,0
DA:233,0
DA:235,0
DA:238,0
DA:241,0
DA:242,0
DA:243,0
DA:244,0
DA:245,0
DA:238,0
DA:241,0
DA:242,0
DA:243,0
DA:244,0
DA:245,0
DA:272,0
DA:273,0
DA:276,0
DA:280,0
DA:297,0
DA:303,0
DA:315,640
DA:316,640
DA:319,171231
DA:320,171231
DA:323,158976
DA:324,158976
DA:327,1458
DA:328,1458
DA:341,0
DA:342,0
DA:343,0
DA:341,0
DA:342,0
DA:343,0
DA:341,0
DA:342,0
DA:343,0
DA:341,0
DA:342,0
DA:343,0
DA:346,0
DA:348,0
DA:349,0
DA:346,0
DA:348,0
DA:349,0
DA:346,0
DA:348,0
DA:349,0
DA:346,0
DA:348,0
DA:349,0
DA:362,0
DA:363,0
DA:364,0
DA:362,0
DA:363,0
DA:364,0
DA:362,0
DA:363,0
DA:364,0
DA:362,4
DA:363,4
DA:364,4
DA:367,0
DA:368,0
DA:367,0
DA:368,0
DA:367,0
DA:368,0
DA:367,3232
DA:368,3232
DA:371,0
DA:373,0
DA:374,0
DA:375,0
DA:376,0
DA:371,0
DA:373,0
DA:374,0
DA:375,0
DA:376,0
DA:371,0
DA:373,0
DA:374,0
DA:375,0
DA:376,0
DA:371,3232
DA:373,3232
DA:374,3232
DA:375,3232
DA:376,3232
DA:399,0
DA:400,0
DA:401,0
DA:399,0
DA:400,0
DA:401,0
DA:399,0
DA:400,0
DA:401,0
DA:399,15
DA:400,15
DA:401,15
DA:404,0
DA:405,0
DA:404,0
DA:405,0
DA:404,0
DA:405,0
DA:404,2532
DA:405,2532
DA:423,0
DA:426,0
DA:427,0
DA:423,0
DA:426,0
DA:427,0
DA:423,0
DA:426,0
DA:427,0
DA:423,621
DA:426,621
DA:427,621
DA:430,0
DA:433,0
DA:430,0
DA:433,0
DA:430,0
DA:433,0
DA:430,4875
DA:433,4875
DA:437,0
DA:439,0
DA:441,0
DA:437,0
DA:439,0
DA:441,0
DA:437,0
DA:439,0
DA:441,0
DA:437,12
DA:439,12
DA:441,12
DA:444,0
DA:446,0
DA:447,0
DA:448,0
DA:449,0
DA:451,0
DA:453,0
DA:444,0
DA:446,0
DA:447,0
DA:448,0
DA:449,0
DA:451,0
DA:453,0
DA:444,0
DA:446,0
DA:447,0
DA:448,0
DA:449,0
DA:451,0
DA:453,0
DA:444,0
DA:446,0
DA:447,0
DA:448,0
DA:449,0
DA:451,0
DA:453,0
DA:457,0
DA:459,0
DA:460,0
DA:461,0
DA:462,0
DA:464,0
DA:465,0
DA:466,0
DA:468,0
DA:457,0
DA:459,0
DA:460,0
DA:461,0
DA:462,0
DA:464,0
DA:465,0
DA:466,0
DA:468,0
DA:457,0
DA:459,0
DA:460,0
DA:461,0
DA:462,0
DA:464,0
DA:465,0
DA:466,0
DA:468,0
DA:457,0
DA:459,0
DA:460,0
DA:461,0
DA:462,0
DA:464,0
DA:465,0
DA:466,0
DA:468,0
DA:472,0
DA:474,0
DA:475,0
DA:477,0
DA:478,0
DA:480,0
DA:481,0
DA:483,0
DA:485,0
DA:472,0
DA:474,0
DA:475,0
DA:477,0
DA:478,0
DA:480,0
DA:481,0
DA:483,0
DA:485,0
DA:472,0
DA:474,0
DA:475,0
DA:477,0
DA:478,0
DA:480,0
DA:481,0
DA:483,0
DA:485,0
DA:472,613
DA:474,613
DA:475,613
DA:477,613
DA:478,0
DA:480,613
DA:481,613
DA:483,0
DA:485,613
DA:488,0
DA:490,0
DA:491,0
DA:493,0
DA:494,0
DA:496,0
DA:488,0
DA:490,0
DA:491,0
DA:493,0
DA:494,0
DA:496,0
DA:488,0
DA:490,0
DA:491,0
DA:493,0
DA:494,0
DA:496,0
DA:488,6
DA:490,6
DA:491,0
DA:493,6
DA:494,6
DA:496,6
DA:499,0
DA:501,0
DA:502,0
DA:503,0
DA:504,0
DA:506,0
DA:499,0
DA:501,0
DA:502,0
DA:503,0
DA:504,0
DA:506,0
DA:499,0
DA:501,0
DA:502,0
DA:503,0
DA:504,0
DA:506,0
DA:499,621
DA:501,621
DA:502,621
DA:503,621
DA:504,621
DA:506,621
DA:526,0
DA:527,0
DA:526,0
DA:527,0
DA:526,0
DA:527,0
DA:526,4875
DA:527,4875
DA:530,0
DA:532,0
DA:533,0
DA:534,0
DA:530,0
DA:532,0
DA:533,0
DA:534,0
DA:530,0
DA:532,0
DA:533,0
DA:534,0
DA:530,621
DA:532,159597
DA:533,158976
DA:534,621
LF:347
LH:65
end_of_record
SF:/usr/lib/gcc/x86_64-pc-msys/10.2.0/include/c++/bits/stl_tree.h
FN:146,_ZNSt20_Rb_tree_key_compareISt4lessISsEEC2Ev
FNDA:6,_ZNSt20_Rb_tree_key_compareISt4lessISsEEC2Ev
FN:146,_ZNSt20_Rb_tree_key_compareISt4lessIlEEC2Ev
FNDA:4,_ZNSt20_Rb_tree_key_compareISt4lessIlEEC2Ev
FN:173,_ZNSt15_Rb_tree_headerC2Ev
FNDA:0,_ZNSt15_Rb_tree_headerC2Ev
FN:206,_ZNSt15_Rb_tree_header8_M_resetEv
FNDA:0,_ZNSt15_Rb_tree_header8_M_resetEv
FN:234,_ZNSt13_Rb_tree_nodeISsE9_M_valptrEv
FNDA:58,_ZNSt13_Rb_tree_nodeISsE9_M_valptrEv
FN:234,_ZNSt13_Rb_tree_nodeISt4pairIKllEE9_M_valptrEv
FNDA:32,_ZNSt13_Rb_tree_nodeISt4pairIKllEE9_M_valptrEv
FN:238,_ZNKSt13_Rb_tree_nodeISt4pairIKllEE9_M_valptrEv
FNDA:12,_ZNKSt13_Rb_tree_nodeISt4pairIKllEE9_M_valptrEv
FN:238,_ZNKSt13_Rb_tree_nodeISsE9_M_valptrEv
FNDA:102,_ZNKSt13_Rb_tree_nodeISsE9_M_valptrEv
FN:273,_ZNSt17_Rb_tree_iteratorISsEC1EPSt18_Rb_tree_node_base
FNDA:88,_ZNSt17_Rb_tree_iteratorISsEC1EPSt18_Rb_tree_node_base
FN:273,_ZNSt17_Rb_tree_iteratorISt4pairIKllEEC1EPSt18_Rb_tree_node_base
FNDA:48,_ZNSt17_Rb_tree_iteratorISt4pairIKllEEC1EPSt18_Rb_tree_node_base
FN:277,_ZNKSt17_Rb_tree_iteratorISt4pairIKllEEdeEv
FNDA:24,_ZNKSt17_Rb_tree_iteratorISt4pairIKllEEdeEv
FN:281,_ZNKSt17_Rb_tree_iteratorISt4pairIKllEEptEv
FNDA:0,_ZNKSt17_Rb_tree_iteratorISt4pairIKllEEptEv
FN:285,_ZNSt17_Rb_tree_iteratorISt4pairIKllEEppEv
FNDA:4,_ZNSt17_Rb_tree_iteratorISt4pairIKllEEppEv
FN:300,_ZNSt17_Rb_tree_iteratorISsEmmEv
FNDA:5,_ZNSt17_Rb_tree_iteratorISsEmmEv
FN:300,_ZNSt17_Rb_tree_iteratorISt4pairIKllEEmmEv
FNDA:0,_ZNSt17_Rb_tree_iteratorISt4pairIKllEEmmEv
FN:315,_ZSteqRKSt17_Rb_tree_iteratorISsES2_
FNDA:16,_ZSteqRKSt17_Rb_tree_iteratorISsES2_
FN:315,_ZSteqRKSt17_Rb_tree_iteratorISt4pairIKllEES5_
FNDA:16,_ZSteqRKSt17_Rb_tree_iteratorISt4pairIKllEES5_
FN:320,_ZStneRKSt17_Rb_tree_iteratorISt4pairIKllEES5_
FNDA:8,_ZStneRKSt17_Rb_tree_iteratorISt4pairIKllEES5_
FN:347,_ZNSt23_Rb_tree_const_iteratorISt4pairIKllEEC1EPKSt18_Rb_tree_node_base
FNDA:0,_ZNSt23_Rb_tree_const_iteratorISt4pairIKllEEC1EPKSt18_Rb_tree_node_base
FN:350,_ZNSt23_Rb_tree_const_iteratorISt4pairIKllEEC1ERKSt17_Rb_tree_iteratorIS2_E
FNDA:4,_ZNSt23_Rb_tree_const_iteratorISt4pairIKllEEC1ERKSt17_Rb_tree_iteratorIS2_E
FN:350,_ZNSt23_Rb_tree_const_iteratorISsEC1ERKSt17_Rb_tree_iteratorISsE
FNDA:36,_ZNSt23_Rb_tree_const_iteratorISsEC1ERKSt17_Rb_tree_iteratorISsE
FN:354,_ZNKSt23_Rb_tree_const_iteratorISt4pairIKllEE13_M_const_castEv
FNDA:4,_ZNKSt23_Rb_tree_const_iteratorISt4pairIKllEE13_M_const_castEv
FN:396,_ZSteqRKSt23_Rb_tree_const_iteratorISt4pairIKllEES5_
FNDA:0,_ZSteqRKSt23_Rb_tree_const_iteratorISt4pairIKllEES5_
FN:542,_ZNSt8_Rb_treeISsSsSt9_IdentityISsESt4lessISsESaISsEE11_Alloc_nodeC1ERS5_
FNDA:29,_ZNSt8_Rb_treeISsSsSt9_IdentityISsESt4lessISsESaISsEE11_Alloc_nodeC1ERS5_
FN:550,_ZNKSt8_Rb_treeISsSsSt9_IdentityISsESt4lessISsESaISsEE11_Alloc_nodeclIRKSsEEPSt13_Rb_tree_nodeISsEOT_
FNDA:29,_ZNKSt8_Rb_treeISsSsSt9_IdentityISsESt4lessISsESaISsEE11_Alloc_nodeclIRKSsEEPSt13_Rb_tree_nodeISsEOT_
FN:570,_ZNSt8_Rb_treeISsSsSt9_IdentityISsESt4lessISsESaISsEE21_M_get_Node_allocatorEv
FNDA:116,_ZNSt8_Rb_treeISsSsSt9_IdentityISsESt4lessISsESaISsEE21_M_get_Node_allocatorEv
FN:570,_ZNSt8_Rb_treeIlSt4pairIKllESt10_Select1stIS2_ESt4lessIlESaIS2_EE21_M_get_Node_allocatorEv
FNDA:16,_ZNSt8_Rb_treeIlSt4pairIKllESt10_Select1stIS2_ESt4lessIlESaIS2_EE21_M_get_Node_allocatorEv
FN:583,_ZNSt8_Rb_treeISsSsSt9_IdentityISsESt4lessISsESaISsEE11_M_get_nodeEv
FNDA:29,_ZNSt8_Rb_treeISsSsSt9_IdentityISsESt4lessISsESaISsEE11_M_get_nodeEv
FN:583,_ZNSt8_Rb_treeIlSt4pairIKllESt10_Select1stIS2_ESt4lessIlESaIS2_EE11_M_get_nodeEv
FNDA:4,_ZNSt8_Rb_treeIlSt4pairIKllESt10_Select1stIS2_ESt4lessIlESaIS2_EE11_M_get_nodeEv
FN:587,_ZNSt8_Rb_treeISsSsSt9_IdentityISsESt4lessISsESaISsEE11_M_put_nodeEPSt13_Rb_tree_nodeISsE
FNDA:29,_ZNSt8_Rb_treeISsSsSt9_IdentityISsESt4lessISsESaISsEE11_M_put_nodeEPSt13_Rb_tree_nodeISsE
FN:587,_ZNSt8_Rb_treeIlSt4pairIKllESt10_Select1stIS2_ESt4lessIlESaIS2_EE11_M_put_nodeEPSt13_Rb_tree_nodeIS2_E
FNDA:4,_ZNSt8_Rb_treeIlSt4pairIKllESt10_Select1stIS2_ESt4lessIlESaIS2_EE11_M_put_nodeEPSt13_Rb_tree_nodeIS2_E
FN:613,_ZNSt8_Rb_treeISsSsSt9_IdentityISsESt4lessISsESaISsEE17_M_construct_nodeIJRKSsEEEvPSt13_Rb_tree_nodeISsEDpOT_
FNDA:29,_ZNSt8_Rb_treeISsSsSt9_IdentityISsESt4lessISsESaISsEE17_M_construct_nodeIJRKSsEEEvPSt13_Rb_tree_nodeISsEDpOT_
FN:613,_ZNSt8_Rb_treeIlSt4pairIKllESt10_Select1stIS2_ESt4lessIlESaIS2_EE17_M_construct_nodeIJRKSt21piecewise_construct_tSt5tupleIJRS1_EESD_IJEEEEEvPSt13_Rb_tree_nodeIS2_EDpOT_
FNDA:4,_ZNSt8_Rb_treeIlSt4pairIKllESt10_Select1stIS2_ESt4lessIlESaIS2_EE17_M_construct_nodeIJRKSt21piecewise_construct_tSt5tupleIJRS1_EESD_IJEEEEEvPSt13_Rb_tree_nodeIS2_EDpOT_
FN:632,_ZNSt8_Rb_treeISsSsSt9_IdentityISsESt4lessISsESaISsEE14_M_create_nodeIJRKSsEEEPSt13_Rb_tree_nodeISsEDpOT_
FNDA:29,_ZNSt8_Rb_treeISsSsSt9_IdentityISsESt4lessISsESaISsEE14_M_create_nodeIJRKSsEEEPSt13_Rb_tree_nodeISsEDpOT_
FN:632,_ZNSt8_Rb_treeIlSt4pairIKllESt10_Select1stIS2_ESt4lessIlESaIS2_EE14_M_create_nodeIJRKSt21piecewise_construct_tSt5tupleIJRS1_EESD_IJEEEEEPSt13_Rb_tree_nodeIS2_EDpOT_
FNDA:4,_ZNSt8_Rb_treeIlSt4pairIKllESt10_Select1stIS2_ESt4lessIlESaIS2_EE14_M_create_nodeIJRKSt21piecewise_construct_tSt5tupleIJRS1_EESD_IJEEEEEPSt13_Rb_tree_nodeIS2_EDpOT_
FN:641,_ZNSt8_Rb_treeISsSsSt9_IdentityISsESt4lessISsESaISsEE15_M_destroy_nodeEPSt13_Rb_tree_nodeISsE
FNDA:29,_ZNSt8_Rb_treeISsSsSt9_IdentityISsESt4lessISsESaISsEE15_M_destroy_nodeEPSt13_Rb_tree_nodeISsE
FN:641,_ZNSt8_Rb_treeIlSt4pairIKllESt10_Select1stIS2_ESt4lessIlESaIS2_EE15_M_destroy_nodeEPSt13_Rb_tree_nodeIS2_E
FNDA:4,_ZNSt8_Rb_treeIlSt4pairIKllESt10_Select1stIS2_ESt4lessIlESaIS2_EE15_M_destroy_nodeEPSt13_Rb_tree_nodeIS2_E
FN:652,_ZNSt8_Rb_treeIlSt4pairIKllESt10_Select1stIS2_ESt4lessIlESaIS2_EE12_M_drop_nodeEPSt13_Rb_tree_nodeIS2_E
FNDA:4,_ZNSt8_Rb_treeIlSt4pairIKllESt10_Select1stIS2_ESt4lessIlESaIS2_EE12_M_drop_nodeEPSt13_Rb_tree_nodeIS2_E
FN:652,_ZNSt8_Rb_treeISsSsSt9_IdentityISsESt4lessISsESaISsEE12_M_drop_nodeEPSt13_Rb_tree_nodeISsE
FNDA:29,_ZNSt8_Rb_treeISsSsSt9_IdentityISsESt4lessISsESaISsEE12_M_drop_nodeEPSt13_Rb_tree_nodeISsE
FN:684,_ZNSt8_Rb_treeISsSsSt9_IdentityISsESt4lessISsESaISsEE13_Rb_tree_implIS3_Lb1EEC1Ev
FNDA:6,_ZNSt8_Rb_treeISsSsSt9_IdentityISsESt4lessISsESaISsEE13_Rb_tree_implIS3_Lb1EEC1Ev
FN:684,_ZNSt8_Rb_treeIlSt4pairIKllESt10_Select1stIS2_ESt4lessIlESaIS2_EE13_Rb_tree_implIS6_Lb1EEC1Ev
FNDA:4,_ZNSt8_Rb_treeIlSt4pairIKllESt10_Select1stIS2_ESt4lessIlESaIS2_EE13_Rb_tree_implIS6_Lb1EEC1Ev
FN:732,_ZNSt8_Rb_treeIlSt4pairIKllESt10_Select1stIS2_ESt4lessIlESaIS2_EE11_M_leftmostEv
FNDA:0,_ZNSt8_Rb_treeIlSt4pairIKllESt10_Select1stIS2_ESt4lessIlESaIS2_EE11_M_leftmostEv
FN:740,_ZNSt8_Rb_treeIlSt4pairIKllESt10_Select1stIS2_ESt4lessIlESaIS2_EE12_M_rightmostEv
FNDA:0,_ZNSt8_Rb_treeIlSt4pairIKllESt10_Select1stIS2_ESt4lessIlESaIS2_EE12_M_rightmostEv
FN:748,_ZNSt8_Rb_treeISsSsSt9_IdentityISsESt4lessISsESaISsEE8_M_beginEv
FNDA:42,_ZNSt8_Rb_treeISsSsSt9_IdentityISsESt4lessISsESaISsEE8_M_beginEv
FN:748,_ZNSt8_Rb_treeIlSt4pairIKllESt10_Select1stIS2_ESt4lessIlESaIS2_EE8_M_beginEv
FNDA:20,_ZNSt8_Rb_treeIlSt4pairIKllESt10_Select1stIS2_ESt4lessIlESaIS2_EE8_M_beginEv
FN:752,_ZNKSt8_Rb_treeIlSt4pairIKllESt10_Select1stIS2_ESt4lessIlESaIS2_EE8_M_beginEv
FNDA:0,_ZNKSt8_Rb_treeIlSt4pairIKllESt10_Select1stIS2_ESt4lessIlESaIS2_EE8_M_beginEv
FN:759,_ZNSt8_Rb_treeIlSt4pairIKllESt10_Select1stIS2_ESt4lessIlESaIS2_EE6_M_endEv
FNDA:24,_ZNSt8_Rb_treeIlSt4pairIKllESt10_Select1stIS2_ESt4lessIlESaIS2_EE6_M_endEv
FN:759,_ZNSt8_Rb_treeISsSsSt9_IdentityISsESt4lessISsESaISsEE6_M_endEv
FNDA:65,_ZNSt8_Rb_treeISsSsSt9_IdentityISsESt4lessISsESaISsEE6_M_endEv
FN:763,_ZNKSt8_Rb_treeIlSt4pairIKllESt10_Select1stIS2_ESt4lessIlESaIS2_EE6_M_endEv
FNDA:0,_ZNKSt8_Rb_treeIlSt4pairIKllESt10_Select1stIS2_ESt4lessIlESaIS2_EE6_M_endEv
FN:767,_ZNSt8_Rb_treeISsSsSt9_IdentityISsESt4lessISsESaISsEE6_S_keyEPKSt13_Rb_tree_nodeISsE
FNDA:102,_ZNSt8_Rb_treeISsSsSt9_IdentityISsESt4lessISsESaISsEE6_S_keyEPKSt13_Rb_tree_nodeISsE
FN:767,_ZNSt8_Rb_treeIlSt4pairIKllESt10_Select1stIS2_ESt4lessIlESaIS2_EE6_S_keyEPKSt13_Rb_tree_nodeIS2_E
FNDA:12,_ZNSt8_Rb_treeIlSt4pairIKllESt10_Select1stIS2_ESt4lessIlESaIS2_EE6_S_keyEPKSt13_Rb_tree_nodeIS2_E
FN:789,_ZNSt8_Rb_treeISsSsSt9_IdentityISsESt4lessISsESaISsEE7_S_leftEPSt18_Rb_tree_node_base
FNDA:47,_ZNSt8_Rb_treeISsSsSt9_IdentityISsESt4lessISsESaISsEE7_S_leftEPSt18_Rb_tree_node_base
FN:789,_ZNSt8_Rb_treeIlSt4pairIKllESt10_Select1stIS2_ESt4lessIlESaIS2_EE7_S_leftEPSt18_Rb_tree_node_base
FNDA:12,_ZNSt8_Rb_treeIlSt4pairIKllESt10_Select1stIS2_ESt4lessIlESaIS2_EE7_S_leftEPSt18_Rb_tree_node_base
FN:793,_ZNSt8_Rb_treeIlSt4pairIKllESt10_Select1stIS2_ESt4lessIlESaIS2_EE7_S_leftEPKSt18_Rb_tree_node_base
FNDA:0,_ZNSt8_Rb_treeIlSt4pairIKllESt10_Select1stIS2_ESt4lessIlESaIS2_EE7_S_leftEPKSt18_Rb_tree_node_base
FN:797,_ZNSt8_Rb_treeISsSsSt9_IdentityISsESt4lessISsESaISsEE8_S_rightEPSt18_Rb_tree_node_base
FNDA:65,_ZNSt8_Rb_treeISsSsSt9_IdentityISsESt4lessISsESaISsEE8_S_rightEPSt18_Rb_tree_node_base
FN:797,_ZNSt8_Rb_treeIlSt4pairIKllESt10_Select1stIS2_ESt4lessIlESaIS2_EE8_S_rightEPSt18_Rb_tree_node_base
FNDA:4,_ZNSt8_Rb_treeIlSt4pairIKllESt10_Select1stIS2_ESt4lessIlESaIS2_EE8_S_rightEPSt18_Rb_tree_node_base
FN:801,_ZNSt8_Rb_treeIlSt4pairIKllESt10_Select1stIS2_ESt4lessIlESaIS2_EE8_S_rightEPKSt18_Rb_tree_node_base
FNDA:0,_ZNSt8_Rb_treeIlSt4pairIKllESt10_Select1stIS2_ESt4lessIlESaIS2_EE8_S_rightEPKSt18_Rb_tree_node_base
FN:805,_ZNSt8_Rb_treeISsSsSt9_IdentityISsESt4lessISsESaISsEE6_S_keyEPKSt18_Rb_tree_node_base
FNDA:48,_ZNSt8_Rb_treeISsSsSt9_IdentityISsESt4lessISsESaISsEE6_S_keyEPKSt18_Rb_tree_node_base
FN:805,_ZNSt8_Rb_treeIlSt4pairIKllESt10_Select1stIS2_ESt4lessIlESaIS2_EE6_S_keyEPKSt18_Rb_tree_node_base
FNDA:0,_ZNSt8_Rb_treeIlSt4pairIKllESt10_Select1stIS2_ESt4lessIlESaIS2_EE6_S_keyEPKSt18_Rb_tree_node_base
FN:935,_ZNSt8_Rb_treeISsSsSt9_IdentityISsESt4lessISsESaISsEEC1Ev
FNDA:6,_ZNSt8_Rb_treeISsSsSt9_IdentityISsESt4lessISsESaISsEEC1Ev
FN:935,_ZNSt8_Rb_treeIlSt4pairIKllESt10_Select1stIS2_ESt4lessIlESaIS2_EEC1Ev
FNDA:4,_ZNSt8_Rb_treeIlSt4pairIKllESt10_Select1stIS2_ESt4lessIlESaIS2_EEC1Ev
FN:990,_ZNSt8_Rb_treeISsSsSt9_IdentityISsESt4lessISsESaISsEED1Ev
FNDA:6,_ZNSt8_Rb_treeISsSsSt9_IdentityISsESt4lessISsESaISsEED1Ev
FN:990,_ZNSt8_Rb_treeIlSt4pairIKllESt10_Select1stIS2_ESt4lessIlESaIS2_EED1Ev
FNDA:4,_ZNSt8_Rb_treeIlSt4pairIKllESt10_Select1stIS2_ESt4lessIlESaIS2_EED1Ev
FN:998,_ZNKSt8_Rb_treeIlSt4pairIKllESt10_Select1stIS2_ESt4lessIlESaIS2_EE8key_compEv
FNDA:8,_ZNKSt8_Rb_treeIlSt4pairIKllESt10_Select1stIS2_ESt4lessIlESaIS2_EE8key_compEv
FN:1002,_ZNSt8_Rb_treeISsSsSt9_IdentityISsESt4lessISsESaISsEE5beginEv
FNDA:16,_ZNSt8_Rb_treeISsSsSt9_IdentityISsESt4lessISsESaISsEE5beginEv
FN:1002,_ZNSt8_Rb_treeIlSt4pairIKllESt10_Select1stIS2_ESt4lessIlESaIS2_EE5beginEv
FNDA:8,_ZNSt8_Rb_treeIlSt4pairIKllESt10_Select1stIS2_ESt4lessIlESaIS2_EE5beginEv
FN:1010,_ZNSt8_Rb_treeIlSt4pairIKllESt10_Select1stIS2_ESt4lessIlESaIS2_EE3endEv
FNDA:16,_ZNSt8_Rb_treeIlSt4pairIKllESt10_Select1stIS2_ESt4lessIlESaIS2_EE3endEv
FN:1014,_ZNKSt8_Rb_treeIlSt4pairIKllESt10_Select1stIS2_ESt4lessIlESaIS2_EE3endEv
FNDA:0,_ZNKSt8_Rb_treeIlSt4pairIKllESt10_Select1stIS2_ESt4lessIlESaIS2_EE3endEv
FN:1038,_ZNKSt8_Rb_treeIlSt4pairIKllESt10_Select1stIS2_ESt4lessIlESaIS2_EE4sizeEv
FNDA:4,_ZNKSt8_Rb_treeIlSt4pairIKllESt10_Select1stIS2_ESt4lessIlESaIS2_EE4sizeEv
FN:1038,_ZNKSt8_Rb_treeISsSsSt9_IdentityISsESt4lessISsESaISsEE4sizeEv
FNDA:5,_ZNKSt8_Rb_treeISsSsSt9_IdentityISsESt4lessISsESaISsEE4sizeEv
FN:1276,_ZNSt8_Rb_treeIlSt4pairIKllESt10_Select1stIS2_ESt4lessIlESaIS2_EE11lower_boundERS1_
FNDA:12,_ZNSt8_Rb_treeIlSt4pairIKllESt10_Select1stIS2_ESt4lessIlESaIS2_EE11lower_boundERS1_
FN:1803,_ZNSt8_Rb_treeISsSsSt9_IdentityISsESt4lessISsESaISsEE10_M_insert_IRKSsNS5_11_Alloc_nodeEEESt17_Rb_tree_iteratorISsEPSt18_Rb_tree_node_baseSD_OT_RT0_
FNDA:29,_ZNSt8_Rb_treeISsSsSt9_IdentityISsESt4lessISsESaISsEE10_M_insert_IRKSsNS5_11_Alloc_nodeEEESt17_Rb_tree_iteratorISsEPSt18_Rb_tree_node_baseSD_OT_RT0_
FN:1913,_ZNSt8_Rb_treeIlSt4pairIKllESt10_Select1stIS2_ESt4lessIlESaIS2_EE8_M_eraseEPSt13_Rb_tree_nodeIS2_E
FNDA:8,_ZNSt8_Rb_treeIlSt4pairIKllESt10_Select1stIS2_ESt4lessIlESaIS2_EE8_M_eraseEPSt13_Rb_tree_nodeIS2_E
FN:1913,_ZNSt8_Rb_treeISsSsSt9_IdentityISsESt4lessISsESaISsEE8_M_eraseEPSt13_Rb_tree_nodeISsE
FNDA:35,_ZNSt8_Rb_treeISsSsSt9_IdentityISsESt4lessISsESaISsEE8_M_eraseEPSt13_Rb_tree_nodeISsE
FN:1930,_ZNSt8_Rb_treeIlSt4pairIKllESt10_Select1stIS2_ESt4lessIlESaIS2_EE14_M_lower_boundEPSt13_Rb_tree_nodeIS2_EPSt18_Rb_tree_node_baseRS1_
FNDA:12,_ZNSt8_Rb_treeIlSt4pairIKllESt10_Select1stIS2_ESt4lessIlESaIS2_EE14_M_lower_boundEPSt13_Rb_tree_nodeIS2_EPSt18_Rb_tree_node_baseRS1_
FN:1946,_ZNKSt8_Rb_treeIlSt4pairIKllESt10_Select1stIS2_ESt4lessIlESaIS2_EE14_M_lower_boundEPKSt13_Rb_tree_nodeIS2_EPKSt18_Rb_tree_node_baseRS1_
FNDA:0,_ZNKSt8_Rb_treeIlSt4pairIKllESt10_Select1stIS2_ESt4lessIlESaIS2_EE14_M_lower_boundEPKSt13_Rb_tree_nodeIS2_EPKSt18_Rb_tree_node_baseRS1_
FN:2091,_ZNSt8_Rb_treeIlSt4pairIKllESt10_Select1stIS2_ESt4lessIlESaIS2_EE24_M_get_insert_unique_posERS1_
FNDA:4,_ZNSt8_Rb_treeIlSt4pairIKllESt10_Select1stIS2_ESt4lessIlESaIS2_EE24_M_get_insert_unique_posERS1_
FN:2091,_ZNSt8_Rb_treeISsSsSt9_IdentityISsESt4lessISsESaISsEE24_M_get_insert_unique_posERKSs
FNDA:36,_ZNSt8_Rb_treeISsSsSt9_IdentityISsESt4lessISsESaISsEE24_M_get_insert_unique_posERKSs
FN:2145,_ZNSt8_Rb_treeISsSsSt9_IdentityISsESt4lessISsESaISsEE16_M_insert_uniqueIRKSsEESt4pairISt17_Rb_tree_iteratorISsEbEOT_
FNDA:36,_ZNSt8_Rb_treeISsSsSt9_IdentityISsESt4lessISsESaISsEE16_M_insert_uniqueIRKSsEESt4pairISt17_Rb_tree_iteratorISsEbEOT_
FN:2193,_ZNSt8_Rb_treeIlSt4pairIKllESt10_Select1stIS2_ESt4lessIlESaIS2_EE29_M_get_insert_hint_unique_posESt23_Rb_tree_const_iteratorIS2_ERS1_
FNDA:4,_ZNSt8_Rb_treeIlSt4pairIKllESt10_Select1stIS2_ESt4lessIlESaIS2_EE29_M_get_insert_hint_unique_posESt23_Rb_tree_const_iteratorIS2_ERS1_
FN:2360,_ZNSt8_Rb_treeIlSt4pairIKllESt10_Select1stIS2_ESt4lessIlESaIS2_EE14_M_insert_nodeEPSt18_Rb_tree_node_baseSA_PSt13_Rb_tree_nodeIS2_E
FNDA:4,_ZNSt8_Rb_treeIlSt4pairIKllESt10_Select1stIS2_ESt4lessIlESaIS2_EE14_M_insert_nodeEPSt18_Rb_tree_node_baseSA_PSt13_Rb_tree_nodeIS2_E
FN:2458,_ZNSt8_Rb_treeIlSt4pairIKllESt10_Select1stIS2_ESt4lessIlESaIS2_EE22_M_emplace_hint_uniqueIJRKSt21piecewise_construct_tSt5tupleIJRS1_EESD_IJEEEEESt17_Rb_tree_iteratorIS2_ESt23_Rb_tree_const_iteratorIS2_EDpOT_
FNDA:4,_ZNSt8_Rb_treeIlSt4pairIKllESt10_Select1stIS2_ESt4lessIlESaIS2_EE22_M_emplace_hint_uniqueIJRKSt21piecewise_construct_tSt5tupleIJRS1_EESD_IJEEEEESt17_Rb_tree_iteratorIS2_ESt23_Rb_tree_const_iteratorIS2_EDpOT_
FN:2550,_ZNSt8_Rb_treeIlSt4pairIKllESt10_Select1stIS2_ESt4lessIlESaIS2_EE4findERS1_
FNDA:0,_ZNSt8_Rb_treeIlSt4pairIKllESt10_Select1stIS2_ESt4lessIlESaIS2_EE4findERS1_
FN:2563,_ZNKSt8_Rb_treeIlSt4pairIKllESt10_Select1stIS2_ESt4lessIlESaIS2_EE4findERS1_
FNDA:0,_ZNKSt8_Rb_treeIlSt4pairIKllESt10_Select1stIS2_ESt4lessIlESaIS2_EE4findERS1_
FNF:84
FNH:67
DA:146,4
DA:150,4
DA:146,6
DA:150,6
DA:173,0
DA:174,0
DA:175,0
DA:176,0
DA:177,0
DA:206,0
DA:208,0
DA:209,0
DA:210,0
DA:211,0
DA:212,0
DA:234,32
DA:235,32
DA:234,58
DA:235,58
DA:238,12
DA:239,12
DA:238,102
DA:239,102
DA:273,48
DA:274,48
DA:273,88
DA:274,88
DA:277,24
DA:278,24
DA:281,0
DA:282,0
DA:285,4
DA:287,4
DA:288,4
DA:300,0
DA:302,0
DA:303,0
DA:300,5
DA:302,5
DA:303,5
DA:315,16
DA:316,16
DA:315,16
DA:316,16
DA:320,8
DA:321,8
DA:347,0
DA:348,0
DA:350,4
DA:351,4
DA:350,36
DA:351,36
DA:354,4
DA:355,4
DA:396,0
DA:397,0
DA:542,29
DA:543,29
DA:550,29
DA:552,29
DA:570,16
DA:571,16
DA:570,116
DA:571,116
DA:583,4
DA:584,4
DA:583,29
DA:584,29
DA:587,4
DA:588,4
DA:587,29
DA:588,29
DA:613,4
DA:617,4
DA:618,4
DA:622,0
DA:624,0
DA:625,0
DA:626,0
DA:628,4
DA:613,29
DA:617,29
DA:618,29
DA:622,0
DA:624,0
DA:625,0
DA:626,0
DA:628,29
DA:632,4
DA:634,4
DA:635,4
DA:636,4
DA:632,29
DA:634,29
DA:635,29
DA:636,29
DA:641,4
DA:646,4
DA:647,4
DA:649,4
DA:641,29
DA:646,29
DA:647,29
DA:649,29
DA:652,4
DA:654,4
DA:655,4
DA:656,4
DA:652,29
DA:654,29
DA:655,29
DA:656,29
DA:684,4
DA:688,4
DA:689,4
DA:684,6
DA:688,6
DA:689,6
DA:732,0
DA:733,0
DA:740,0
DA:741,0
DA:748,20
DA:749,20
DA:748,42
DA:749,42
DA:752,0
DA:755,0
DA:759,24
DA:760,24
DA:759,65
DA:760,65
DA:763,0
DA:764,0
DA:767,12
DA:785,12
DA:767,102
DA:785,102
DA:789,12
DA:790,12
DA:789,47
DA:790,47
DA:793,0
DA:794,0
DA:797,4
DA:798,4
DA:797,65
DA:798,65
DA:801,0
DA:802,0
DA:805,0
DA:806,0
DA:805,48
DA:806,48
DA:935,4
DA:935,6
DA:990,4
DA:991,4
DA:990,6
DA:991,6
DA:998,8
DA:999,8
DA:1002,8
DA:1003,8
DA:1002,16
DA:1003,16
DA:1010,16
DA:1011,16
DA:1014,0
DA:1015,0
DA:1038,4
DA:1039,4
DA:1038,5
DA:1039,5
DA:1276,12
DA:1277,12
DA:1803,29
DA:1812,29
DA:1813,58
DA:1816,29
DA:1818,29
DA:1819,29
DA:1820,29
DA:1821,29
DA:1913,12
DA:1917,12
DA:1919,4
DA:1920,4
DA:1921,4
DA:1922,4
DA:1924,8
DA:1913,64
DA:1917,64
DA:1919,29
DA:1920,29
DA:1921,29
DA:1922,29
DA:1924,35
DA:1930,20
DA:1934,20
DA:1935,8
DA:1936,8
DA:1938,0
DA:1939,12
DA:1946,0
DA:1950,0
DA:1951,0
DA:1952,0
DA:1954,0
DA:1955,0
DA:2091,4
DA:2095,4
DA:2096,4
DA:2097,4
DA:2098,4
DA:2100,0
DA:2101,0
DA:2102,0
DA:2104,4
DA:2105,4
DA:2107,4
DA:2108,4
DA:2110,0
DA:2112,0
DA:2113,0
DA:2114,0
DA:2091,36
DA:2095,36
DA:2096,36
DA:2097,36
DA:2098,90
DA:2100,54
DA:2101,54
DA:2102,54
DA:2104,36
DA:2105,36
DA:2107,16
DA:2108,11
DA:2110,5
DA:2112,25
DA:2113,18
DA:2114,7
DA:2145,36
DA:2154,36
DA:2156,36
DA:2158,29
DA:2159,29
DA:2161,58
DA:2164,7
DA:2193,4
DA:2197,4
DA:2201,4
DA:2203,4
DA:2204,4
DA:2205,0
DA:2207,4
DA:2209,0
DA:2212,0
DA:2213,0
DA:2214,0
DA:2215,0
DA:2217,0
DA:2218,0
DA:2220,0
DA:2223,0
DA:2225,0
DA:2228,0
DA:2229,0
DA:2230,0
DA:2231,0
DA:2233,0
DA:2234,0
DA:2236,0
DA:2239,0
DA:2243,0
DA:2360,4
DA:2363,4
DA:2364,8
DA:2367,4
DA:2368,4
DA:2369,4
DA:2370,4
DA:2458,4
DA:2461,4
DA:2465,4
DA:2467,4
DA:2468,4
DA:2470,0
DA:2471,0
DA:2473,0
DA:2475,0
DA:2476,0
DA:2550,0
DA:2553,0
DA:2554,0
DA:2555,0
DA:2556,0
DA:2563,0
DA:2566,0
DA:2567,0
DA:2568,0
DA:2569,0
LF:302
LH:209
end_of_record
SF:/usr/lib/gcc/x86_64-pc-msys/10.2.0/include/c++/type_traits
FN:62,_ZNKSt17integral_constantIbLb1EEcvbEv
FNDA:0,_ZNKSt17integral_constantIbLb1EEcvbEv
FNF:1
FNH:0
DA:62,0
LF:1
LH:0
end_of_record
SF:/usr/lib/gcc/x86_64-pc-msys/10.2.0/include/c++/bits/cpp_type_traits.h
FN:500,_ZSt12__miter_baseIPcET_S1_
FNDA:0,_ZSt12__miter_baseIPcET_S1_
FN:500,_ZSt12__miter_baseIPKcET_S2_
FNDA:311660,_ZSt12__miter_baseIPKcET_S2_
FN:500,_ZSt12__miter_baseIN9__gnu_cxx17__normal_iteratorIPKcSt6vectorIcSaIcEEEEET_S8_
FNDA:1874,_ZSt12__miter_baseIN9__gnu_cxx17__normal_iteratorIPKcSt6vectorIcSaIcEEEEET_S8_
FN:500,_ZSt12__miter_baseIPPlET_S2_
FNDA:0,_ZSt12__miter_baseIPPlET_S2_
FN:500,_ZSt12__miter_baseIN9__gnu_cxx17__normal_iteratorIPcSt6vectorIcSaIcEEEEET_S7_
FNDA:12,_ZSt12__miter_baseIN9__gnu_cxx17__normal_iteratorIPcSt6vectorIcSaIcEEEEET_S7_
FN:500,_ZSt12__miter_baseIPPNSt8__detail9_StateSeqISt12regex_traitsIcEEEET_S7_
FNDA:0,_ZSt12__miter_baseIPPNSt8__detail9_StateSeqISt12regex_traitsIcEEEET_S7_
FN:500,_ZSt12__miter_baseIPSt9sub_matchIN9__gnu_cxx17__normal_iteratorIPKcSsEEEET_S8_
FNDA:0,_ZSt12__miter_baseIPSt9sub_matchIN9__gnu_cxx17__normal_iteratorIPKcSsEEEET_S8_
FN:500,_ZSt12__miter_baseIN9__gnu_cxx17__normal_iteratorIPKSt9sub_matchINS1_IPKcSsEEESt6vectorIS6_SaIS6_EEEEET_SD_
FNDA:41112,_ZSt12__miter_baseIN9__gnu_cxx17__normal_iteratorIPKSt9sub_matchINS1_IPKcSsEEESt6vectorIS6_SaIS6_EEEEET_SD_
FN:500,_ZSt12__miter_baseIPdET_S1_
FNDA:0,_ZSt12__miter_baseIPdET_S1_
FN:500,_ZSt12__miter_baseIPiET_S1_
FNDA:0,_ZSt12__miter_baseIPiET_S1_
FN:500,_ZSt12__miter_baseIP8DataTypeET_S2_
FNDA:0,_ZSt12__miter_baseIP8DataTypeET_S2_
FN:500,_ZSt12__miter_baseISt19_Bit_const_iteratorET_S1_
FNDA:2,_ZSt12__miter_baseISt19_Bit_const_iteratorET_S1_
FN:500,_ZSt12__miter_baseIPmET_S1_
FNDA:2,_ZSt12__miter_baseIPmET_S1_
FN:500,_ZSt12__miter_baseISt13_Bit_iteratorET_S1_
FNDA:2,_ZSt12__miter_baseISt13_Bit_iteratorET_S1_
FN:500,_ZSt12__miter_baseIPSsET_S1_
FNDA:0,_ZSt12__miter_baseIPSsET_S1_
FN:500,_ZSt12__miter_baseIN9__gnu_cxx17__normal_iteratorIPKSsSt6vectorISsSaISsEEEEET_S8_
FNDA:0,_ZSt12__miter_baseIN9__gnu_cxx17__normal_iteratorIPKSsSt6vectorISsSaISsEEEEET_S8_
FNF:16
FNH:7
DA:500,0
DA:501,0
DA:500,311660
DA:501,311660
DA:500,1874
DA:501,1874
DA:500,0
DA:501,0
DA:500,12
DA:501,12
DA:500,0
DA:501,0
DA:500,0
DA:501,0
DA:500,41112
DA:501,41112
DA:500,0
DA:501,0
DA:500,0
DA:501,0
DA:500,0
DA:501,0
DA:500,2
DA:501,2
DA:500,2
DA:501,2
DA:500,2
DA:501,2
DA:500,0
DA:501,0
DA:500,0
DA:501,0
LF:32
LH:14
end_of_record
SF:/usr/lib/gcc/x86_64-pc-msys/10.2.0/include/c++/bits/stl_heap.h
FN:134,_ZSt11__push_heapIN9__gnu_cxx17__normal_iteratorIPcSt6vectorIcSaIcEEEElcNS0_5__ops14_Iter_less_valEEvT_T0_SA_T1_RT2_
FNDA:0,_ZSt11__push_heapIN9__gnu_cxx17__normal_iteratorIPcSt6vectorIcSaIcEEEElcNS0_5__ops14_Iter_less_valEEvT_T0_SA_T1_RT2_
FN:223,_ZSt13__adjust_heapIN9__gnu_cxx17__normal_iteratorIPcSt6vectorIcSaIcEEEElcNS0_5__ops15_Iter_less_iterEEvT_T0_SA_T1_T2_
FNDA:0,_ZSt13__adjust_heapIN9__gnu_cxx17__normal_iteratorIPcSt6vectorIcSaIcEEEElcNS0_5__ops15_Iter_less_iterEEvT_T0_SA_T1_T2_
FN:253,_ZSt10__pop_heapIN9__gnu_cxx17__normal_iteratorIPcSt6vectorIcSaIcEEEENS0_5__ops15_Iter_less_iterEEvT_S9_S9_RT0_
FNDA:0,_ZSt10__pop_heapIN9__gnu_cxx17__normal_iteratorIPcSt6vectorIcSaIcEEEENS0_5__ops15_Iter_less_iterEEvT_S9_S9_RT0_
FN:339,_ZSt11__make_heapIN9__gnu_cxx17__normal_iteratorIPcSt6vectorIcSaIcEEEENS0_5__ops15_Iter_less_iterEEvT_S9_RT0_
FNDA:0,_ZSt11__make_heapIN9__gnu_cxx17__normal_iteratorIPcSt6vectorIcSaIcEEEENS0_5__ops15_Iter_less_iterEEvT_S9_RT0_
FN:418,_ZSt11__sort_heapIN9__gnu_cxx17__normal_iteratorIPcSt6vectorIcSaIcEEEENS0_5__ops15_Iter_less_iterEEvT_S9_RT0_
FNDA:0,_ZSt11__sort_heapIN9__gnu_cxx17__normal_iteratorIPcSt6vectorIcSaIcEEEENS0_5__ops15_Iter_less_iterEEvT_S9_RT0_
FNF:5
FNH:0
DA:134,0
DA:138,0
DA:139,0
DA:141,0
DA:142,0
DA:143,0
DA:145,0
DA:146,0
DA:223,0
DA:226,0
DA:227,0
DA:228,0
DA:230,0
DA:231,0
DA:233,0
DA:234,0
DA:235,0
DA:237,0
DA:239,0
DA:240,0
DA:242,0
DA:245,0
DA:246,0
DA:247,0
DA:248,0
DA:253,0
DA:261,0
DA:262,0
DA:263,0
DA:264,0
DA:265,0
DA:266,0
DA:339,0
DA:347,0
DA:348,0
DA:350,0
DA:351,0
DA:352,0
DA:354,0
DA:355,0
DA:357,0
DA:358,0
DA:359,0
DA:418,0
DA:421,0
DA:423,0
DA:424,0
DA:426,0
LF:48
LH:0
end_of_record
SF:/usr/lib/gcc/x86_64-pc-msys/10.2.0/include/c++/bits/regex_error.h
FN:157,_ZNSt11regex_errorC1ENSt15regex_constants10error_typeEPKc
FNDA:0,_ZNSt11regex_errorC1ENSt15regex_constants10error_typeEPKc
FN:170,_ZSt19__throw_regex_errorNSt15regex_constants10error_typeEPKc
FNDA:0,_ZSt19__throw_regex_errorNSt15regex_constants10error_typeEPKc
FNF:2
FNH:0
DA:157,0
DA:158,0
DA:159,0
DA:170,0
DA:171,0
LF:5
LH:0
end_of_record
SF:/usr/lib/gcc/x86_64-pc-msys/10.2.0/include/c++/bits/move.h
FN:49,_ZSt11__addressofISt6vectorISsSaISsEEEPT_RS3_
FNDA:0,_ZSt11__addressofISt6vectorISsSaISsEEEPT_RS3_
FN:49,_ZSt11__addressofIKNSt8__detail12_CharMatcherISt12regex_traitsIcELb1ELb1EEEEPT_RS6_
FNDA:0,_ZSt11__addressofIKNSt8__detail12_CharMatcherISt12regex_traitsIcELb1ELb1EEEEPT_RS6_
FN:49,_ZSt11__addressofISaISt23_Sp_counted_ptr_inplaceINSt8__detail4_NFAISt12regex_traitsIcEEESaIS5_ELN9__gnu_cxx12_Lock_policyE2EEEEPT_RSB_
FNDA:1214,_ZSt11__addressofISaISt23_Sp_counted_ptr_inplaceINSt8__detail4_NFAISt12regex_traitsIcEEESaIS5_ELN9__gnu_cxx12_Lock_policyE2EEEEPT_RSB_
FN:49,_ZSt11__addressofIKNSt8__detail12_CharMatcherISt12regex_traitsIcELb1ELb0EEEEPT_RS6_
FNDA:0,_ZSt11__addressofIKNSt8__detail12_CharMatcherISt12regex_traitsIcELb1ELb0EEEEPT_RS6_
FN:49,_ZSt11__addressofIKNSt8__detail12_CharMatcherISt12regex_traitsIcELb0ELb1EEEEPT_RS6_
FNDA:0,_ZSt11__addressofIKNSt8__detail12_CharMatcherISt12regex_traitsIcELb0ELb1EEEEPT_RS6_
FN:49,_ZSt11__addressofIKNSt8__detail12_CharMatcherISt12regex_traitsIcELb0ELb0EEEEPT_RS6_
FNDA:2532,_ZSt11__addressofIKNSt8__detail12_CharMatcherISt12regex_traitsIcELb0ELb0EEEEPT_RS6_
FN:49,_ZSt11__addressofImEPT_RS0_
FNDA:7,_ZSt11__addressofImEPT_RS0_
FN:49,_ZSt11__addressofISt4pairISsSsEEPT_RS2_
FNDA:0,_ZSt11__addressofISt4pairISsSsEEPT_RS2_
FN:49,_ZSt11__addressofISsEPT_RS0_
FNDA:0,_ZSt11__addressofISsEPT_RS0_
FN:49,_ZSt11__addressofISt6vectorIdSaIdEEEPT_RS3_
FNDA:0,_ZSt11__addressofISt6vectorIdSaIdEEEPT_RS3_
FN:49,_ZSt11__addressofIKcEPT_RS1_
FNDA:898,_ZSt11__addressofIKcEPT_RS1_
FN:49,_ZSt11__addressofIKNSt8__detail11_AnyMatcherISt12regex_traitsIcELb1ELb1ELb1EEEEPT_RS6_
FNDA:0,_ZSt11__addressofIKNSt8__detail11_AnyMatcherISt12regex_traitsIcELb1ELb1ELb1EEEEPT_RS6_
FN:49,_ZSt11__addressofISt4pairIN9__gnu_cxx17__normal_iteratorIPKcSsEEiEEPT_RS7_
FNDA:44162,_ZSt11__addressofISt4pairIN9__gnu_cxx17__normal_iteratorIPKcSsEEiEEPT_RS7_
FN:49,_ZSt11__addressofIKNSt8__detail11_AnyMatcherISt12regex_traitsIcELb1ELb0ELb0EEEEPT_RS6_
FNDA:3232,_ZSt11__addressofIKNSt8__detail11_AnyMatcherISt12regex_traitsIcELb1ELb0ELb0EEEEPT_RS6_
FN:49,_ZSt11__addressofIKNSt8__detail11_AnyMatcherISt12regex_traitsIcELb0ELb1ELb0EEEEPT_RS6_
FNDA:0,_ZSt11__addressofIKNSt8__detail11_AnyMatcherISt12regex_traitsIcELb0ELb1ELb0EEEEPT_RS6_
FN:49,_ZSt11__addressofISt4pairIlSt6vectorISt9sub_matchIN9__gnu_cxx17__normal_iteratorIPKcSsEEESaIS8_EEEEPT_RSC_
FNDA:0,_ZSt11__addressofISt4pairIlSt6vectorISt9sub_matchIN9__gnu_cxx17__normal_iteratorIPKcSsEEESaIS8_EEEEPT_RSC_
FN:49,_ZSt11__addressofIKNSt8__detail11_AnyMatcherISt12regex_traitsIcELb0ELb0ELb1EEEEPT_RS6_
FNDA:0,_ZSt11__addressofIKNSt8__detail11_AnyMatcherISt12regex_traitsIcELb0ELb0ELb1EEEEPT_RS6_
FN:49,_ZSt11__addressofIKNSt8__detail11_AnyMatcherISt12regex_traitsIcELb0ELb1ELb1EEEEPT_RS6_
FNDA:0,_ZSt11__addressofIKNSt8__detail11_AnyMatcherISt12regex_traitsIcELb0ELb1ELb1EEEEPT_RS6_
FN:49,_ZSt11__addressofISt4pairIccEEPT_RS2_
FNDA:17,_ZSt11__addressofISt4pairIccEEPT_RS2_
FN:49,_ZSt11__addressofISt9sub_matchIN9__gnu_cxx17__normal_iteratorIPKcSsEEEEPT_RS7_
FNDA:22487,_ZSt11__addressofISt9sub_matchIN9__gnu_cxx17__normal_iteratorIPKcSsEEEEPT_RS7_
FN:49,_ZSt11__addressofIKNSt8__detail11_AnyMatcherISt12regex_traitsIcELb0ELb0ELb0EEEEPT_RS6_
FNDA:0,_ZSt11__addressofIKNSt8__detail11_AnyMatcherISt12regex_traitsIcELb0ELb0ELb0EEEEPT_RS6_
FN:49,_ZSt11__addressofIKNSt8__detail11_AnyMatcherISt12regex_traitsIcELb1ELb0ELb1EEEEPT_RS6_
FNDA:0,_ZSt11__addressofIKNSt8__detail11_AnyMatcherISt12regex_traitsIcELb1ELb0ELb1EEEEPT_RS6_
FN:49,_ZSt11__addressofINSt12regex_traitsIcE10_RegexMaskEEPT_RS3_
FNDA:0,_ZSt11__addressofINSt12regex_traitsIcE10_RegexMaskEEPT_RS3_
FN:49,_ZSt11__addressofINSt8__detail6_StateIcEEEPT_RS3_
FNDA:13151,_ZSt11__addressofINSt8__detail6_StateIcEEEPT_RS3_
FN:49,_ZSt11__addressofIKNSt8__detail11_AnyMatcherISt12regex_traitsIcELb1ELb1ELb0EEEEPT_RS6_
FNDA:0,_ZSt11__addressofIKNSt8__detail11_AnyMatcherISt12regex_traitsIcELb1ELb1ELb0EEEEPT_RS6_
FN:76,_ZSt7forwardIRNSt8__detail11_AnyMatcherISt12regex_traitsIcELb0ELb0ELb0EEEEOT_RNSt16remove_referenceIS6_E4typeE
FNDA:0,_ZSt7forwardIRNSt8__detail11_AnyMatcherISt12regex_traitsIcELb0ELb0ELb0EEEEOT_RNSt16remove_referenceIS6_E4typeE
FN:76,_ZSt7forwardIRKlEOT_RNSt16remove_referenceIS2_E4typeE
FNDA:16,_ZSt7forwardIRKlEOT_RNSt16remove_referenceIS2_E4typeE
FN:76,_ZSt7forwardISt5tupleIJEEEOT_RNSt16remove_referenceIS2_E4typeE
FNDA:20,_ZSt7forwardISt5tupleIJEEEOT_RNSt16remove_referenceIS2_E4typeE
FN:76,_ZSt7forwardISt5tupleIJRKlEEEOT_RNSt16remove_referenceIS4_E4typeE
FNDA:20,_ZSt7forwardISt5tupleIJRKlEEEOT_RNSt16remove_referenceIS4_E4typeE
FN:76,_ZSt7forwardISt17_Rb_tree_iteratorISsEEOT_RNSt16remove_referenceIS2_E4typeE
FNDA:36,_ZSt7forwardISt17_Rb_tree_iteratorISsEEOT_RNSt16remove_referenceIS2_E4typeE
FN:76,_ZSt7forwardIRKSt21piecewise_construct_tEOT_RNSt16remove_referenceIS3_E4typeE
FNDA:20,_ZSt7forwardIRKSt21piecewise_construct_tEOT_RNSt16remove_referenceIS3_E4typeE
FN:76,_ZSt7forwardIRSt9sub_matchIN9__gnu_cxx17__normal_iteratorIPKcSsEEEEOT_RNSt16remove_referenceIS8_E4typeE
FNDA:0,_ZSt7forwardIRSt9sub_matchIN9__gnu_cxx17__normal_iteratorIPKcSsEEEEOT_RNSt16remove_referenceIS8_E4typeE
FN:76,_ZSt7forwardIRKNSt8__detail9_StateSeqISt12regex_traitsIcEEEEOT_RNSt16remove_referenceIS7_E4typeE
FNDA:3778,_ZSt7forwardIRKNSt8__detail9_StateSeqISt12regex_traitsIcEEEEOT_RNSt16remove_referenceIS7_E4typeE
FN:76,_ZSt7forwardINSt8__detail6_StateIcEEEOT_RNSt16remove_referenceIS3_E4typeE
FNDA:15526,_ZSt7forwardINSt8__detail6_StateIcEEEOT_RNSt16remove_referenceIS3_E4typeE
FN:76,_ZSt7forwardIRKmEOT_RNSt16remove_referenceIS2_E4typeE
FNDA:1837,_ZSt7forwardIRKmEOT_RNSt16remove_referenceIS2_E4typeE
FN:76,_ZSt7forwardISsEOT_RNSt16remove_referenceIS0_E4typeE
FNDA:0,_ZSt7forwardISsEOT_RNSt16remove_referenceIS0_E4typeE
FN:76,_ZSt7forwardINSt8__detail9_StateSeqISt12regex_traitsIcEEEEOT_RNSt16remove_referenceIS5_E4typeE
FNDA:5619,_ZSt7forwardINSt8__detail9_StateSeqISt12regex_traitsIcEEEEOT_RNSt16remove_referenceIS5_E4typeE
FN:76,_ZSt7forwardIRlEOT_RNSt16remove_referenceIS1_E4typeE
FNDA:0,_ZSt7forwardIRlEOT_RNSt16remove_referenceIS1_E4typeE
FN:76,_ZSt7forwardIRKSt6vectorISt9sub_matchIN9__gnu_cxx17__normal_iteratorIPKcSsEEESaIS7_EEEOT_RNSt16remove_referenceISC_E4typeE
FNDA:0,_ZSt7forwardIRKSt6vectorISt9sub_matchIN9__gnu_cxx17__normal_iteratorIPKcSsEEESaIS7_EEEOT_RNSt16remove_referenceISC_E4typeE
FN:76,_ZSt7forwardIRNSt15regex_constants18syntax_option_typeEEOT_RNSt16remove_referenceIS3_E4typeE
FNDA:4872,_ZSt7forwardIRNSt15regex_constants18syntax_option_typeEEOT_RNSt16remove_referenceIS3_E4typeE
FN:76,_ZSt7forwardIRKSt6localeEOT_RNSt16remove_referenceIS3_E4typeE
FNDA:4872,_ZSt7forwardIRKSt6localeEOT_RNSt16remove_referenceIS3_E4typeE
FN:76,_ZSt7forwardIRKSsEOT_RNSt16remove_referenceIS2_E4typeE
FNDA:0,_ZSt7forwardIRKSsEOT_RNSt16remove_referenceIS2_E4typeE
FN:76,_ZSt7forwardIRKSt6vectorISsSaISsEEEOT_RNSt16remove_referenceIS5_E4typeE
FNDA:0,_ZSt7forwardIRKSt6vectorISsSaISsEEEOT_RNSt16remove_referenceIS5_E4typeE
FN:76,_ZSt7forwardIRPSt18_Rb_tree_node_baseEOT_RNSt16remove_referenceIS3_E4typeE
FNDA:0,_ZSt7forwardIRPSt18_Rb_tree_node_baseEOT_RNSt16remove_referenceIS3_E4typeE
FN:76,_ZSt7forwardIRPSt13_Rb_tree_nodeISsEEOT_RNSt16remove_referenceIS4_E4typeE
FNDA:29,_ZSt7forwardIRPSt13_Rb_tree_nodeISsEEOT_RNSt16remove_referenceIS4_E4typeE
FN:76,_ZSt7forwardIbEOT_RNSt16remove_referenceIS0_E4typeE
FNDA:0,_ZSt7forwardIbEOT_RNSt16remove_referenceIS0_E4typeE
FN:76,_ZSt7forwardIRNSt8__detail11_AnyMatcherISt12regex_traitsIcELb0ELb0ELb1EEEEOT_RNSt16remove_referenceIS6_E4typeE
FNDA:0,_ZSt7forwardIRNSt8__detail11_AnyMatcherISt12regex_traitsIcELb0ELb0ELb1EEEEOT_RNSt16remove_referenceIS6_E4typeE
FN:76,_ZSt7forwardIRbEOT_RNSt16remove_referenceIS1_E4typeE
FNDA:0,_ZSt7forwardIRbEOT_RNSt16remove_referenceIS1_E4typeE
FN:76,_ZSt7forwardIRSt17_Rb_tree_iteratorISsEEOT_RNSt16remove_referenceIS3_E4typeE
FNDA:36,_ZSt7forwardIRSt17_Rb_tree_iteratorISsEEOT_RNSt16remove_referenceIS3_E4typeE
FN:76,_ZSt7forwardIRKSt9sub_matchIN9__gnu_cxx17__normal_iteratorIPKcSsEEEEOT_RNSt16remove_referenceIS9_E4typeE
FNDA:22487,_ZSt7forwardIRKSt9sub_matchIN9__gnu_cxx17__normal_iteratorIPKcSsEEEEOT_RNSt16remove_referenceIS9_E4typeE
FN:76,_ZSt7forwardISt4pairIlSt6vectorISt9sub_matchIN9__gnu_cxx17__normal_iteratorIPKcSsEEESaIS8_EEEEOT_RNSt16remove_referenceISC_E4typeE
FNDA:0,_ZSt7forwardISt4pairIlSt6vectorISt9sub_matchIN9__gnu_cxx17__normal_iteratorIPKcSsEEESaIS8_EEEEOT_RNSt16remove_referenceISC_E4typeE
FN:76,_ZSt7forwardIRdEOT_RNSt16remove_referenceIS1_E4typeE
FNDA:22,_ZSt7forwardIRdEOT_RNSt16remove_referenceIS1_E4typeE
FN:76,_ZSt7forwardIlEOT_RNSt16remove_referenceIS0_E4typeE
FNDA:10,_ZSt7forwardIlEOT_RNSt16remove_referenceIS0_E4typeE
FN:76,_ZSt7forwardIRSsEOT_RNSt16remove_referenceIS1_E4typeE
FNDA:0,_ZSt7forwardIRSsEOT_RNSt16remove_referenceIS1_E4typeE
FN:76,_ZSt7forwardImEOT_RNSt16remove_referenceIS0_E4typeE
FNDA:12,_ZSt7forwardImEOT_RNSt16remove_referenceIS0_E4typeE
FN:76,_ZSt7forwardIRKNSt8__detail6_StateIcEEEOT_RNSt16remove_referenceIS5_E4typeE
FNDA:4447,_ZSt7forwardIRKNSt8__detail6_StateIcEEEOT_RNSt16remove_referenceIS5_E4typeE
FN:76,_ZSt7forwardISt4pairIccEEOT_RNSt16remove_referenceIS2_E4typeE
FNDA:30,_ZSt7forwardISt4pairIccEEOT_RNSt16remove_referenceIS2_E4typeE
FN:76,_ZSt7forwardISt4pairISsSsEEOT_RNSt16remove_referenceIS2_E4typeE
FNDA:0,_ZSt7forwardISt4pairISsSsEEOT_RNSt16remove_referenceIS2_E4typeE
FN:76,_ZSt7forwardIRPSt13_Rb_tree_nodeISt4pairIKllEEEOT_RNSt16remove_referenceIS7_E4typeE
FNDA:4,_ZSt7forwardIRPSt13_Rb_tree_nodeISt4pairIKllEEEOT_RNSt16remove_referenceIS7_E4typeE
FN:76,_ZSt7forwardIRNSt8__detail11_AnyMatcherISt12regex_traitsIcELb0ELb1ELb0EEEEOT_RNSt16remove_referenceIS6_E4typeE
FNDA:0,_ZSt7forwardIRNSt8__detail11_AnyMatcherISt12regex_traitsIcELb0ELb1ELb0EEEEOT_RNSt16remove_referenceIS6_E4typeE
FN:76,_ZSt7forwardIdEOT_RNSt16remove_referenceIS0_E4typeE
FNDA:48110,_ZSt7forwardIdEOT_RNSt16remove_referenceIS0_E4typeE
FN:76,_ZSt7forwardIRiEOT_RNSt16remove_referenceIS1_E4typeE
FNDA:0,_ZSt7forwardIRiEOT_RNSt16remove_referenceIS1_E4typeE
FN:76,_ZSt7forwardISt6vectorIdSaIdEEEOT_RNSt16remove_referenceIS3_E4typeE
FNDA:108,_ZSt7forwardISt6vectorIdSaIdEEEOT_RNSt16remove_referenceIS3_E4typeE
FN:76,_ZSt7forwardIR8DataTypeEOT_RNSt16remove_referenceIS2_E4typeE
FNDA:22,_ZSt7forwardIR8DataTypeEOT_RNSt16remove_referenceIS2_E4typeE
FN:76,_ZSt7forwardINSt12regex_traitsIcE10_RegexMaskEEOT_RNSt16remove_referenceIS3_E4typeE
FNDA:0,_ZSt7forwardINSt12regex_traitsIcE10_RegexMaskEEOT_RNSt16remove_referenceIS3_E4typeE
FN:76,_ZSt7forwardIRKSt4pairIccEEOT_RNSt16remove_referenceIS4_E4typeE
FNDA:8,_ZSt7forwardIRKSt4pairIccEEOT_RNSt16remove_referenceIS4_E4typeE
FN:76,_ZSt7forwardIRKSt4pairISsSsEEOT_RNSt16remove_referenceIS4_E4typeE
FNDA:0,_ZSt7forwardIRKSt4pairISsSsEEOT_RNSt16remove_referenceIS4_E4typeE
FN:76,_ZSt7forwardIcEOT_RNSt16remove_referenceIS0_E4typeE
FNDA:0,_ZSt7forwardIcEOT_RNSt16remove_referenceIS0_E4typeE
FN:76,_ZSt7forwardIRNSt8__detail15_BracketMatcherISt12regex_traitsIcELb1ELb0EEEEOT_RNSt16remove_referenceIS6_E4typeE
FNDA:0,_ZSt7forwardIRNSt8__detail15_BracketMatcherISt12regex_traitsIcELb1ELb0EEEEOT_RNSt16remove_referenceIS6_E4typeE
FN:76,_ZSt7forwardIRNSt8__detail11_AnyMatcherISt12regex_traitsIcELb1ELb0ELb1EEEEOT_RNSt16remove_referenceIS6_E4typeE
FNDA:0,_ZSt7forwardIRNSt8__detail11_AnyMatcherISt12regex_traitsIcELb1ELb0ELb1EEEEOT_RNSt16remove_referenceIS6_E4typeE
FN:76,_ZSt7forwardIRNSt8__detail11_AnyMatcherISt12regex_traitsIcELb1ELb1ELb0EEEEOT_RNSt16remove_referenceIS6_E4typeE
FNDA:0,_ZSt7forwardIRNSt8__detail11_AnyMatcherISt12regex_traitsIcELb1ELb1ELb0EEEEOT_RNSt16remove_referenceIS6_E4typeE
FN:76,_ZSt7forwardIRNSt8__detail11_AnyMatcherISt12regex_traitsIcELb1ELb1ELb1EEEEOT_RNSt16remove_referenceIS6_E4typeE
FNDA:0,_ZSt7forwardIRNSt8__detail11_AnyMatcherISt12regex_traitsIcELb1ELb1ELb1EEEEOT_RNSt16remove_referenceIS6_E4typeE
FN:76,_ZSt7forwardIRNSt8__detail12_CharMatcherISt12regex_traitsIcELb0ELb0EEEEOT_RNSt16remove_referenceIS6_E4typeE
FNDA:5064,_ZSt7forwardIRNSt8__detail12_CharMatcherISt12regex_traitsIcELb0ELb0EEEEOT_RNSt16remove_referenceIS6_E4typeE
FN:76,_ZSt7forwardIRNSt8__detail12_CharMatcherISt12regex_traitsIcELb0ELb1EEEEOT_RNSt16remove_referenceIS6_E4typeE
FNDA:0,_ZSt7forwardIRNSt8__detail12_CharMatcherISt12regex_traitsIcELb0ELb1EEEEOT_RNSt16remove_referenceIS6_E4typeE
FN:76,_ZSt7forwardIRNSt8__detail12_CharMatcherISt12regex_traitsIcELb1ELb0EEEEOT_RNSt16remove_referenceIS6_E4typeE
FNDA:0,_ZSt7forwardIRNSt8__detail12_CharMatcherISt12regex_traitsIcELb1ELb0EEEEOT_RNSt16remove_referenceIS6_E4typeE
FN:76,_ZSt7forwardIRNSt8__detail12_CharMatcherISt12regex_traitsIcELb1ELb1EEEEOT_RNSt16remove_referenceIS6_E4typeE
FNDA:0,_ZSt7forwardIRNSt8__detail12_CharMatcherISt12regex_traitsIcELb1ELb1EEEEOT_RNSt16remove_referenceIS6_E4typeE
FN:76,_ZSt7forwardIRNSt8__detail11_AnyMatcherISt12regex_traitsIcELb1ELb0ELb0EEEEOT_RNSt16remove_referenceIS6_E4typeE
FNDA:6464,_ZSt7forwardIRNSt8__detail11_AnyMatcherISt12regex_traitsIcELb1ELb0ELb0EEEEOT_RNSt16remove_referenceIS6_E4typeE
FN:76,_ZSt7forwardIRKNSt12regex_traitsIcE10_RegexMaskEEOT_RNSt16remove_referenceIS5_E4typeE
FNDA:0,_ZSt7forwardIRKNSt12regex_traitsIcE10_RegexMaskEEOT_RNSt16remove_referenceIS5_E4typeE
FN:76,_ZSt7forwardIRNSt8__detail11_AnyMatcherISt12regex_traitsIcELb0ELb1ELb1EEEEOT_RNSt16remove_referenceIS6_E4typeE
FNDA:0,_ZSt7forwardIRNSt8__detail11_AnyMatcherISt12regex_traitsIcELb0ELb1ELb1EEEEOT_RNSt16remove_referenceIS6_E4typeE
FN:76,_ZSt7forwardIRNSt8__detail15_BracketMatcherISt12regex_traitsIcELb0ELb0EEEEOT_RNSt16remove_referenceIS6_E4typeE
FNDA:9750,_ZSt7forwardIRNSt8__detail15_BracketMatcherISt12regex_traitsIcELb0ELb0EEEEOT_RNSt16remove_referenceIS6_E4typeE
FN:76,_ZSt7forwardIRNSt8__detail15_BracketMatcherISt12regex_traitsIcELb0ELb1EEEEOT_RNSt16remove_referenceIS6_E4typeE
FNDA:0,_ZSt7forwardIRNSt8__detail15_BracketMatcherISt12regex_traitsIcELb0ELb1EEEEOT_RNSt16remove_referenceIS6_E4typeE
FN:76,_ZSt7forwardIRNSt8__detail15_BracketMatcherISt12regex_traitsIcELb1ELb1EEEEOT_RNSt16remove_referenceIS6_E4typeE
FNDA:0,_ZSt7forwardIRNSt8__detail15_BracketMatcherISt12regex_traitsIcELb1ELb1EEEEOT_RNSt16remove_referenceIS6_E4typeE
FN:101,_ZSt4moveIRNSs12_Alloc_hiderEEONSt16remove_referenceIT_E4typeEOS3_
FNDA:0,_ZSt4moveIRNSs12_Alloc_hiderEEONSt16remove_referenceIT_E4typeEOS3_
FN:101,_ZSt4moveIRSt6vectorIdSaIdEEEONSt16remove_referenceIT_E4typeEOS5_
FNDA:19,_ZSt4moveIRSt6vectorIdSaIdEEEONSt16remove_referenceIT_E4typeEOS5_
FN:101,_ZSt4moveIRSt6vectorISt9sub_matchIN9__gnu_cxx17__normal_iteratorIPKcSsEEESaIS7_EEEONSt16remove_referenceIT_E4typeEOSC_
FNDA:0,_ZSt4moveIRSt6vectorISt9sub_matchIN9__gnu_cxx17__normal_iteratorIPKcSsEEESaIS7_EEEONSt16remove_referenceIT_E4typeEOSC_
FN:101,_ZSt4moveIRSt6vectorISt4pairIlS0_ISt9sub_matchIN9__gnu_cxx17__normal_iteratorIPKcSsEEESaIS8_EEESaISB_EEEONSt16remove_referenceIT_E4typeEOSG_
FNDA:0,_ZSt4moveIRSt6vectorISt4pairIlS0_ISt9sub_matchIN9__gnu_cxx17__normal_iteratorIPKcSsEEESaIS8_EEESaISB_EEEONSt16remove_referenceIT_E4typeEOSG_
FN:101,_ZSt4moveIRNSt8__detail9_StateSeqISt12regex_traitsIcEEEEONSt16remove_referenceIT_E4typeEOS7_
FNDA:3746,_ZSt4moveIRNSt8__detail9_StateSeqISt12regex_traitsIcEEEEONSt16remove_referenceIT_E4typeEOS7_
FN:101,_ZSt4moveIRSt8functionIFbcEEEONSt16remove_referenceIT_E4typeEOS5_
FNDA:2568,_ZSt4moveIRSt8functionIFbcEEEONSt16remove_referenceIT_E4typeEOS5_
FN:101,_ZSt4moveIRSsEONSt16remove_referenceIT_E4typeEOS2_
FNDA:0,_ZSt4moveIRSsEONSt16remove_referenceIT_E4typeEOS2_
FN:101,_ZSt4moveIRNSt8__detail11_AnyMatcherISt12regex_traitsIcELb1ELb1ELb1EEEEONSt16remove_referenceIT_E4typeEOS7_
FNDA:0,_ZSt4moveIRNSt8__detail11_AnyMatcherISt12regex_traitsIcELb1ELb1ELb1EEEEONSt16remove_referenceIT_E4typeEOS7_
FN:101,_ZSt4moveIRNSt8__detail6_StateIcEEEONSt16remove_referenceIT_E4typeEOS5_
FNDA:11223,_ZSt4moveIRNSt8__detail6_StateIcEEEONSt16remove_referenceIT_E4typeEOS5_
FN:101,_ZSt4moveIRPSsEONSt16remove_referenceIT_E4typeEOS3_
FNDA:0,_ZSt4moveIRPSsEONSt16remove_referenceIT_E4typeEOS3_
FN:101,_ZSt4moveIRNSt12_Vector_baseIdSaIdEE12_Vector_implEEONSt16remove_referenceIT_E4typeEOS6_
FNDA:90,_ZSt4moveIRNSt12_Vector_baseIdSaIdEE12_Vector_implEEONSt16remove_referenceIT_E4typeEOS6_
FN:101,_ZSt4moveIRPdEONSt16remove_referenceIT_E4typeEOS3_
FNDA:0,_ZSt4moveIRPdEONSt16remove_referenceIT_E4typeEOS3_
FN:101,_ZSt4moveIRPiEONSt16remove_referenceIT_E4typeEOS3_
FNDA:0,_ZSt4moveIRPiEONSt16remove_referenceIT_E4typeEOS3_
FN:101,_ZSt4moveIRPSt6vectorIdSaIdEEEONSt16remove_referenceIT_E4typeEOS6_
FNDA:0,_ZSt4moveIRPSt6vectorIdSaIdEEEONSt16remove_referenceIT_E4typeEOS6_
FN:101,_ZSt4moveIRP8DataTypeEONSt16remove_referenceIT_E4typeEOS4_
FNDA:0,_ZSt4moveIRP8DataTypeEONSt16remove_referenceIT_E4typeEOS4_
FN:101,_ZSt4moveIRSt10shared_ptrINSt8__detail4_NFAISt12regex_traitsIcEEEEEONSt16remove_referenceIT_E4typeEOS9_
FNDA:1218,_ZSt4moveIRSt10shared_ptrINSt8__detail4_NFAISt12regex_traitsIcEEEEEONSt16remove_referenceIT_E4typeEOS9_
FN:101,_ZSt4moveIRPKcEONSt16remove_referenceIT_E4typeEOS4_
FNDA:2436,_ZSt4moveIRPKcEONSt16remove_referenceIT_E4typeEOS4_
FN:101,_ZSt4moveIRSt6localeEONSt16remove_referenceIT_E4typeEOS3_
FNDA:2436,_ZSt4moveIRSt6localeEONSt16remove_referenceIT_E4typeEOS3_
FN:101,_ZSt4moveIRcEONSt16remove_referenceIT_E4typeEOS2_
FNDA:26,_ZSt4moveIRcEONSt16remove_referenceIT_E4typeEOS2_
FN:101,_ZSt4moveIRNSt12_Vector_baseISt4pairIlSt6vectorISt9sub_matchIN9__gnu_cxx17__normal_iteratorIPKcSsEEESaIS9_EEESaISC_EE12_Vector_implEEONSt16remove_referenceIT_E4typeEOSI_
FNDA:0,_ZSt4moveIRNSt12_Vector_baseISt4pairIlSt6vectorISt9sub_matchIN9__gnu_cxx17__normal_iteratorIPKcSsEEESaIS9_EEESaISC_EE12_Vector_implEEONSt16remove_referenceIT_E4typeEOSI_
FN:101,_ZSt4moveIRNSt8__detail12_CharMatcherISt12regex_traitsIcELb0ELb1EEEEONSt16remove_referenceIT_E4typeEOS7_
FNDA:0,_ZSt4moveIRNSt8__detail12_CharMatcherISt12regex_traitsIcELb0ELb1EEEEONSt16remove_referenceIT_E4typeEOS7_
FN:101,_ZSt4moveIRNSt8__detail12_CharMatcherISt12regex_traitsIcELb1ELb0EEEEONSt16remove_referenceIT_E4typeEOS7_
FNDA:0,_ZSt4moveIRNSt8__detail12_CharMatcherISt12regex_traitsIcELb1ELb0EEEEONSt16remove_referenceIT_E4typeEOS7_
FN:101,_ZSt4moveIRNSt8__detail12_CharMatcherISt12regex_traitsIcELb1ELb1EEEEONSt16remove_referenceIT_E4typeEOS7_
FNDA:0,_ZSt4moveIRNSt8__detail12_CharMatcherISt12regex_traitsIcELb1ELb1EEEEONSt16remove_referenceIT_E4typeEOS7_
FN:101,_ZSt4moveIRNSt12_Vector_baseIcSaIcEE12_Vector_implEEONSt16remove_referenceIT_E4typeEOS6_
FNDA:2484,_ZSt4moveIRNSt12_Vector_baseIcSaIcEE12_Vector_implEEONSt16remove_referenceIT_E4typeEOS6_
FN:101,_ZSt4moveIRNSt12_Vector_baseISsSaISsEE12_Vector_implEEONSt16remove_referenceIT_E4typeEOS6_
FNDA:0,_ZSt4moveIRNSt12_Vector_baseISsSaISsEE12_Vector_implEEONSt16remove_referenceIT_E4typeEOS6_
FN:101,_ZSt4moveIRNSt12_Vector_baseISt4pairIccESaIS2_EE12_Vector_implEEONSt16remove_referenceIT_E4typeEOS8_
FNDA:2484,_ZSt4moveIRNSt12_Vector_baseISt4pairIccESaIS2_EE12_Vector_implEEONSt16remove_referenceIT_E4typeEOS8_
FN:101,_ZSt4moveIRNSt12_Vector_baseINSt12regex_traitsIcE10_RegexMaskESaIS3_EE12_Vector_implEEONSt16remove_referenceIT_E4typeEOS9_
FNDA:2484,_ZSt4moveIRNSt12_Vector_baseINSt12regex_traitsIcE10_RegexMaskESaIS3_EE12_Vector_implEEONSt16remove_referenceIT_E4typeEOS9_
FN:101,_ZSt4moveIRNSt12_Vector_baseISt4pairISsSsESaIS2_EE12_Vector_implEEONSt16remove_referenceIT_E4typeEOS8_
FNDA:0,_ZSt4moveIRNSt12_Vector_baseISt4pairISsSsESaIS2_EE12_Vector_implEEONSt16remove_referenceIT_E4typeEOS8_
FN:101,_ZSt4moveIRSaISt9sub_matchIN9__gnu_cxx17__normal_iteratorIPKcSsEEEEEONSt16remove_referenceIT_E4typeEOSA_
FNDA:0,_ZSt4moveIRSaISt9sub_matchIN9__gnu_cxx17__normal_iteratorIPKcSsEEEEEONSt16remove_referenceIT_E4typeEOSA_
FN:101,_ZSt4moveIRNSt8__detail12_CharMatcherISt12regex_traitsIcELb0ELb0EEEEONSt16remove_referenceIT_E4typeEOS7_
FNDA:45,_ZSt4moveIRNSt8__detail12_CharMatcherISt12regex_traitsIcELb0ELb0EEEEONSt16remove_referenceIT_E4typeEOS7_
FN:101,_ZSt4moveIRPSt4pairIlSt6vectorISt9sub_matchIN9__gnu_cxx17__normal_iteratorIPKcSsEEESaIS8_EEEEONSt16remove_referenceIT_E4typeEOSF_
FNDA:0,_ZSt4moveIRPSt4pairIlSt6vectorISt9sub_matchIN9__gnu_cxx17__normal_iteratorIPKcSsEEESaIS8_EEEEONSt16remove_referenceIT_E4typeEOSF_
FN:101,_ZSt4moveIRSt4pairIccEEONSt16remove_referenceIT_E4typeEOS4_
FNDA:9,_ZSt4moveIRSt4pairIccEEONSt16remove_referenceIT_E4typeEOS4_
FN:101,_ZSt4moveIRSt4pairISsSsEEONSt16remove_referenceIT_E4typeEOS4_
FNDA:0,_ZSt4moveIRSt4pairISsSsEEONSt16remove_referenceIT_E4typeEOS4_
FN:101,_ZSt4moveIRSt4pairIlSt6vectorISt9sub_matchIN9__gnu_cxx17__normal_iteratorIPKcSsEEESaIS8_EEEEONSt16remove_referenceIT_E4typeEOSE_
FNDA:0,_ZSt4moveIRSt4pairIlSt6vectorISt9sub_matchIN9__gnu_cxx17__normal_iteratorIPKcSsEEESaIS8_EEEEONSt16remove_referenceIT_E4typeEOSE_
FN:101,_ZSt4moveIRPNSt12regex_traitsIcE10_RegexMaskEEONSt16remove_referenceIT_E4typeEOS6_
FNDA:0,_ZSt4moveIRPNSt12regex_traitsIcE10_RegexMaskEEONSt16remove_referenceIT_E4typeEOS6_
FN:101,_ZSt4moveIRNSt12_Vector_baseISt9sub_matchIN9__gnu_cxx17__normal_iteratorIPKcSsEEESaIS7_EE12_Vector_implEEONSt16remove_referenceIT_E4typeEOSD_
FNDA:0,_ZSt4moveIRNSt12_Vector_baseISt9sub_matchIN9__gnu_cxx17__normal_iteratorIPKcSsEEESaIS7_EE12_Vector_implEEONSt16remove_referenceIT_E4typeEOSD_
FN:101,_ZSt4moveIRNSt12regex_traitsIcE10_RegexMaskEEONSt16remove_referenceIT_E4typeEOS5_
FNDA:0,_ZSt4moveIRNSt12regex_traitsIcE10_RegexMaskEEONSt16remove_referenceIT_E4typeEOS5_
FN:101,_ZSt4moveIRN9__gnu_cxx5__ops15_Iter_less_iterEEONSt16remove_referenceIT_E4typeEOS5_
FNDA:0,_ZSt4moveIRN9__gnu_cxx5__ops15_Iter_less_iterEEONSt16remove_referenceIT_E4typeEOS5_
FN:101,_ZSt4moveIRPcEONSt16remove_referenceIT_E4typeEOS3_
FNDA:0,_ZSt4moveIRPcEONSt16remove_referenceIT_E4typeEOS3_
FN:101,_ZSt4moveIRPSt4pairIccEEONSt16remove_referenceIT_E4typeEOS5_
FNDA:0,_ZSt4moveIRPSt4pairIccEEONSt16remove_referenceIT_E4typeEOS5_
FN:101,_ZSt4moveIRNSt8__detail15_BracketMatcherISt12regex_traitsIcELb0ELb1EEEEONSt16remove_referenceIT_E4typeEOS7_
FNDA:0,_ZSt4moveIRNSt8__detail15_BracketMatcherISt12regex_traitsIcELb0ELb1EEEEONSt16remove_referenceIT_E4typeEOS7_
FN:101,_ZSt4moveIRSt9_Any_dataEONSt16remove_referenceIT_E4typeEOS3_
FNDA:7704,_ZSt4moveIRSt9_Any_dataEONSt16remove_referenceIT_E4typeEOS3_
FN:101,_ZSt4moveIRPFbRSt9_Any_dataRKS0_St18_Manager_operationEEONSt16remove_referenceIT_E4typeEOS9_
FNDA:7704,_ZSt4moveIRPFbRSt9_Any_dataRKS0_St18_Manager_operationEEONSt16remove_referenceIT_E4typeEOS9_
FN:101,_ZSt4moveIRPFbRKSt9_Any_dataOcEEONSt16remove_referenceIT_E4typeEOS8_
FNDA:7704,_ZSt4moveIRPFbRKSt9_Any_dataOcEEONSt16remove_referenceIT_E4typeEOS8_
FN:101,_ZSt4moveIRlEONSt16remove_referenceIT_E4typeEOS2_
FNDA:0,_ZSt4moveIRlEONSt16remove_referenceIT_E4typeEOS2_
FN:101,_ZSt4moveIRNSt8__detail15_BracketMatcherISt12regex_traitsIcELb0ELb0EEEEONSt16remove_referenceIT_E4typeEOS7_
FNDA:2484,_ZSt4moveIRNSt8__detail15_BracketMatcherISt12regex_traitsIcELb0ELb0EEEEONSt16remove_referenceIT_E4typeEOS7_
FN:101,_ZSt4moveIRPSt4pairISsSsEEONSt16remove_referenceIT_E4typeEOS5_
FNDA:0,_ZSt4moveIRPSt4pairISsSsEEONSt16remove_referenceIT_E4typeEOS5_
FN:101,_ZSt4moveIRNSt8__detail15_BracketMatcherISt12regex_traitsIcELb1ELb0EEEEONSt16remove_referenceIT_E4typeEOS7_
FNDA:0,_ZSt4moveIRNSt8__detail15_BracketMatcherISt12regex_traitsIcELb1ELb0EEEEONSt16remove_referenceIT_E4typeEOS7_
FN:101,_ZSt4moveIRNSt8__detail15_BracketMatcherISt12regex_traitsIcELb1ELb1EEEEONSt16remove_referenceIT_E4typeEOS7_
FNDA:0,_ZSt4moveIRNSt8__detail15_BracketMatcherISt12regex_traitsIcELb1ELb1EEEEONSt16remove_referenceIT_E4typeEOS7_
FN:101,_ZSt4moveIRPmEONSt16remove_referenceIT_E4typeEOS3_
FNDA:0,_ZSt4moveIRPmEONSt16remove_referenceIT_E4typeEOS3_
FN:101,_ZSt4moveIRNSt8__detail11_AnyMatcherISt12regex_traitsIcELb0ELb0ELb0EEEEONSt16remove_referenceIT_E4typeEOS7_
FNDA:0,_ZSt4moveIRNSt8__detail11_AnyMatcherISt12regex_traitsIcELb0ELb0ELb0EEEEONSt16remove_referenceIT_E4typeEOS7_
FN:101,_ZSt4moveIRNSt8__detail11_AnyMatcherISt12regex_traitsIcELb0ELb0ELb1EEEEONSt16remove_referenceIT_E4typeEOS7_
FNDA:0,_ZSt4moveIRNSt8__detail11_AnyMatcherISt12regex_traitsIcELb0ELb0ELb1EEEEONSt16remove_referenceIT_E4typeEOS7_
FN:101,_ZSt4moveIRNSt8__detail11_AnyMatcherISt12regex_traitsIcELb0ELb1ELb0EEEEONSt16remove_referenceIT_E4typeEOS7_
FNDA:0,_ZSt4moveIRNSt8__detail11_AnyMatcherISt12regex_traitsIcELb0ELb1ELb0EEEEONSt16remove_referenceIT_E4typeEOS7_
FN:101,_ZSt4moveIRNSt8__detail11_AnyMatcherISt12regex_traitsIcELb0ELb1ELb1EEEEONSt16remove_referenceIT_E4typeEOS7_
FNDA:0,_ZSt4moveIRNSt8__detail11_AnyMatcherISt12regex_traitsIcELb0ELb1ELb1EEEEONSt16remove_referenceIT_E4typeEOS7_
FN:101,_ZSt4moveIRNSt8__detail11_AnyMatcherISt12regex_traitsIcELb1ELb0ELb0EEEEONSt16remove_referenceIT_E4typeEOS7_
FNDA:12,_ZSt4moveIRNSt8__detail11_AnyMatcherISt12regex_traitsIcELb1ELb0ELb0EEEEONSt16remove_referenceIT_E4typeEOS7_
FN:101,_ZSt4moveIRNSt8__detail11_AnyMatcherISt12regex_traitsIcELb1ELb0ELb1EEEEONSt16remove_referenceIT_E4typeEOS7_
FNDA:0,_ZSt4moveIRNSt8__detail11_AnyMatcherISt12regex_traitsIcELb1ELb0ELb1EEEEONSt16remove_referenceIT_E4typeEOS7_
FN:101,_ZSt4moveIRNSt8__detail11_AnyMatcherISt12regex_traitsIcELb1ELb1ELb0EEEEONSt16remove_referenceIT_E4typeEOS7_
FNDA:0,_ZSt4moveIRNSt8__detail11_AnyMatcherISt12regex_traitsIcELb1ELb1ELb0EEEEONSt16remove_referenceIT_E4typeEOS7_
FN:189,_ZSt4swapIlENSt9enable_ifIXsrSt6__and_IJSt6__not_ISt15__is_tuple_likeIT_EESt21is_move_constructibleIS4_ESt18is_move_assignableIS4_EEE5valueEvE4typeERS4_SE_
FNDA:0,_ZSt4swapIlENSt9enable_ifIXsrSt6__and_IJSt6__not_ISt15__is_tuple_likeIT_EESt21is_move_constructibleIS4_ESt18is_move_assignableIS4_EEE5valueEvE4typeERS4_SE_
FN:189,_ZSt4swapISt6localeENSt9enable_ifIXsrSt6__and_IJSt6__not_ISt15__is_tuple_likeIT_EESt21is_move_constructibleIS5_ESt18is_move_assignableIS5_EEE5valueEvE4typeERS5_SF_
FNDA:609,_ZSt4swapISt6localeENSt9enable_ifIXsrSt6__and_IJSt6__not_ISt15__is_tuple_likeIT_EESt21is_move_constructibleIS5_ESt18is_move_assignableIS5_EEE5valueEvE4typeERS5_SF_
FN:189,_ZSt4swapIPFbRKSt9_Any_dataOcEENSt9enable_ifIXsrSt6__and_IJSt6__not_ISt15__is_tuple_likeIT_EESt21is_move_constructibleISA_ESt18is_move_assignableISA_EEE5valueEvE4typeERSA_SK_
FNDA:2568,_ZSt4swapIPFbRKSt9_Any_dataOcEENSt9enable_ifIXsrSt6__and_IJSt6__not_ISt15__is_tuple_likeIT_EESt21is_move_constructibleISA_ESt18is_move_assignableISA_EEE5valueEvE4typeERSA_SK_
FN:189,_ZSt4swapIcENSt9enable_ifIXsrSt6__and_IJSt6__not_ISt15__is_tuple_likeIT_EESt21is_move_constructibleIS4_ESt18is_move_assignableIS4_EEE5valueEvE4typeERS4_SE_
FNDA:0,_ZSt4swapIcENSt9enable_ifIXsrSt6__and_IJSt6__not_ISt15__is_tuple_likeIT_EESt21is_move_constructibleIS4_ESt18is_move_assignableIS4_EEE5valueEvE4typeERS4_SE_
FN:189,_ZSt4swapIPFbRSt9_Any_dataRKS0_St18_Manager_operationEENSt9enable_ifIXsrSt6__and_IJSt6__not_ISt15__is_tuple_likeIT_EESt21is_move_constructibleISB_ESt18is_move_assignableISB_EEE5valueEvE4typeERSB_SL_
FNDA:2568,_ZSt4swapIPFbRSt9_Any_dataRKS0_St18_Manager_operationEENSt9enable_ifIXsrSt6__and_IJSt6__not_ISt15__is_tuple_likeIT_EESt21is_move_constructibleISB_ESt18is_move_assignableISB_EEE5valueEvE4typeERSB_SL_
FN:189,_ZSt4swapISt9_Any_dataENSt9enable_ifIXsrSt6__and_IJSt6__not_ISt15__is_tuple_likeIT_EESt21is_move_constructibleIS5_ESt18is_move_assignableIS5_EEE5valueEvE4typeERS5_SF_
FNDA:2568,_ZSt4swapISt9_Any_dataENSt9enable_ifIXsrSt6__and_IJSt6__not_ISt15__is_tuple_likeIT_EESt21is_move_constructibleIS5_ESt18is_move_assignableIS5_EEE5valueEvE4typeERS5_SF_
FNF:145
FNH:59
DA:49,0
DA:50,0
DA:49,7
DA:50,7
DA:49,0
DA:50,0
DA:49,0
DA:50,0
DA:49,898
DA:50,898
DA:49,0
DA:50,0
DA:49,0
DA:50,0
DA:49,22487
DA:50,22487
DA:49,44162
DA:50,44162
DA:49,1214
DA:50,1214
DA:49,13151
DA:50,13151
DA:49,0
DA:50,0
DA:49,0
DA:50,0
DA:49,17
DA:50,17
DA:49,0
DA:50,0
DA:49,3232
DA:50,3232
DA:49,0
DA:50,0
DA:49,0
DA:50,0
DA:49,0
DA:50,0
DA:49,2532
DA:50,2532
DA:49,0
DA:50,0
DA:49,0
DA:50,0
DA:49,0
DA:50,0
DA:49,0
DA:50,0
DA:49,0
DA:50,0
DA:76,0
DA:77,0
DA:76,20
DA:77,20
DA:76,22487
DA:77,22487
DA:76,3778
DA:77,3778
DA:76,0
DA:77,0
DA:76,0
DA:77,0
DA:76,5619
DA:77,5619
DA:76,15526
DA:77,15526
DA:76,1837
DA:77,1837
DA:76,0
DA:77,0
DA:76,4872
DA:77,4872
DA:76,4872
DA:77,4872
DA:76,0
DA:77,0
DA:76,0
DA:77,0
DA:76,29
DA:77,29
DA:76,20
DA:77,20
DA:76,36
DA:77,36
DA:76,0
DA:77,0
DA:76,36
DA:77,36
DA:76,0
DA:77,0
DA:76,22
DA:77,22
DA:76,10
DA:77,10
DA:76,0
DA:77,0
DA:76,12
DA:77,12
DA:76,48110
DA:77,48110
DA:76,0
DA:77,0
DA:76,108
DA:77,108
DA:76,22
DA:77,22
DA:76,0
DA:77,0
DA:76,0
DA:77,0
DA:76,8
DA:77,8
DA:76,0
DA:77,0
DA:76,0
DA:77,0
DA:76,4
DA:77,4
DA:76,0
DA:77,0
DA:76,30
DA:77,30
DA:76,4447
DA:77,4447
DA:76,0
DA:77,0
DA:76,0
DA:77,0
DA:76,0
DA:77,0
DA:76,9750
DA:77,9750
DA:76,0
DA:77,0
DA:76,0
DA:77,0
DA:76,0
DA:77,0
DA:76,0
DA:77,0
DA:76,5064
DA:77,5064
DA:76,0
DA:77,0
DA:76,0
DA:77,0
DA:76,0
DA:77,0
DA:76,6464
DA:77,6464
DA:76,0
DA:77,0
DA:76,0
DA:77,0
DA:76,0
DA:77,0
DA:76,0
DA:77,0
DA:76,0
DA:77,0
DA:76,16
DA:77,16
DA:76,20
DA:77,20
DA:101,3746
DA:102,3746
DA:101,0
DA:102,0
DA:101,0
DA:102,0
DA:101,0
DA:102,0
DA:101,0
DA:102,0
DA:101,0
DA:102,0
DA:101,2484
DA:102,2484
DA:101,0
DA:102,0
DA:101,7704
DA:102,7704
DA:101,7704
DA:102,7704
DA:101,7704
DA:102,7704
DA:101,0
DA:102,0
DA:101,19
DA:102,19
DA:101,0
DA:102,0
DA:101,0
DA:102,0
DA:101,0
DA:102,0
DA:101,2568
DA:102,2568
DA:101,11223
DA:102,11223
DA:101,0
DA:102,0
DA:101,0
DA:102,0
DA:101,0
DA:102,0
DA:101,0
DA:102,0
DA:101,0
DA:102,0
DA:101,1218
DA:102,1218
DA:101,2436
DA:102,2436
DA:101,2436
